ARM GAS  /tmp/ccXI1us5.s 			page 1


   1              		.cpu cortex-m0plus
   2              		.arch armv6s-m
   3              		.fpu softvfp
   4              		.eabi_attribute 20, 1
   5              		.eabi_attribute 21, 1
   6              		.eabi_attribute 23, 3
   7              		.eabi_attribute 24, 1
   8              		.eabi_attribute 25, 1
   9              		.eabi_attribute 26, 1
  10              		.eabi_attribute 30, 1
  11              		.eabi_attribute 34, 0
  12              		.eabi_attribute 18, 4
  13              		.file	"stm32g0xx_hal_flash_ex.c"
  14              		.text
  15              	.Ltext0:
  16              		.cfi_sections	.debug_frame
  17              		.section	.text.FLASH_OB_GetRDP,"ax",%progbits
  18              		.align	1
  19              		.syntax unified
  20              		.code	16
  21              		.thumb_func
  23              	FLASH_OB_GetRDP:
  24              	.LFB342:
  25              		.file 1 "Drivers/STM32G0xx_HAL_Driver/Src/stm32g0xx_hal_flash_ex.c"
   1:Drivers/STM32G0xx_HAL_Driver/Src/stm32g0xx_hal_flash_ex.c **** /**
   2:Drivers/STM32G0xx_HAL_Driver/Src/stm32g0xx_hal_flash_ex.c ****   ******************************************************************************
   3:Drivers/STM32G0xx_HAL_Driver/Src/stm32g0xx_hal_flash_ex.c ****   * @file    stm32g0xx_hal_flash_ex.c
   4:Drivers/STM32G0xx_HAL_Driver/Src/stm32g0xx_hal_flash_ex.c ****   * @author  MCD Application Team
   5:Drivers/STM32G0xx_HAL_Driver/Src/stm32g0xx_hal_flash_ex.c ****   * @brief   Extended FLASH HAL module driver.
   6:Drivers/STM32G0xx_HAL_Driver/Src/stm32g0xx_hal_flash_ex.c ****   *          This file provides firmware functions to manage the following
   7:Drivers/STM32G0xx_HAL_Driver/Src/stm32g0xx_hal_flash_ex.c ****   *          functionalities of the FLASH extended peripheral:
   8:Drivers/STM32G0xx_HAL_Driver/Src/stm32g0xx_hal_flash_ex.c ****   *           + Extended programming operations functions
   9:Drivers/STM32G0xx_HAL_Driver/Src/stm32g0xx_hal_flash_ex.c ****   *
  10:Drivers/STM32G0xx_HAL_Driver/Src/stm32g0xx_hal_flash_ex.c ****  @verbatim
  11:Drivers/STM32G0xx_HAL_Driver/Src/stm32g0xx_hal_flash_ex.c ****  ==============================================================================
  12:Drivers/STM32G0xx_HAL_Driver/Src/stm32g0xx_hal_flash_ex.c ****                    ##### Flash Extended features #####
  13:Drivers/STM32G0xx_HAL_Driver/Src/stm32g0xx_hal_flash_ex.c ****   ==============================================================================
  14:Drivers/STM32G0xx_HAL_Driver/Src/stm32g0xx_hal_flash_ex.c **** 
  15:Drivers/STM32G0xx_HAL_Driver/Src/stm32g0xx_hal_flash_ex.c ****   [..] Comparing to other previous devices, the FLASH interface for STM32G0xx
  16:Drivers/STM32G0xx_HAL_Driver/Src/stm32g0xx_hal_flash_ex.c ****        devices contains the following additional features
  17:Drivers/STM32G0xx_HAL_Driver/Src/stm32g0xx_hal_flash_ex.c **** 
  18:Drivers/STM32G0xx_HAL_Driver/Src/stm32g0xx_hal_flash_ex.c ****        (+) Capacity up to 128 Kbytes with single bank architecture supporting read-while-write
  19:Drivers/STM32G0xx_HAL_Driver/Src/stm32g0xx_hal_flash_ex.c ****            capability (RWW)
  20:Drivers/STM32G0xx_HAL_Driver/Src/stm32g0xx_hal_flash_ex.c ****        (+) Single bank memory organization
  21:Drivers/STM32G0xx_HAL_Driver/Src/stm32g0xx_hal_flash_ex.c ****        (+) PCROP protection
  22:Drivers/STM32G0xx_HAL_Driver/Src/stm32g0xx_hal_flash_ex.c **** 
  23:Drivers/STM32G0xx_HAL_Driver/Src/stm32g0xx_hal_flash_ex.c ****                         ##### How to use this driver #####
  24:Drivers/STM32G0xx_HAL_Driver/Src/stm32g0xx_hal_flash_ex.c ****  ==============================================================================
  25:Drivers/STM32G0xx_HAL_Driver/Src/stm32g0xx_hal_flash_ex.c ****   [..] This driver provides functions to configure and program the FLASH memory
  26:Drivers/STM32G0xx_HAL_Driver/Src/stm32g0xx_hal_flash_ex.c ****        of all STM32G0xx devices. It includes
  27:Drivers/STM32G0xx_HAL_Driver/Src/stm32g0xx_hal_flash_ex.c ****       (#) Flash Memory Erase functions:
  28:Drivers/STM32G0xx_HAL_Driver/Src/stm32g0xx_hal_flash_ex.c ****            (++) Lock and Unlock the FLASH interface using HAL_FLASH_Unlock() and
  29:Drivers/STM32G0xx_HAL_Driver/Src/stm32g0xx_hal_flash_ex.c ****                 HAL_FLASH_Lock() functions
  30:Drivers/STM32G0xx_HAL_Driver/Src/stm32g0xx_hal_flash_ex.c ****            (++) Erase function: Erase page, erase all sectors
  31:Drivers/STM32G0xx_HAL_Driver/Src/stm32g0xx_hal_flash_ex.c ****            (++) There are two modes of erase :
  32:Drivers/STM32G0xx_HAL_Driver/Src/stm32g0xx_hal_flash_ex.c ****              (+++) Polling Mode using HAL_FLASHEx_Erase()
  33:Drivers/STM32G0xx_HAL_Driver/Src/stm32g0xx_hal_flash_ex.c ****              (+++) Interrupt Mode using HAL_FLASHEx_Erase_IT()
ARM GAS  /tmp/ccXI1us5.s 			page 2


  34:Drivers/STM32G0xx_HAL_Driver/Src/stm32g0xx_hal_flash_ex.c **** 
  35:Drivers/STM32G0xx_HAL_Driver/Src/stm32g0xx_hal_flash_ex.c ****       (#) Option Bytes Programming function: Use HAL_FLASHEx_OBProgram() to :
  36:Drivers/STM32G0xx_HAL_Driver/Src/stm32g0xx_hal_flash_ex.c ****         (++) Set/Reset the write protection
  37:Drivers/STM32G0xx_HAL_Driver/Src/stm32g0xx_hal_flash_ex.c ****         (++) Set the Read protection Level
  38:Drivers/STM32G0xx_HAL_Driver/Src/stm32g0xx_hal_flash_ex.c ****         (++) Program the user Option Bytes
  39:Drivers/STM32G0xx_HAL_Driver/Src/stm32g0xx_hal_flash_ex.c ****         (++) Configure the PCROP protection
  40:Drivers/STM32G0xx_HAL_Driver/Src/stm32g0xx_hal_flash_ex.c ****         (++) Set Securable memory area and boot entry point
  41:Drivers/STM32G0xx_HAL_Driver/Src/stm32g0xx_hal_flash_ex.c **** 
  42:Drivers/STM32G0xx_HAL_Driver/Src/stm32g0xx_hal_flash_ex.c ****       (#) Get Option Bytes Configuration function: Use HAL_FLASHEx_OBGetConfig() to :
  43:Drivers/STM32G0xx_HAL_Driver/Src/stm32g0xx_hal_flash_ex.c ****         (++) Get the value of a write protection area
  44:Drivers/STM32G0xx_HAL_Driver/Src/stm32g0xx_hal_flash_ex.c ****         (++) Know if the read protection is activated
  45:Drivers/STM32G0xx_HAL_Driver/Src/stm32g0xx_hal_flash_ex.c ****         (++) Get the value of the user Option Bytes
  46:Drivers/STM32G0xx_HAL_Driver/Src/stm32g0xx_hal_flash_ex.c ****         (++) Get Securable memory area and boot entry point information
  47:Drivers/STM32G0xx_HAL_Driver/Src/stm32g0xx_hal_flash_ex.c **** 
  48:Drivers/STM32G0xx_HAL_Driver/Src/stm32g0xx_hal_flash_ex.c ****       (#) Enable or disable debugger usage using HAL_FLASHEx_EnableDebugger and
  49:Drivers/STM32G0xx_HAL_Driver/Src/stm32g0xx_hal_flash_ex.c ****           HAL_FLASHEx_DisableDebugger.
  50:Drivers/STM32G0xx_HAL_Driver/Src/stm32g0xx_hal_flash_ex.c **** 
  51:Drivers/STM32G0xx_HAL_Driver/Src/stm32g0xx_hal_flash_ex.c ****       (#) Check is flash content is empty or not using HAL_FLASHEx_FlashEmptyCheck.
  52:Drivers/STM32G0xx_HAL_Driver/Src/stm32g0xx_hal_flash_ex.c ****           and modify this setting (for flash loader purpose e.g.) using
  53:Drivers/STM32G0xx_HAL_Driver/Src/stm32g0xx_hal_flash_ex.c ****           HAL_FLASHEx_ForceFlashEmpty.
  54:Drivers/STM32G0xx_HAL_Driver/Src/stm32g0xx_hal_flash_ex.c **** 
  55:Drivers/STM32G0xx_HAL_Driver/Src/stm32g0xx_hal_flash_ex.c ****       (#) Enable securable memory area protectionusing HAL_FLASHEx_EnableSecMemProtection
  56:Drivers/STM32G0xx_HAL_Driver/Src/stm32g0xx_hal_flash_ex.c **** 
  57:Drivers/STM32G0xx_HAL_Driver/Src/stm32g0xx_hal_flash_ex.c ****  @endverbatim
  58:Drivers/STM32G0xx_HAL_Driver/Src/stm32g0xx_hal_flash_ex.c ****   ******************************************************************************
  59:Drivers/STM32G0xx_HAL_Driver/Src/stm32g0xx_hal_flash_ex.c ****   * @attention
  60:Drivers/STM32G0xx_HAL_Driver/Src/stm32g0xx_hal_flash_ex.c ****   *
  61:Drivers/STM32G0xx_HAL_Driver/Src/stm32g0xx_hal_flash_ex.c ****   * Copyright (c) 2018 STMicroelectronics.
  62:Drivers/STM32G0xx_HAL_Driver/Src/stm32g0xx_hal_flash_ex.c ****   * All rights reserved.
  63:Drivers/STM32G0xx_HAL_Driver/Src/stm32g0xx_hal_flash_ex.c ****   *
  64:Drivers/STM32G0xx_HAL_Driver/Src/stm32g0xx_hal_flash_ex.c ****   * This software is licensed under terms that can be found in the LICENSE file in
  65:Drivers/STM32G0xx_HAL_Driver/Src/stm32g0xx_hal_flash_ex.c ****   * the root directory of this software component.
  66:Drivers/STM32G0xx_HAL_Driver/Src/stm32g0xx_hal_flash_ex.c ****   * If no LICENSE file comes with this software, it is provided AS-IS.
  67:Drivers/STM32G0xx_HAL_Driver/Src/stm32g0xx_hal_flash_ex.c ****   ******************************************************************************
  68:Drivers/STM32G0xx_HAL_Driver/Src/stm32g0xx_hal_flash_ex.c ****   */
  69:Drivers/STM32G0xx_HAL_Driver/Src/stm32g0xx_hal_flash_ex.c **** 
  70:Drivers/STM32G0xx_HAL_Driver/Src/stm32g0xx_hal_flash_ex.c **** /* Includes ------------------------------------------------------------------*/
  71:Drivers/STM32G0xx_HAL_Driver/Src/stm32g0xx_hal_flash_ex.c **** #include "stm32g0xx_hal.h"
  72:Drivers/STM32G0xx_HAL_Driver/Src/stm32g0xx_hal_flash_ex.c **** 
  73:Drivers/STM32G0xx_HAL_Driver/Src/stm32g0xx_hal_flash_ex.c **** /** @addtogroup STM32G0xx_HAL_Driver
  74:Drivers/STM32G0xx_HAL_Driver/Src/stm32g0xx_hal_flash_ex.c ****   * @{
  75:Drivers/STM32G0xx_HAL_Driver/Src/stm32g0xx_hal_flash_ex.c ****   */
  76:Drivers/STM32G0xx_HAL_Driver/Src/stm32g0xx_hal_flash_ex.c **** 
  77:Drivers/STM32G0xx_HAL_Driver/Src/stm32g0xx_hal_flash_ex.c **** /** @defgroup FLASHEx FLASHEx
  78:Drivers/STM32G0xx_HAL_Driver/Src/stm32g0xx_hal_flash_ex.c ****   * @brief FLASH Extended HAL module driver
  79:Drivers/STM32G0xx_HAL_Driver/Src/stm32g0xx_hal_flash_ex.c ****   * @{
  80:Drivers/STM32G0xx_HAL_Driver/Src/stm32g0xx_hal_flash_ex.c ****   */
  81:Drivers/STM32G0xx_HAL_Driver/Src/stm32g0xx_hal_flash_ex.c **** 
  82:Drivers/STM32G0xx_HAL_Driver/Src/stm32g0xx_hal_flash_ex.c **** #ifdef HAL_FLASH_MODULE_ENABLED
  83:Drivers/STM32G0xx_HAL_Driver/Src/stm32g0xx_hal_flash_ex.c **** 
  84:Drivers/STM32G0xx_HAL_Driver/Src/stm32g0xx_hal_flash_ex.c **** /* Private typedef -----------------------------------------------------------*/
  85:Drivers/STM32G0xx_HAL_Driver/Src/stm32g0xx_hal_flash_ex.c **** /* Private define ------------------------------------------------------------*/
  86:Drivers/STM32G0xx_HAL_Driver/Src/stm32g0xx_hal_flash_ex.c **** /* Private macro -------------------------------------------------------------*/
  87:Drivers/STM32G0xx_HAL_Driver/Src/stm32g0xx_hal_flash_ex.c **** /* Private variables ---------------------------------------------------------*/
  88:Drivers/STM32G0xx_HAL_Driver/Src/stm32g0xx_hal_flash_ex.c **** /* Private function prototypes -----------------------------------------------*/
  89:Drivers/STM32G0xx_HAL_Driver/Src/stm32g0xx_hal_flash_ex.c **** /** @defgroup FLASHEx_Private_Functions FLASHEx Private Functions
  90:Drivers/STM32G0xx_HAL_Driver/Src/stm32g0xx_hal_flash_ex.c ****   * @{
ARM GAS  /tmp/ccXI1us5.s 			page 3


  91:Drivers/STM32G0xx_HAL_Driver/Src/stm32g0xx_hal_flash_ex.c ****   */
  92:Drivers/STM32G0xx_HAL_Driver/Src/stm32g0xx_hal_flash_ex.c **** static void               FLASH_MassErase(uint32_t Banks);
  93:Drivers/STM32G0xx_HAL_Driver/Src/stm32g0xx_hal_flash_ex.c **** void                      FLASH_FlushCaches(void);
  94:Drivers/STM32G0xx_HAL_Driver/Src/stm32g0xx_hal_flash_ex.c **** static void               FLASH_OB_WRPConfig(uint32_t WRPArea, uint32_t WRPStartOffset, uint32_t WR
  95:Drivers/STM32G0xx_HAL_Driver/Src/stm32g0xx_hal_flash_ex.c **** static void               FLASH_OB_GetWRP(uint32_t WRPArea, uint32_t *WRPStartOffset, uint32_t *WRD
  96:Drivers/STM32G0xx_HAL_Driver/Src/stm32g0xx_hal_flash_ex.c **** static void               FLASH_OB_OptrConfig(uint32_t UserType, uint32_t UserConfig, uint32_t RDPL
  97:Drivers/STM32G0xx_HAL_Driver/Src/stm32g0xx_hal_flash_ex.c **** static uint32_t           FLASH_OB_GetRDP(void);
  98:Drivers/STM32G0xx_HAL_Driver/Src/stm32g0xx_hal_flash_ex.c **** static uint32_t           FLASH_OB_GetUser(void);
  99:Drivers/STM32G0xx_HAL_Driver/Src/stm32g0xx_hal_flash_ex.c **** #if defined(FLASH_PCROP_SUPPORT)
 100:Drivers/STM32G0xx_HAL_Driver/Src/stm32g0xx_hal_flash_ex.c **** static void               FLASH_OB_PCROP1AConfig(uint32_t PCROPConfig, uint32_t PCROP1AStartAddr,
 101:Drivers/STM32G0xx_HAL_Driver/Src/stm32g0xx_hal_flash_ex.c ****                                                  uint32_t PCROP1AEndAddr);
 102:Drivers/STM32G0xx_HAL_Driver/Src/stm32g0xx_hal_flash_ex.c **** static void               FLASH_OB_PCROP1BConfig(uint32_t PCROP1BStartAddr, uint32_t PCROP1BEndAddr
 103:Drivers/STM32G0xx_HAL_Driver/Src/stm32g0xx_hal_flash_ex.c **** static void               FLASH_OB_GetPCROP1A(uint32_t *PCROPConfig, uint32_t *PCROP1AStartAddr,
 104:Drivers/STM32G0xx_HAL_Driver/Src/stm32g0xx_hal_flash_ex.c ****                                               uint32_t *PCROP1AEndAddr);
 105:Drivers/STM32G0xx_HAL_Driver/Src/stm32g0xx_hal_flash_ex.c **** static void               FLASH_OB_GetPCROP1B(uint32_t *PCROP1BStartAddr, uint32_t *PCROP1BEndAddr)
 106:Drivers/STM32G0xx_HAL_Driver/Src/stm32g0xx_hal_flash_ex.c **** #if defined(FLASH_DBANK_SUPPORT)
 107:Drivers/STM32G0xx_HAL_Driver/Src/stm32g0xx_hal_flash_ex.c **** static void               FLASH_OB_PCROP2AConfig(uint32_t PCROP2AStartAddr, uint32_t PCROP2AEndAddr
 108:Drivers/STM32G0xx_HAL_Driver/Src/stm32g0xx_hal_flash_ex.c **** static void               FLASH_OB_PCROP2BConfig(uint32_t PCROP2BStartAddr, uint32_t PCROP2BEndAddr
 109:Drivers/STM32G0xx_HAL_Driver/Src/stm32g0xx_hal_flash_ex.c **** static void               FLASH_OB_GetPCROP2A(uint32_t *PCROP2AStartAddr, uint32_t *PCROP2AEndAddr)
 110:Drivers/STM32G0xx_HAL_Driver/Src/stm32g0xx_hal_flash_ex.c **** static void               FLASH_OB_GetPCROP2B(uint32_t *PCROP2BStartAddr, uint32_t *PCROP2BEndAddr)
 111:Drivers/STM32G0xx_HAL_Driver/Src/stm32g0xx_hal_flash_ex.c **** #endif /* FLASH_DBANK_SUPPORT */
 112:Drivers/STM32G0xx_HAL_Driver/Src/stm32g0xx_hal_flash_ex.c **** #endif /* FLASH_PCROP_SUPPORT */
 113:Drivers/STM32G0xx_HAL_Driver/Src/stm32g0xx_hal_flash_ex.c **** #if defined(FLASH_SECURABLE_MEMORY_SUPPORT)
 114:Drivers/STM32G0xx_HAL_Driver/Src/stm32g0xx_hal_flash_ex.c **** #if defined(FLASH_DBANK_SUPPORT)
 115:Drivers/STM32G0xx_HAL_Driver/Src/stm32g0xx_hal_flash_ex.c **** static void               FLASH_OB_SecMemConfig(uint32_t BootEntry, uint32_t SecSize, uint32_t SecS
 116:Drivers/STM32G0xx_HAL_Driver/Src/stm32g0xx_hal_flash_ex.c **** static void               FLASH_OB_GetSecMem(uint32_t *BootEntry, uint32_t *SecSize, uint32_t *SecS
 117:Drivers/STM32G0xx_HAL_Driver/Src/stm32g0xx_hal_flash_ex.c **** #else
 118:Drivers/STM32G0xx_HAL_Driver/Src/stm32g0xx_hal_flash_ex.c **** static void               FLASH_OB_SecMemConfig(uint32_t BootEntry, uint32_t SecSize);
 119:Drivers/STM32G0xx_HAL_Driver/Src/stm32g0xx_hal_flash_ex.c **** static void               FLASH_OB_GetSecMem(uint32_t *BootEntry, uint32_t *SecSize);
 120:Drivers/STM32G0xx_HAL_Driver/Src/stm32g0xx_hal_flash_ex.c **** #endif /* FLASH_DBANK_SUPPORT */
 121:Drivers/STM32G0xx_HAL_Driver/Src/stm32g0xx_hal_flash_ex.c **** #endif /* FLASH_SECURABLE_MEMORY_SUPPORT */
 122:Drivers/STM32G0xx_HAL_Driver/Src/stm32g0xx_hal_flash_ex.c **** /**
 123:Drivers/STM32G0xx_HAL_Driver/Src/stm32g0xx_hal_flash_ex.c ****   * @}
 124:Drivers/STM32G0xx_HAL_Driver/Src/stm32g0xx_hal_flash_ex.c ****   */
 125:Drivers/STM32G0xx_HAL_Driver/Src/stm32g0xx_hal_flash_ex.c **** 
 126:Drivers/STM32G0xx_HAL_Driver/Src/stm32g0xx_hal_flash_ex.c **** /* Exported functions -------------------------------------------------------*/
 127:Drivers/STM32G0xx_HAL_Driver/Src/stm32g0xx_hal_flash_ex.c **** /** @defgroup FLASHEx_Exported_Functions FLASH Extended Exported Functions
 128:Drivers/STM32G0xx_HAL_Driver/Src/stm32g0xx_hal_flash_ex.c ****   * @{
 129:Drivers/STM32G0xx_HAL_Driver/Src/stm32g0xx_hal_flash_ex.c ****   */
 130:Drivers/STM32G0xx_HAL_Driver/Src/stm32g0xx_hal_flash_ex.c **** 
 131:Drivers/STM32G0xx_HAL_Driver/Src/stm32g0xx_hal_flash_ex.c **** /** @defgroup FLASHEx_Exported_Functions_Group1 Extended IO operation functions
 132:Drivers/STM32G0xx_HAL_Driver/Src/stm32g0xx_hal_flash_ex.c ****   *  @brief   Extended IO operation functions
 133:Drivers/STM32G0xx_HAL_Driver/Src/stm32g0xx_hal_flash_ex.c ****   *
 134:Drivers/STM32G0xx_HAL_Driver/Src/stm32g0xx_hal_flash_ex.c **** @verbatim
 135:Drivers/STM32G0xx_HAL_Driver/Src/stm32g0xx_hal_flash_ex.c ****  ===============================================================================
 136:Drivers/STM32G0xx_HAL_Driver/Src/stm32g0xx_hal_flash_ex.c ****                 ##### Extended programming operation functions #####
 137:Drivers/STM32G0xx_HAL_Driver/Src/stm32g0xx_hal_flash_ex.c ****  ===============================================================================
 138:Drivers/STM32G0xx_HAL_Driver/Src/stm32g0xx_hal_flash_ex.c ****     [..]
 139:Drivers/STM32G0xx_HAL_Driver/Src/stm32g0xx_hal_flash_ex.c ****     This subsection provides a set of functions allowing to manage the Extended FLASH
 140:Drivers/STM32G0xx_HAL_Driver/Src/stm32g0xx_hal_flash_ex.c ****     programming operations Operations.
 141:Drivers/STM32G0xx_HAL_Driver/Src/stm32g0xx_hal_flash_ex.c **** 
 142:Drivers/STM32G0xx_HAL_Driver/Src/stm32g0xx_hal_flash_ex.c **** @endverbatim
 143:Drivers/STM32G0xx_HAL_Driver/Src/stm32g0xx_hal_flash_ex.c ****   * @{
 144:Drivers/STM32G0xx_HAL_Driver/Src/stm32g0xx_hal_flash_ex.c ****   */
 145:Drivers/STM32G0xx_HAL_Driver/Src/stm32g0xx_hal_flash_ex.c **** /**
 146:Drivers/STM32G0xx_HAL_Driver/Src/stm32g0xx_hal_flash_ex.c ****   * @brief  Perform a mass erase or erase the specified FLASH memory pages.
 147:Drivers/STM32G0xx_HAL_Driver/Src/stm32g0xx_hal_flash_ex.c ****   * @param[in]  pEraseInit Pointer to an @ref FLASH_EraseInitTypeDef structure that
ARM GAS  /tmp/ccXI1us5.s 			page 4


 148:Drivers/STM32G0xx_HAL_Driver/Src/stm32g0xx_hal_flash_ex.c ****   *         contains the configuration information for the erasing.
 149:Drivers/STM32G0xx_HAL_Driver/Src/stm32g0xx_hal_flash_ex.c ****   * @param[out]  PageError Pointer to variable that contains the configuration
 150:Drivers/STM32G0xx_HAL_Driver/Src/stm32g0xx_hal_flash_ex.c ****   *         information on faulty page in case of error (0xFFFFFFFF means that all
 151:Drivers/STM32G0xx_HAL_Driver/Src/stm32g0xx_hal_flash_ex.c ****   *         the pages have been correctly erased)
 152:Drivers/STM32G0xx_HAL_Driver/Src/stm32g0xx_hal_flash_ex.c ****   * @retval HAL Status
 153:Drivers/STM32G0xx_HAL_Driver/Src/stm32g0xx_hal_flash_ex.c ****   */
 154:Drivers/STM32G0xx_HAL_Driver/Src/stm32g0xx_hal_flash_ex.c **** HAL_StatusTypeDef HAL_FLASHEx_Erase(FLASH_EraseInitTypeDef *pEraseInit, uint32_t *PageError)
 155:Drivers/STM32G0xx_HAL_Driver/Src/stm32g0xx_hal_flash_ex.c **** {
 156:Drivers/STM32G0xx_HAL_Driver/Src/stm32g0xx_hal_flash_ex.c ****   HAL_StatusTypeDef status;
 157:Drivers/STM32G0xx_HAL_Driver/Src/stm32g0xx_hal_flash_ex.c ****   uint32_t index;
 158:Drivers/STM32G0xx_HAL_Driver/Src/stm32g0xx_hal_flash_ex.c **** 
 159:Drivers/STM32G0xx_HAL_Driver/Src/stm32g0xx_hal_flash_ex.c ****   /* Check the parameters */
 160:Drivers/STM32G0xx_HAL_Driver/Src/stm32g0xx_hal_flash_ex.c ****   assert_param(IS_FLASH_TYPEERASE(pEraseInit->TypeErase));
 161:Drivers/STM32G0xx_HAL_Driver/Src/stm32g0xx_hal_flash_ex.c **** 
 162:Drivers/STM32G0xx_HAL_Driver/Src/stm32g0xx_hal_flash_ex.c ****   /* Process Locked */
 163:Drivers/STM32G0xx_HAL_Driver/Src/stm32g0xx_hal_flash_ex.c ****   __HAL_LOCK(&pFlash);
 164:Drivers/STM32G0xx_HAL_Driver/Src/stm32g0xx_hal_flash_ex.c **** 
 165:Drivers/STM32G0xx_HAL_Driver/Src/stm32g0xx_hal_flash_ex.c ****   /* Reset error code */
 166:Drivers/STM32G0xx_HAL_Driver/Src/stm32g0xx_hal_flash_ex.c ****   pFlash.ErrorCode = HAL_FLASH_ERROR_NONE;
 167:Drivers/STM32G0xx_HAL_Driver/Src/stm32g0xx_hal_flash_ex.c **** 
 168:Drivers/STM32G0xx_HAL_Driver/Src/stm32g0xx_hal_flash_ex.c ****   /* Wait for last operation to be completed */
 169:Drivers/STM32G0xx_HAL_Driver/Src/stm32g0xx_hal_flash_ex.c ****   status = FLASH_WaitForLastOperation(FLASH_TIMEOUT_VALUE);
 170:Drivers/STM32G0xx_HAL_Driver/Src/stm32g0xx_hal_flash_ex.c **** 
 171:Drivers/STM32G0xx_HAL_Driver/Src/stm32g0xx_hal_flash_ex.c ****   if (status == HAL_OK)
 172:Drivers/STM32G0xx_HAL_Driver/Src/stm32g0xx_hal_flash_ex.c ****   {
 173:Drivers/STM32G0xx_HAL_Driver/Src/stm32g0xx_hal_flash_ex.c **** #if !defined(FLASH_DBANK_SUPPORT)
 174:Drivers/STM32G0xx_HAL_Driver/Src/stm32g0xx_hal_flash_ex.c ****     /* For single bank product force Banks to Bank 1 */
 175:Drivers/STM32G0xx_HAL_Driver/Src/stm32g0xx_hal_flash_ex.c ****     pEraseInit->Banks = FLASH_BANK_1;
 176:Drivers/STM32G0xx_HAL_Driver/Src/stm32g0xx_hal_flash_ex.c **** #endif /* FLASH_DBANK_SUPPORT */
 177:Drivers/STM32G0xx_HAL_Driver/Src/stm32g0xx_hal_flash_ex.c **** 
 178:Drivers/STM32G0xx_HAL_Driver/Src/stm32g0xx_hal_flash_ex.c ****     if (pEraseInit->TypeErase == FLASH_TYPEERASE_MASS)
 179:Drivers/STM32G0xx_HAL_Driver/Src/stm32g0xx_hal_flash_ex.c ****     {
 180:Drivers/STM32G0xx_HAL_Driver/Src/stm32g0xx_hal_flash_ex.c ****       /* Proceed to Mass Erase */
 181:Drivers/STM32G0xx_HAL_Driver/Src/stm32g0xx_hal_flash_ex.c ****       FLASH_MassErase(pEraseInit->Banks);
 182:Drivers/STM32G0xx_HAL_Driver/Src/stm32g0xx_hal_flash_ex.c **** 
 183:Drivers/STM32G0xx_HAL_Driver/Src/stm32g0xx_hal_flash_ex.c ****       /* Wait for last operation to be completed */
 184:Drivers/STM32G0xx_HAL_Driver/Src/stm32g0xx_hal_flash_ex.c ****       status = FLASH_WaitForLastOperation(FLASH_TIMEOUT_VALUE);
 185:Drivers/STM32G0xx_HAL_Driver/Src/stm32g0xx_hal_flash_ex.c ****     }
 186:Drivers/STM32G0xx_HAL_Driver/Src/stm32g0xx_hal_flash_ex.c ****     else
 187:Drivers/STM32G0xx_HAL_Driver/Src/stm32g0xx_hal_flash_ex.c ****     {
 188:Drivers/STM32G0xx_HAL_Driver/Src/stm32g0xx_hal_flash_ex.c ****       /*Initialization of PageError variable*/
 189:Drivers/STM32G0xx_HAL_Driver/Src/stm32g0xx_hal_flash_ex.c ****       *PageError = 0xFFFFFFFFU;
 190:Drivers/STM32G0xx_HAL_Driver/Src/stm32g0xx_hal_flash_ex.c **** 
 191:Drivers/STM32G0xx_HAL_Driver/Src/stm32g0xx_hal_flash_ex.c ****       for (index = pEraseInit->Page; index < (pEraseInit->Page + pEraseInit->NbPages); index++)
 192:Drivers/STM32G0xx_HAL_Driver/Src/stm32g0xx_hal_flash_ex.c ****       {
 193:Drivers/STM32G0xx_HAL_Driver/Src/stm32g0xx_hal_flash_ex.c ****         /* Start erase page */
 194:Drivers/STM32G0xx_HAL_Driver/Src/stm32g0xx_hal_flash_ex.c ****         FLASH_PageErase(pEraseInit->Banks, index);
 195:Drivers/STM32G0xx_HAL_Driver/Src/stm32g0xx_hal_flash_ex.c **** 
 196:Drivers/STM32G0xx_HAL_Driver/Src/stm32g0xx_hal_flash_ex.c ****         /* Wait for last operation to be completed */
 197:Drivers/STM32G0xx_HAL_Driver/Src/stm32g0xx_hal_flash_ex.c ****         status = FLASH_WaitForLastOperation(FLASH_TIMEOUT_VALUE);
 198:Drivers/STM32G0xx_HAL_Driver/Src/stm32g0xx_hal_flash_ex.c **** 
 199:Drivers/STM32G0xx_HAL_Driver/Src/stm32g0xx_hal_flash_ex.c ****         if (status != HAL_OK)
 200:Drivers/STM32G0xx_HAL_Driver/Src/stm32g0xx_hal_flash_ex.c ****         {
 201:Drivers/STM32G0xx_HAL_Driver/Src/stm32g0xx_hal_flash_ex.c ****           /* In case of error, stop erase procedure and return the faulty address */
 202:Drivers/STM32G0xx_HAL_Driver/Src/stm32g0xx_hal_flash_ex.c ****           *PageError = index;
 203:Drivers/STM32G0xx_HAL_Driver/Src/stm32g0xx_hal_flash_ex.c ****           break;
 204:Drivers/STM32G0xx_HAL_Driver/Src/stm32g0xx_hal_flash_ex.c ****         }
ARM GAS  /tmp/ccXI1us5.s 			page 5


 205:Drivers/STM32G0xx_HAL_Driver/Src/stm32g0xx_hal_flash_ex.c ****       }
 206:Drivers/STM32G0xx_HAL_Driver/Src/stm32g0xx_hal_flash_ex.c **** 
 207:Drivers/STM32G0xx_HAL_Driver/Src/stm32g0xx_hal_flash_ex.c ****       /* If operation is completed or interrupted, disable the Page Erase Bit */
 208:Drivers/STM32G0xx_HAL_Driver/Src/stm32g0xx_hal_flash_ex.c ****       CLEAR_BIT(FLASH->CR, FLASH_CR_PER);
 209:Drivers/STM32G0xx_HAL_Driver/Src/stm32g0xx_hal_flash_ex.c ****     }
 210:Drivers/STM32G0xx_HAL_Driver/Src/stm32g0xx_hal_flash_ex.c ****   }
 211:Drivers/STM32G0xx_HAL_Driver/Src/stm32g0xx_hal_flash_ex.c **** 
 212:Drivers/STM32G0xx_HAL_Driver/Src/stm32g0xx_hal_flash_ex.c ****   /* Process Unlocked */
 213:Drivers/STM32G0xx_HAL_Driver/Src/stm32g0xx_hal_flash_ex.c ****   __HAL_UNLOCK(&pFlash);
 214:Drivers/STM32G0xx_HAL_Driver/Src/stm32g0xx_hal_flash_ex.c **** 
 215:Drivers/STM32G0xx_HAL_Driver/Src/stm32g0xx_hal_flash_ex.c ****   /* return status */
 216:Drivers/STM32G0xx_HAL_Driver/Src/stm32g0xx_hal_flash_ex.c ****   return status;
 217:Drivers/STM32G0xx_HAL_Driver/Src/stm32g0xx_hal_flash_ex.c **** }
 218:Drivers/STM32G0xx_HAL_Driver/Src/stm32g0xx_hal_flash_ex.c **** 
 219:Drivers/STM32G0xx_HAL_Driver/Src/stm32g0xx_hal_flash_ex.c **** 
 220:Drivers/STM32G0xx_HAL_Driver/Src/stm32g0xx_hal_flash_ex.c **** /**
 221:Drivers/STM32G0xx_HAL_Driver/Src/stm32g0xx_hal_flash_ex.c ****   * @brief  Perform a mass erase or erase the specified FLASH memory pages with interrupt enabled.
 222:Drivers/STM32G0xx_HAL_Driver/Src/stm32g0xx_hal_flash_ex.c ****   * @param  pEraseInit Pointer to an @ref FLASH_EraseInitTypeDef structure that
 223:Drivers/STM32G0xx_HAL_Driver/Src/stm32g0xx_hal_flash_ex.c ****   *         contains the configuration information for the erasing.
 224:Drivers/STM32G0xx_HAL_Driver/Src/stm32g0xx_hal_flash_ex.c ****   * @retval HAL Status
 225:Drivers/STM32G0xx_HAL_Driver/Src/stm32g0xx_hal_flash_ex.c ****   */
 226:Drivers/STM32G0xx_HAL_Driver/Src/stm32g0xx_hal_flash_ex.c **** HAL_StatusTypeDef HAL_FLASHEx_Erase_IT(FLASH_EraseInitTypeDef *pEraseInit)
 227:Drivers/STM32G0xx_HAL_Driver/Src/stm32g0xx_hal_flash_ex.c **** {
 228:Drivers/STM32G0xx_HAL_Driver/Src/stm32g0xx_hal_flash_ex.c ****   HAL_StatusTypeDef status;
 229:Drivers/STM32G0xx_HAL_Driver/Src/stm32g0xx_hal_flash_ex.c **** 
 230:Drivers/STM32G0xx_HAL_Driver/Src/stm32g0xx_hal_flash_ex.c ****   /* Check the parameters */
 231:Drivers/STM32G0xx_HAL_Driver/Src/stm32g0xx_hal_flash_ex.c ****   assert_param(IS_FLASH_TYPEERASE(pEraseInit->TypeErase));
 232:Drivers/STM32G0xx_HAL_Driver/Src/stm32g0xx_hal_flash_ex.c **** 
 233:Drivers/STM32G0xx_HAL_Driver/Src/stm32g0xx_hal_flash_ex.c ****   /* Process Locked */
 234:Drivers/STM32G0xx_HAL_Driver/Src/stm32g0xx_hal_flash_ex.c ****   __HAL_LOCK(&pFlash);
 235:Drivers/STM32G0xx_HAL_Driver/Src/stm32g0xx_hal_flash_ex.c **** 
 236:Drivers/STM32G0xx_HAL_Driver/Src/stm32g0xx_hal_flash_ex.c ****   /* Reset error code */
 237:Drivers/STM32G0xx_HAL_Driver/Src/stm32g0xx_hal_flash_ex.c ****   pFlash.ErrorCode = HAL_FLASH_ERROR_NONE;
 238:Drivers/STM32G0xx_HAL_Driver/Src/stm32g0xx_hal_flash_ex.c **** 
 239:Drivers/STM32G0xx_HAL_Driver/Src/stm32g0xx_hal_flash_ex.c ****   /* save procedure for interrupt treatment */
 240:Drivers/STM32G0xx_HAL_Driver/Src/stm32g0xx_hal_flash_ex.c ****   pFlash.ProcedureOnGoing = pEraseInit->TypeErase;
 241:Drivers/STM32G0xx_HAL_Driver/Src/stm32g0xx_hal_flash_ex.c **** 
 242:Drivers/STM32G0xx_HAL_Driver/Src/stm32g0xx_hal_flash_ex.c ****   /* Wait for last operation to be completed */
 243:Drivers/STM32G0xx_HAL_Driver/Src/stm32g0xx_hal_flash_ex.c ****   status = FLASH_WaitForLastOperation(FLASH_TIMEOUT_VALUE);
 244:Drivers/STM32G0xx_HAL_Driver/Src/stm32g0xx_hal_flash_ex.c **** 
 245:Drivers/STM32G0xx_HAL_Driver/Src/stm32g0xx_hal_flash_ex.c ****   if (status != HAL_OK)
 246:Drivers/STM32G0xx_HAL_Driver/Src/stm32g0xx_hal_flash_ex.c ****   {
 247:Drivers/STM32G0xx_HAL_Driver/Src/stm32g0xx_hal_flash_ex.c ****     /* Process Unlocked */
 248:Drivers/STM32G0xx_HAL_Driver/Src/stm32g0xx_hal_flash_ex.c ****     __HAL_UNLOCK(&pFlash);
 249:Drivers/STM32G0xx_HAL_Driver/Src/stm32g0xx_hal_flash_ex.c ****   }
 250:Drivers/STM32G0xx_HAL_Driver/Src/stm32g0xx_hal_flash_ex.c ****   else
 251:Drivers/STM32G0xx_HAL_Driver/Src/stm32g0xx_hal_flash_ex.c ****   {
 252:Drivers/STM32G0xx_HAL_Driver/Src/stm32g0xx_hal_flash_ex.c **** #if !defined(FLASH_DBANK_SUPPORT)
 253:Drivers/STM32G0xx_HAL_Driver/Src/stm32g0xx_hal_flash_ex.c ****     /* For single bank product force Banks to Bank 1 */
 254:Drivers/STM32G0xx_HAL_Driver/Src/stm32g0xx_hal_flash_ex.c ****     pEraseInit->Banks = FLASH_BANK_1;
 255:Drivers/STM32G0xx_HAL_Driver/Src/stm32g0xx_hal_flash_ex.c **** #endif /* FLASH_DBANK_SUPPORT */
 256:Drivers/STM32G0xx_HAL_Driver/Src/stm32g0xx_hal_flash_ex.c ****     /* Store Bank number */
 257:Drivers/STM32G0xx_HAL_Driver/Src/stm32g0xx_hal_flash_ex.c ****     pFlash.Banks = pEraseInit->Banks;
 258:Drivers/STM32G0xx_HAL_Driver/Src/stm32g0xx_hal_flash_ex.c **** 
 259:Drivers/STM32G0xx_HAL_Driver/Src/stm32g0xx_hal_flash_ex.c ****     /* Enable End of Operation and Error interrupts */
 260:Drivers/STM32G0xx_HAL_Driver/Src/stm32g0xx_hal_flash_ex.c ****     FLASH->CR |= FLASH_CR_EOPIE | FLASH_CR_ERRIE;
 261:Drivers/STM32G0xx_HAL_Driver/Src/stm32g0xx_hal_flash_ex.c **** 
ARM GAS  /tmp/ccXI1us5.s 			page 6


 262:Drivers/STM32G0xx_HAL_Driver/Src/stm32g0xx_hal_flash_ex.c ****     if (pEraseInit->TypeErase == FLASH_TYPEERASE_MASS)
 263:Drivers/STM32G0xx_HAL_Driver/Src/stm32g0xx_hal_flash_ex.c ****     {
 264:Drivers/STM32G0xx_HAL_Driver/Src/stm32g0xx_hal_flash_ex.c ****       /* Set Page to 0 for Interrupt callback management */
 265:Drivers/STM32G0xx_HAL_Driver/Src/stm32g0xx_hal_flash_ex.c ****       pFlash.Page = 0;
 266:Drivers/STM32G0xx_HAL_Driver/Src/stm32g0xx_hal_flash_ex.c **** 
 267:Drivers/STM32G0xx_HAL_Driver/Src/stm32g0xx_hal_flash_ex.c ****       /* Proceed to Mass Erase */
 268:Drivers/STM32G0xx_HAL_Driver/Src/stm32g0xx_hal_flash_ex.c ****       FLASH_MassErase(pEraseInit->Banks);
 269:Drivers/STM32G0xx_HAL_Driver/Src/stm32g0xx_hal_flash_ex.c ****     }
 270:Drivers/STM32G0xx_HAL_Driver/Src/stm32g0xx_hal_flash_ex.c ****     else
 271:Drivers/STM32G0xx_HAL_Driver/Src/stm32g0xx_hal_flash_ex.c ****     {
 272:Drivers/STM32G0xx_HAL_Driver/Src/stm32g0xx_hal_flash_ex.c ****       /* Erase by page to be done */
 273:Drivers/STM32G0xx_HAL_Driver/Src/stm32g0xx_hal_flash_ex.c ****       pFlash.NbPagesToErase = pEraseInit->NbPages;
 274:Drivers/STM32G0xx_HAL_Driver/Src/stm32g0xx_hal_flash_ex.c ****       pFlash.Page = pEraseInit->Page;
 275:Drivers/STM32G0xx_HAL_Driver/Src/stm32g0xx_hal_flash_ex.c **** 
 276:Drivers/STM32G0xx_HAL_Driver/Src/stm32g0xx_hal_flash_ex.c ****       /*Erase 1st page and wait for IT */
 277:Drivers/STM32G0xx_HAL_Driver/Src/stm32g0xx_hal_flash_ex.c ****       FLASH_PageErase(pEraseInit->Banks, pEraseInit->Page);
 278:Drivers/STM32G0xx_HAL_Driver/Src/stm32g0xx_hal_flash_ex.c ****     }
 279:Drivers/STM32G0xx_HAL_Driver/Src/stm32g0xx_hal_flash_ex.c ****   }
 280:Drivers/STM32G0xx_HAL_Driver/Src/stm32g0xx_hal_flash_ex.c **** 
 281:Drivers/STM32G0xx_HAL_Driver/Src/stm32g0xx_hal_flash_ex.c ****   /* return status */
 282:Drivers/STM32G0xx_HAL_Driver/Src/stm32g0xx_hal_flash_ex.c ****   return status;
 283:Drivers/STM32G0xx_HAL_Driver/Src/stm32g0xx_hal_flash_ex.c **** }
 284:Drivers/STM32G0xx_HAL_Driver/Src/stm32g0xx_hal_flash_ex.c **** 
 285:Drivers/STM32G0xx_HAL_Driver/Src/stm32g0xx_hal_flash_ex.c **** /**
 286:Drivers/STM32G0xx_HAL_Driver/Src/stm32g0xx_hal_flash_ex.c ****   * @brief  Program Option bytes.
 287:Drivers/STM32G0xx_HAL_Driver/Src/stm32g0xx_hal_flash_ex.c ****   * @param  pOBInit Pointer to an @ref FLASH_OBProgramInitTypeDef structure that
 288:Drivers/STM32G0xx_HAL_Driver/Src/stm32g0xx_hal_flash_ex.c ****   *         contains the configuration information for the programming.
 289:Drivers/STM32G0xx_HAL_Driver/Src/stm32g0xx_hal_flash_ex.c ****   * @note   To configure any option bytes, the option lock bit OPTLOCK must be
 290:Drivers/STM32G0xx_HAL_Driver/Src/stm32g0xx_hal_flash_ex.c ****   *         cleared with the call of @ref HAL_FLASH_OB_Unlock() function.
 291:Drivers/STM32G0xx_HAL_Driver/Src/stm32g0xx_hal_flash_ex.c ****   * @note   New option bytes configuration will be taken into account only
 292:Drivers/STM32G0xx_HAL_Driver/Src/stm32g0xx_hal_flash_ex.c ****   *         - after an option bytes launch through the call of @ref HAL_FLASH_OB_Launch()
 293:Drivers/STM32G0xx_HAL_Driver/Src/stm32g0xx_hal_flash_ex.c ****   *         - a Power On Reset
 294:Drivers/STM32G0xx_HAL_Driver/Src/stm32g0xx_hal_flash_ex.c ****   *         - an exit from Standby or Shutdown mode.
 295:Drivers/STM32G0xx_HAL_Driver/Src/stm32g0xx_hal_flash_ex.c ****   * @retval HAL Status
 296:Drivers/STM32G0xx_HAL_Driver/Src/stm32g0xx_hal_flash_ex.c ****   */
 297:Drivers/STM32G0xx_HAL_Driver/Src/stm32g0xx_hal_flash_ex.c **** HAL_StatusTypeDef HAL_FLASHEx_OBProgram(FLASH_OBProgramInitTypeDef *pOBInit)
 298:Drivers/STM32G0xx_HAL_Driver/Src/stm32g0xx_hal_flash_ex.c **** {
 299:Drivers/STM32G0xx_HAL_Driver/Src/stm32g0xx_hal_flash_ex.c ****   uint32_t optr;
 300:Drivers/STM32G0xx_HAL_Driver/Src/stm32g0xx_hal_flash_ex.c ****   HAL_StatusTypeDef status;
 301:Drivers/STM32G0xx_HAL_Driver/Src/stm32g0xx_hal_flash_ex.c **** 
 302:Drivers/STM32G0xx_HAL_Driver/Src/stm32g0xx_hal_flash_ex.c ****   /* Check the parameters */
 303:Drivers/STM32G0xx_HAL_Driver/Src/stm32g0xx_hal_flash_ex.c ****   assert_param(IS_OPTIONBYTE(pOBInit->OptionType));
 304:Drivers/STM32G0xx_HAL_Driver/Src/stm32g0xx_hal_flash_ex.c **** 
 305:Drivers/STM32G0xx_HAL_Driver/Src/stm32g0xx_hal_flash_ex.c ****   /* Process Locked */
 306:Drivers/STM32G0xx_HAL_Driver/Src/stm32g0xx_hal_flash_ex.c ****   __HAL_LOCK(&pFlash);
 307:Drivers/STM32G0xx_HAL_Driver/Src/stm32g0xx_hal_flash_ex.c **** 
 308:Drivers/STM32G0xx_HAL_Driver/Src/stm32g0xx_hal_flash_ex.c ****   pFlash.ErrorCode = HAL_FLASH_ERROR_NONE;
 309:Drivers/STM32G0xx_HAL_Driver/Src/stm32g0xx_hal_flash_ex.c **** 
 310:Drivers/STM32G0xx_HAL_Driver/Src/stm32g0xx_hal_flash_ex.c ****   /* Write protection configuration */
 311:Drivers/STM32G0xx_HAL_Driver/Src/stm32g0xx_hal_flash_ex.c ****   if ((pOBInit->OptionType & OPTIONBYTE_WRP) != 0x00U)
 312:Drivers/STM32G0xx_HAL_Driver/Src/stm32g0xx_hal_flash_ex.c ****   {
 313:Drivers/STM32G0xx_HAL_Driver/Src/stm32g0xx_hal_flash_ex.c ****     /* Configure of Write protection on the selected area */
 314:Drivers/STM32G0xx_HAL_Driver/Src/stm32g0xx_hal_flash_ex.c ****     FLASH_OB_WRPConfig(pOBInit->WRPArea, pOBInit->WRPStartOffset, pOBInit->WRPEndOffset);
 315:Drivers/STM32G0xx_HAL_Driver/Src/stm32g0xx_hal_flash_ex.c ****   }
 316:Drivers/STM32G0xx_HAL_Driver/Src/stm32g0xx_hal_flash_ex.c **** 
 317:Drivers/STM32G0xx_HAL_Driver/Src/stm32g0xx_hal_flash_ex.c ****   /* Option register */
 318:Drivers/STM32G0xx_HAL_Driver/Src/stm32g0xx_hal_flash_ex.c ****   if ((pOBInit->OptionType & (OPTIONBYTE_RDP | OPTIONBYTE_USER)) == (OPTIONBYTE_RDP | OPTIONBYTE_US
ARM GAS  /tmp/ccXI1us5.s 			page 7


 319:Drivers/STM32G0xx_HAL_Driver/Src/stm32g0xx_hal_flash_ex.c ****   {
 320:Drivers/STM32G0xx_HAL_Driver/Src/stm32g0xx_hal_flash_ex.c ****     /* Fully modify OPTR register with RDP & user data */
 321:Drivers/STM32G0xx_HAL_Driver/Src/stm32g0xx_hal_flash_ex.c ****     FLASH_OB_OptrConfig(pOBInit->USERType, pOBInit->USERConfig, pOBInit->RDPLevel);
 322:Drivers/STM32G0xx_HAL_Driver/Src/stm32g0xx_hal_flash_ex.c ****   }
 323:Drivers/STM32G0xx_HAL_Driver/Src/stm32g0xx_hal_flash_ex.c ****   else if ((pOBInit->OptionType & OPTIONBYTE_RDP) != 0x00U)
 324:Drivers/STM32G0xx_HAL_Driver/Src/stm32g0xx_hal_flash_ex.c ****   {
 325:Drivers/STM32G0xx_HAL_Driver/Src/stm32g0xx_hal_flash_ex.c ****     /* Only modify RDP so get current user data */
 326:Drivers/STM32G0xx_HAL_Driver/Src/stm32g0xx_hal_flash_ex.c ****     optr = FLASH_OB_GetUser();
 327:Drivers/STM32G0xx_HAL_Driver/Src/stm32g0xx_hal_flash_ex.c ****     FLASH_OB_OptrConfig(optr, optr, pOBInit->RDPLevel);
 328:Drivers/STM32G0xx_HAL_Driver/Src/stm32g0xx_hal_flash_ex.c ****   }
 329:Drivers/STM32G0xx_HAL_Driver/Src/stm32g0xx_hal_flash_ex.c ****   else if ((pOBInit->OptionType & OPTIONBYTE_USER) != 0x00U)
 330:Drivers/STM32G0xx_HAL_Driver/Src/stm32g0xx_hal_flash_ex.c ****   {
 331:Drivers/STM32G0xx_HAL_Driver/Src/stm32g0xx_hal_flash_ex.c ****     /* Only modify user so get current RDP level */
 332:Drivers/STM32G0xx_HAL_Driver/Src/stm32g0xx_hal_flash_ex.c ****     optr = FLASH_OB_GetRDP();
 333:Drivers/STM32G0xx_HAL_Driver/Src/stm32g0xx_hal_flash_ex.c ****     FLASH_OB_OptrConfig(pOBInit->USERType, pOBInit->USERConfig, optr);
 334:Drivers/STM32G0xx_HAL_Driver/Src/stm32g0xx_hal_flash_ex.c ****   }
 335:Drivers/STM32G0xx_HAL_Driver/Src/stm32g0xx_hal_flash_ex.c ****   else
 336:Drivers/STM32G0xx_HAL_Driver/Src/stm32g0xx_hal_flash_ex.c ****   {
 337:Drivers/STM32G0xx_HAL_Driver/Src/stm32g0xx_hal_flash_ex.c ****     /* nothing to do */
 338:Drivers/STM32G0xx_HAL_Driver/Src/stm32g0xx_hal_flash_ex.c ****   }
 339:Drivers/STM32G0xx_HAL_Driver/Src/stm32g0xx_hal_flash_ex.c **** 
 340:Drivers/STM32G0xx_HAL_Driver/Src/stm32g0xx_hal_flash_ex.c **** #if defined(FLASH_PCROP_SUPPORT)
 341:Drivers/STM32G0xx_HAL_Driver/Src/stm32g0xx_hal_flash_ex.c ****   /* PCROP Configuration */
 342:Drivers/STM32G0xx_HAL_Driver/Src/stm32g0xx_hal_flash_ex.c ****   if ((pOBInit->OptionType & OPTIONBYTE_PCROP) != 0x00U)
 343:Drivers/STM32G0xx_HAL_Driver/Src/stm32g0xx_hal_flash_ex.c ****   {
 344:Drivers/STM32G0xx_HAL_Driver/Src/stm32g0xx_hal_flash_ex.c ****     /* Check the parameters */
 345:Drivers/STM32G0xx_HAL_Driver/Src/stm32g0xx_hal_flash_ex.c ****     assert_param(IS_OB_PCROP_CONFIG(pOBInit->PCROPConfig));
 346:Drivers/STM32G0xx_HAL_Driver/Src/stm32g0xx_hal_flash_ex.c **** 
 347:Drivers/STM32G0xx_HAL_Driver/Src/stm32g0xx_hal_flash_ex.c ****     if ((pOBInit->PCROPConfig & (OB_PCROP_ZONE_A | OB_PCROP_RDP_ERASE)) != 0x00U)
 348:Drivers/STM32G0xx_HAL_Driver/Src/stm32g0xx_hal_flash_ex.c ****     {
 349:Drivers/STM32G0xx_HAL_Driver/Src/stm32g0xx_hal_flash_ex.c ****       /* Configure the 1A Proprietary code readout protection */
 350:Drivers/STM32G0xx_HAL_Driver/Src/stm32g0xx_hal_flash_ex.c ****       FLASH_OB_PCROP1AConfig(pOBInit->PCROPConfig, pOBInit->PCROP1AStartAddr, pOBInit->PCROP1AEndAd
 351:Drivers/STM32G0xx_HAL_Driver/Src/stm32g0xx_hal_flash_ex.c ****     }
 352:Drivers/STM32G0xx_HAL_Driver/Src/stm32g0xx_hal_flash_ex.c **** 
 353:Drivers/STM32G0xx_HAL_Driver/Src/stm32g0xx_hal_flash_ex.c ****     if ((pOBInit->PCROPConfig & OB_PCROP_ZONE_B) != 0x00U)
 354:Drivers/STM32G0xx_HAL_Driver/Src/stm32g0xx_hal_flash_ex.c ****     {
 355:Drivers/STM32G0xx_HAL_Driver/Src/stm32g0xx_hal_flash_ex.c ****       /* Configure the 1B Proprietary code readout protection */
 356:Drivers/STM32G0xx_HAL_Driver/Src/stm32g0xx_hal_flash_ex.c ****       FLASH_OB_PCROP1BConfig(pOBInit->PCROP1BStartAddr, pOBInit->PCROP1BEndAddr);
 357:Drivers/STM32G0xx_HAL_Driver/Src/stm32g0xx_hal_flash_ex.c ****     }
 358:Drivers/STM32G0xx_HAL_Driver/Src/stm32g0xx_hal_flash_ex.c **** 
 359:Drivers/STM32G0xx_HAL_Driver/Src/stm32g0xx_hal_flash_ex.c **** #if defined(FLASH_DBANK_SUPPORT)
 360:Drivers/STM32G0xx_HAL_Driver/Src/stm32g0xx_hal_flash_ex.c ****     if ((pOBInit->PCROPConfig & OB_PCROP_ZONE2_A) != 0x00U)
 361:Drivers/STM32G0xx_HAL_Driver/Src/stm32g0xx_hal_flash_ex.c ****     {
 362:Drivers/STM32G0xx_HAL_Driver/Src/stm32g0xx_hal_flash_ex.c ****       /* Configure the 2A Proprietary code readout protection */
 363:Drivers/STM32G0xx_HAL_Driver/Src/stm32g0xx_hal_flash_ex.c ****       FLASH_OB_PCROP2AConfig(pOBInit->PCROP2AStartAddr, pOBInit->PCROP2AEndAddr);
 364:Drivers/STM32G0xx_HAL_Driver/Src/stm32g0xx_hal_flash_ex.c ****     }
 365:Drivers/STM32G0xx_HAL_Driver/Src/stm32g0xx_hal_flash_ex.c **** 
 366:Drivers/STM32G0xx_HAL_Driver/Src/stm32g0xx_hal_flash_ex.c ****     if ((pOBInit->PCROPConfig & OB_PCROP_ZONE2_B) != 0x00U)
 367:Drivers/STM32G0xx_HAL_Driver/Src/stm32g0xx_hal_flash_ex.c ****     {
 368:Drivers/STM32G0xx_HAL_Driver/Src/stm32g0xx_hal_flash_ex.c ****       /* Configure the 2B Proprietary code readout protection */
 369:Drivers/STM32G0xx_HAL_Driver/Src/stm32g0xx_hal_flash_ex.c ****       FLASH_OB_PCROP2BConfig(pOBInit->PCROP2BStartAddr, pOBInit->PCROP2BEndAddr);
 370:Drivers/STM32G0xx_HAL_Driver/Src/stm32g0xx_hal_flash_ex.c ****     }
 371:Drivers/STM32G0xx_HAL_Driver/Src/stm32g0xx_hal_flash_ex.c **** #endif /* FLASH_DBANK_SUPPORT */
 372:Drivers/STM32G0xx_HAL_Driver/Src/stm32g0xx_hal_flash_ex.c ****   }
 373:Drivers/STM32G0xx_HAL_Driver/Src/stm32g0xx_hal_flash_ex.c **** #endif /* FLASH_PCROP_SUPPORT */
 374:Drivers/STM32G0xx_HAL_Driver/Src/stm32g0xx_hal_flash_ex.c **** 
 375:Drivers/STM32G0xx_HAL_Driver/Src/stm32g0xx_hal_flash_ex.c **** #if defined(FLASH_SECURABLE_MEMORY_SUPPORT)
ARM GAS  /tmp/ccXI1us5.s 			page 8


 376:Drivers/STM32G0xx_HAL_Driver/Src/stm32g0xx_hal_flash_ex.c ****   /* Securable Memory Area Configuration */
 377:Drivers/STM32G0xx_HAL_Driver/Src/stm32g0xx_hal_flash_ex.c ****   if ((pOBInit->OptionType & OPTIONBYTE_SEC) != 0x00U)
 378:Drivers/STM32G0xx_HAL_Driver/Src/stm32g0xx_hal_flash_ex.c ****   {
 379:Drivers/STM32G0xx_HAL_Driver/Src/stm32g0xx_hal_flash_ex.c **** #if defined(FLASH_DBANK_SUPPORT)
 380:Drivers/STM32G0xx_HAL_Driver/Src/stm32g0xx_hal_flash_ex.c ****     /* Configure the securable memory area protection */
 381:Drivers/STM32G0xx_HAL_Driver/Src/stm32g0xx_hal_flash_ex.c ****     FLASH_OB_SecMemConfig(pOBInit->BootEntryPoint, pOBInit->SecSize, pOBInit->SecSize2);
 382:Drivers/STM32G0xx_HAL_Driver/Src/stm32g0xx_hal_flash_ex.c **** #else
 383:Drivers/STM32G0xx_HAL_Driver/Src/stm32g0xx_hal_flash_ex.c ****     /* Configure the securable memory area protection */
 384:Drivers/STM32G0xx_HAL_Driver/Src/stm32g0xx_hal_flash_ex.c ****     FLASH_OB_SecMemConfig(pOBInit->BootEntryPoint, pOBInit->SecSize);
 385:Drivers/STM32G0xx_HAL_Driver/Src/stm32g0xx_hal_flash_ex.c **** #endif /* FLASH_DBANK_SUPPORT */
 386:Drivers/STM32G0xx_HAL_Driver/Src/stm32g0xx_hal_flash_ex.c ****   }
 387:Drivers/STM32G0xx_HAL_Driver/Src/stm32g0xx_hal_flash_ex.c **** #endif /* FLASH_SECURABLE_MEMORY_SUPPORT */
 388:Drivers/STM32G0xx_HAL_Driver/Src/stm32g0xx_hal_flash_ex.c **** 
 389:Drivers/STM32G0xx_HAL_Driver/Src/stm32g0xx_hal_flash_ex.c ****   /* Wait for last operation to be completed */
 390:Drivers/STM32G0xx_HAL_Driver/Src/stm32g0xx_hal_flash_ex.c ****   status = FLASH_WaitForLastOperation(FLASH_TIMEOUT_VALUE);
 391:Drivers/STM32G0xx_HAL_Driver/Src/stm32g0xx_hal_flash_ex.c **** 
 392:Drivers/STM32G0xx_HAL_Driver/Src/stm32g0xx_hal_flash_ex.c ****   if (status == HAL_OK)
 393:Drivers/STM32G0xx_HAL_Driver/Src/stm32g0xx_hal_flash_ex.c ****   {
 394:Drivers/STM32G0xx_HAL_Driver/Src/stm32g0xx_hal_flash_ex.c ****     /* Set OPTSTRT Bit */
 395:Drivers/STM32G0xx_HAL_Driver/Src/stm32g0xx_hal_flash_ex.c ****     SET_BIT(FLASH->CR, FLASH_CR_OPTSTRT);
 396:Drivers/STM32G0xx_HAL_Driver/Src/stm32g0xx_hal_flash_ex.c **** 
 397:Drivers/STM32G0xx_HAL_Driver/Src/stm32g0xx_hal_flash_ex.c ****     /* Wait for last operation to be completed */
 398:Drivers/STM32G0xx_HAL_Driver/Src/stm32g0xx_hal_flash_ex.c ****     status = FLASH_WaitForLastOperation(FLASH_TIMEOUT_VALUE);
 399:Drivers/STM32G0xx_HAL_Driver/Src/stm32g0xx_hal_flash_ex.c **** 
 400:Drivers/STM32G0xx_HAL_Driver/Src/stm32g0xx_hal_flash_ex.c ****     /* If the option byte program operation is completed, disable the OPTSTRT Bit */
 401:Drivers/STM32G0xx_HAL_Driver/Src/stm32g0xx_hal_flash_ex.c ****     CLEAR_BIT(FLASH->CR, FLASH_CR_OPTSTRT);
 402:Drivers/STM32G0xx_HAL_Driver/Src/stm32g0xx_hal_flash_ex.c ****   }
 403:Drivers/STM32G0xx_HAL_Driver/Src/stm32g0xx_hal_flash_ex.c **** 
 404:Drivers/STM32G0xx_HAL_Driver/Src/stm32g0xx_hal_flash_ex.c ****   /* Process Unlocked */
 405:Drivers/STM32G0xx_HAL_Driver/Src/stm32g0xx_hal_flash_ex.c ****   __HAL_UNLOCK(&pFlash);
 406:Drivers/STM32G0xx_HAL_Driver/Src/stm32g0xx_hal_flash_ex.c **** 
 407:Drivers/STM32G0xx_HAL_Driver/Src/stm32g0xx_hal_flash_ex.c ****   /* return status */
 408:Drivers/STM32G0xx_HAL_Driver/Src/stm32g0xx_hal_flash_ex.c ****   return status;
 409:Drivers/STM32G0xx_HAL_Driver/Src/stm32g0xx_hal_flash_ex.c **** }
 410:Drivers/STM32G0xx_HAL_Driver/Src/stm32g0xx_hal_flash_ex.c **** 
 411:Drivers/STM32G0xx_HAL_Driver/Src/stm32g0xx_hal_flash_ex.c **** /**
 412:Drivers/STM32G0xx_HAL_Driver/Src/stm32g0xx_hal_flash_ex.c ****   * @brief  Get the Option bytes configuration.
 413:Drivers/STM32G0xx_HAL_Driver/Src/stm32g0xx_hal_flash_ex.c ****   * @note   warning: this API only read flash register, it does not reflect any
 414:Drivers/STM32G0xx_HAL_Driver/Src/stm32g0xx_hal_flash_ex.c ****   *         change that would have been programmed between previous Option byte
 415:Drivers/STM32G0xx_HAL_Driver/Src/stm32g0xx_hal_flash_ex.c ****   *         loading and current call.
 416:Drivers/STM32G0xx_HAL_Driver/Src/stm32g0xx_hal_flash_ex.c ****   * @param  pOBInit Pointer to an @ref FLASH_OBProgramInitTypeDef structure that contains the
 417:Drivers/STM32G0xx_HAL_Driver/Src/stm32g0xx_hal_flash_ex.c ****   *                  configuration information. The fields pOBInit->WRPArea should
 418:Drivers/STM32G0xx_HAL_Driver/Src/stm32g0xx_hal_flash_ex.c ****   *                  indicate which area is requested for the WRP.
 419:Drivers/STM32G0xx_HAL_Driver/Src/stm32g0xx_hal_flash_ex.c ****   * @retval None
 420:Drivers/STM32G0xx_HAL_Driver/Src/stm32g0xx_hal_flash_ex.c ****   */
 421:Drivers/STM32G0xx_HAL_Driver/Src/stm32g0xx_hal_flash_ex.c **** void HAL_FLASHEx_OBGetConfig(FLASH_OBProgramInitTypeDef *pOBInit)
 422:Drivers/STM32G0xx_HAL_Driver/Src/stm32g0xx_hal_flash_ex.c **** {
 423:Drivers/STM32G0xx_HAL_Driver/Src/stm32g0xx_hal_flash_ex.c ****   pOBInit->OptionType = OPTIONBYTE_ALL;
 424:Drivers/STM32G0xx_HAL_Driver/Src/stm32g0xx_hal_flash_ex.c **** 
 425:Drivers/STM32G0xx_HAL_Driver/Src/stm32g0xx_hal_flash_ex.c ****   /* Get write protection on the selected area */
 426:Drivers/STM32G0xx_HAL_Driver/Src/stm32g0xx_hal_flash_ex.c ****   FLASH_OB_GetWRP(pOBInit->WRPArea, &(pOBInit->WRPStartOffset), &(pOBInit->WRPEndOffset));
 427:Drivers/STM32G0xx_HAL_Driver/Src/stm32g0xx_hal_flash_ex.c **** 
 428:Drivers/STM32G0xx_HAL_Driver/Src/stm32g0xx_hal_flash_ex.c ****   /* Get Read protection level */
 429:Drivers/STM32G0xx_HAL_Driver/Src/stm32g0xx_hal_flash_ex.c ****   pOBInit->RDPLevel = FLASH_OB_GetRDP();
 430:Drivers/STM32G0xx_HAL_Driver/Src/stm32g0xx_hal_flash_ex.c **** 
 431:Drivers/STM32G0xx_HAL_Driver/Src/stm32g0xx_hal_flash_ex.c ****   /* Get the user option bytes */
 432:Drivers/STM32G0xx_HAL_Driver/Src/stm32g0xx_hal_flash_ex.c ****   pOBInit->USERConfig = FLASH_OB_GetUser();
ARM GAS  /tmp/ccXI1us5.s 			page 9


 433:Drivers/STM32G0xx_HAL_Driver/Src/stm32g0xx_hal_flash_ex.c ****   pOBInit->USERType = OB_USER_ALL;
 434:Drivers/STM32G0xx_HAL_Driver/Src/stm32g0xx_hal_flash_ex.c **** 
 435:Drivers/STM32G0xx_HAL_Driver/Src/stm32g0xx_hal_flash_ex.c **** #if defined(FLASH_PCROP_SUPPORT)
 436:Drivers/STM32G0xx_HAL_Driver/Src/stm32g0xx_hal_flash_ex.c ****   /* Get the Proprietary code readout protection */
 437:Drivers/STM32G0xx_HAL_Driver/Src/stm32g0xx_hal_flash_ex.c ****   FLASH_OB_GetPCROP1A(&(pOBInit->PCROPConfig), &(pOBInit->PCROP1AStartAddr), &(pOBInit->PCROP1AEndA
 438:Drivers/STM32G0xx_HAL_Driver/Src/stm32g0xx_hal_flash_ex.c ****   FLASH_OB_GetPCROP1B(&(pOBInit->PCROP1BStartAddr), &(pOBInit->PCROP1BEndAddr));
 439:Drivers/STM32G0xx_HAL_Driver/Src/stm32g0xx_hal_flash_ex.c ****   pOBInit->PCROPConfig |= (OB_PCROP_ZONE_A | OB_PCROP_ZONE_B);
 440:Drivers/STM32G0xx_HAL_Driver/Src/stm32g0xx_hal_flash_ex.c **** #if defined(FLASH_DBANK_SUPPORT)
 441:Drivers/STM32G0xx_HAL_Driver/Src/stm32g0xx_hal_flash_ex.c ****   FLASH_OB_GetPCROP2A(&(pOBInit->PCROP2AStartAddr), &(pOBInit->PCROP2AEndAddr));
 442:Drivers/STM32G0xx_HAL_Driver/Src/stm32g0xx_hal_flash_ex.c ****   FLASH_OB_GetPCROP2B(&(pOBInit->PCROP2BStartAddr), &(pOBInit->PCROP2BEndAddr));
 443:Drivers/STM32G0xx_HAL_Driver/Src/stm32g0xx_hal_flash_ex.c ****   pOBInit->PCROPConfig |= (OB_PCROP_ZONE2_A | OB_PCROP_ZONE2_B);
 444:Drivers/STM32G0xx_HAL_Driver/Src/stm32g0xx_hal_flash_ex.c **** #endif /* FLASH_DBANK_SUPPORT */
 445:Drivers/STM32G0xx_HAL_Driver/Src/stm32g0xx_hal_flash_ex.c **** #endif /* FLASH_PCROP_SUPPORT */
 446:Drivers/STM32G0xx_HAL_Driver/Src/stm32g0xx_hal_flash_ex.c **** 
 447:Drivers/STM32G0xx_HAL_Driver/Src/stm32g0xx_hal_flash_ex.c **** #if defined(FLASH_SECURABLE_MEMORY_SUPPORT)
 448:Drivers/STM32G0xx_HAL_Driver/Src/stm32g0xx_hal_flash_ex.c **** #if defined(FLASH_DBANK_SUPPORT)
 449:Drivers/STM32G0xx_HAL_Driver/Src/stm32g0xx_hal_flash_ex.c ****   /* Get the Securable Memory Area protection */
 450:Drivers/STM32G0xx_HAL_Driver/Src/stm32g0xx_hal_flash_ex.c ****   FLASH_OB_GetSecMem(&(pOBInit->BootEntryPoint), &(pOBInit->SecSize), &(pOBInit->SecSize2));
 451:Drivers/STM32G0xx_HAL_Driver/Src/stm32g0xx_hal_flash_ex.c **** #else
 452:Drivers/STM32G0xx_HAL_Driver/Src/stm32g0xx_hal_flash_ex.c ****   /* Get the Securable Memory Area protection */
 453:Drivers/STM32G0xx_HAL_Driver/Src/stm32g0xx_hal_flash_ex.c ****   FLASH_OB_GetSecMem(&(pOBInit->BootEntryPoint), &(pOBInit->SecSize));
 454:Drivers/STM32G0xx_HAL_Driver/Src/stm32g0xx_hal_flash_ex.c **** #endif /* FLASH_DBANK_SUPPORT */
 455:Drivers/STM32G0xx_HAL_Driver/Src/stm32g0xx_hal_flash_ex.c **** #endif /* FLASH_SECURABLE_MEMORY_SUPPORT */
 456:Drivers/STM32G0xx_HAL_Driver/Src/stm32g0xx_hal_flash_ex.c **** }
 457:Drivers/STM32G0xx_HAL_Driver/Src/stm32g0xx_hal_flash_ex.c **** 
 458:Drivers/STM32G0xx_HAL_Driver/Src/stm32g0xx_hal_flash_ex.c **** #if defined(FLASH_ACR_DBG_SWEN)
 459:Drivers/STM32G0xx_HAL_Driver/Src/stm32g0xx_hal_flash_ex.c **** /**
 460:Drivers/STM32G0xx_HAL_Driver/Src/stm32g0xx_hal_flash_ex.c ****   * @brief  Enable Debugger.
 461:Drivers/STM32G0xx_HAL_Driver/Src/stm32g0xx_hal_flash_ex.c ****   * @note   After calling this API, flash interface allow debugger intrusion.
 462:Drivers/STM32G0xx_HAL_Driver/Src/stm32g0xx_hal_flash_ex.c ****   * @retval None
 463:Drivers/STM32G0xx_HAL_Driver/Src/stm32g0xx_hal_flash_ex.c ****   */
 464:Drivers/STM32G0xx_HAL_Driver/Src/stm32g0xx_hal_flash_ex.c **** void HAL_FLASHEx_EnableDebugger(void)
 465:Drivers/STM32G0xx_HAL_Driver/Src/stm32g0xx_hal_flash_ex.c **** {
 466:Drivers/STM32G0xx_HAL_Driver/Src/stm32g0xx_hal_flash_ex.c ****   FLASH->ACR |= FLASH_ACR_DBG_SWEN;
 467:Drivers/STM32G0xx_HAL_Driver/Src/stm32g0xx_hal_flash_ex.c **** }
 468:Drivers/STM32G0xx_HAL_Driver/Src/stm32g0xx_hal_flash_ex.c **** 
 469:Drivers/STM32G0xx_HAL_Driver/Src/stm32g0xx_hal_flash_ex.c **** 
 470:Drivers/STM32G0xx_HAL_Driver/Src/stm32g0xx_hal_flash_ex.c **** /**
 471:Drivers/STM32G0xx_HAL_Driver/Src/stm32g0xx_hal_flash_ex.c ****   * @brief  Disable Debugger.
 472:Drivers/STM32G0xx_HAL_Driver/Src/stm32g0xx_hal_flash_ex.c ****   * @note   After calling this API, Debugger is disabled: it is no more possible to
 473:Drivers/STM32G0xx_HAL_Driver/Src/stm32g0xx_hal_flash_ex.c ****   *         break, see CPU register, etc...
 474:Drivers/STM32G0xx_HAL_Driver/Src/stm32g0xx_hal_flash_ex.c ****   * @retval None
 475:Drivers/STM32G0xx_HAL_Driver/Src/stm32g0xx_hal_flash_ex.c ****   */
 476:Drivers/STM32G0xx_HAL_Driver/Src/stm32g0xx_hal_flash_ex.c **** void HAL_FLASHEx_DisableDebugger(void)
 477:Drivers/STM32G0xx_HAL_Driver/Src/stm32g0xx_hal_flash_ex.c **** {
 478:Drivers/STM32G0xx_HAL_Driver/Src/stm32g0xx_hal_flash_ex.c ****   FLASH->ACR &= ~FLASH_ACR_DBG_SWEN;
 479:Drivers/STM32G0xx_HAL_Driver/Src/stm32g0xx_hal_flash_ex.c **** }
 480:Drivers/STM32G0xx_HAL_Driver/Src/stm32g0xx_hal_flash_ex.c **** #endif /* FLASH_ACR_DBG_SWEN */
 481:Drivers/STM32G0xx_HAL_Driver/Src/stm32g0xx_hal_flash_ex.c **** 
 482:Drivers/STM32G0xx_HAL_Driver/Src/stm32g0xx_hal_flash_ex.c **** /**
 483:Drivers/STM32G0xx_HAL_Driver/Src/stm32g0xx_hal_flash_ex.c ****   * @brief  Flash Empty check
 484:Drivers/STM32G0xx_HAL_Driver/Src/stm32g0xx_hal_flash_ex.c ****   * @note   This API checks if first location in Flash is programmed or not.
 485:Drivers/STM32G0xx_HAL_Driver/Src/stm32g0xx_hal_flash_ex.c ****   *         This check is done once by Option Byte Loader.
 486:Drivers/STM32G0xx_HAL_Driver/Src/stm32g0xx_hal_flash_ex.c ****   * @retval 0 if 1st location is not programmed else
 487:Drivers/STM32G0xx_HAL_Driver/Src/stm32g0xx_hal_flash_ex.c ****   */
 488:Drivers/STM32G0xx_HAL_Driver/Src/stm32g0xx_hal_flash_ex.c **** uint32_t HAL_FLASHEx_FlashEmptyCheck(void)
 489:Drivers/STM32G0xx_HAL_Driver/Src/stm32g0xx_hal_flash_ex.c **** {
ARM GAS  /tmp/ccXI1us5.s 			page 10


 490:Drivers/STM32G0xx_HAL_Driver/Src/stm32g0xx_hal_flash_ex.c ****   return ((FLASH->ACR & FLASH_ACR_PROGEMPTY));
 491:Drivers/STM32G0xx_HAL_Driver/Src/stm32g0xx_hal_flash_ex.c **** }
 492:Drivers/STM32G0xx_HAL_Driver/Src/stm32g0xx_hal_flash_ex.c **** 
 493:Drivers/STM32G0xx_HAL_Driver/Src/stm32g0xx_hal_flash_ex.c **** 
 494:Drivers/STM32G0xx_HAL_Driver/Src/stm32g0xx_hal_flash_ex.c **** /**
 495:Drivers/STM32G0xx_HAL_Driver/Src/stm32g0xx_hal_flash_ex.c ****   * @brief  Force Empty check value.
 496:Drivers/STM32G0xx_HAL_Driver/Src/stm32g0xx_hal_flash_ex.c ****   * @note   Allows to modify program empty check value in order to force this
 497:Drivers/STM32G0xx_HAL_Driver/Src/stm32g0xx_hal_flash_ex.c ****   *         infrmation in Flash Interface, for all next reset that do not launch
 498:Drivers/STM32G0xx_HAL_Driver/Src/stm32g0xx_hal_flash_ex.c ****   *         Option Byte Loader.
 499:Drivers/STM32G0xx_HAL_Driver/Src/stm32g0xx_hal_flash_ex.c ****   * @param  FlashEmpty this parameter can be a value of @ref FLASHEx_Empty_Check
 500:Drivers/STM32G0xx_HAL_Driver/Src/stm32g0xx_hal_flash_ex.c ****   * @retval None
 501:Drivers/STM32G0xx_HAL_Driver/Src/stm32g0xx_hal_flash_ex.c ****   */
 502:Drivers/STM32G0xx_HAL_Driver/Src/stm32g0xx_hal_flash_ex.c **** void HAL_FLASHEx_ForceFlashEmpty(uint32_t FlashEmpty)
 503:Drivers/STM32G0xx_HAL_Driver/Src/stm32g0xx_hal_flash_ex.c **** {
 504:Drivers/STM32G0xx_HAL_Driver/Src/stm32g0xx_hal_flash_ex.c ****   uint32_t acr;
 505:Drivers/STM32G0xx_HAL_Driver/Src/stm32g0xx_hal_flash_ex.c ****   assert_param(IS_FLASH_EMPTY_CHECK(FlashEmpty));
 506:Drivers/STM32G0xx_HAL_Driver/Src/stm32g0xx_hal_flash_ex.c **** 
 507:Drivers/STM32G0xx_HAL_Driver/Src/stm32g0xx_hal_flash_ex.c ****   acr = (FLASH->ACR & ~FLASH_ACR_PROGEMPTY);
 508:Drivers/STM32G0xx_HAL_Driver/Src/stm32g0xx_hal_flash_ex.c ****   FLASH->ACR = (acr | FlashEmpty);
 509:Drivers/STM32G0xx_HAL_Driver/Src/stm32g0xx_hal_flash_ex.c **** }
 510:Drivers/STM32G0xx_HAL_Driver/Src/stm32g0xx_hal_flash_ex.c **** 
 511:Drivers/STM32G0xx_HAL_Driver/Src/stm32g0xx_hal_flash_ex.c **** 
 512:Drivers/STM32G0xx_HAL_Driver/Src/stm32g0xx_hal_flash_ex.c **** #if defined(FLASH_SECURABLE_MEMORY_SUPPORT)
 513:Drivers/STM32G0xx_HAL_Driver/Src/stm32g0xx_hal_flash_ex.c **** /**
 514:Drivers/STM32G0xx_HAL_Driver/Src/stm32g0xx_hal_flash_ex.c ****   * @brief  Securable memory area protection enable
 515:Drivers/STM32G0xx_HAL_Driver/Src/stm32g0xx_hal_flash_ex.c ****   * @param  Banks Select Bank to be secured.
 516:Drivers/STM32G0xx_HAL_Driver/Src/stm32g0xx_hal_flash_ex.c ****   *         This parameter can be a value of @ref FLASH_Banks
 517:Drivers/STM32G0xx_HAL_Driver/Src/stm32g0xx_hal_flash_ex.c ****   * @note   On some devices, there is only 1 bank so parameter has to be set FLASH_BANK_1.
 518:Drivers/STM32G0xx_HAL_Driver/Src/stm32g0xx_hal_flash_ex.c ****   * @note   This API locks Securable memory area which is defined in SEC_SIZE option byte
 519:Drivers/STM32G0xx_HAL_Driver/Src/stm32g0xx_hal_flash_ex.c ****   *         (that can be retrieved calling HAL_FLASHEx_OBGetConfig API and checking
 520:Drivers/STM32G0xx_HAL_Driver/Src/stm32g0xx_hal_flash_ex.c ****   *         Secsize).
 521:Drivers/STM32G0xx_HAL_Driver/Src/stm32g0xx_hal_flash_ex.c ****   * @note   SEC_PROT bit can only be set, it will be reset by system reset.
 522:Drivers/STM32G0xx_HAL_Driver/Src/stm32g0xx_hal_flash_ex.c ****   * @retval None
 523:Drivers/STM32G0xx_HAL_Driver/Src/stm32g0xx_hal_flash_ex.c ****   */
 524:Drivers/STM32G0xx_HAL_Driver/Src/stm32g0xx_hal_flash_ex.c **** void HAL_FLASHEx_EnableSecMemProtection(uint32_t Banks)
 525:Drivers/STM32G0xx_HAL_Driver/Src/stm32g0xx_hal_flash_ex.c **** {
 526:Drivers/STM32G0xx_HAL_Driver/Src/stm32g0xx_hal_flash_ex.c **** #if defined(FLASH_DBANK_SUPPORT)
 527:Drivers/STM32G0xx_HAL_Driver/Src/stm32g0xx_hal_flash_ex.c ****   assert_param(IS_FLASH_BANK(Banks));
 528:Drivers/STM32G0xx_HAL_Driver/Src/stm32g0xx_hal_flash_ex.c **** 
 529:Drivers/STM32G0xx_HAL_Driver/Src/stm32g0xx_hal_flash_ex.c ****   if (Banks == (FLASH_BANK_2  | FLASH_BANK_1))
 530:Drivers/STM32G0xx_HAL_Driver/Src/stm32g0xx_hal_flash_ex.c ****   {
 531:Drivers/STM32G0xx_HAL_Driver/Src/stm32g0xx_hal_flash_ex.c ****     FLASH->CR |= (FLASH_CR_SEC_PROT2 | FLASH_CR_SEC_PROT);
 532:Drivers/STM32G0xx_HAL_Driver/Src/stm32g0xx_hal_flash_ex.c ****   }
 533:Drivers/STM32G0xx_HAL_Driver/Src/stm32g0xx_hal_flash_ex.c ****   else if (Banks == FLASH_BANK_2)
 534:Drivers/STM32G0xx_HAL_Driver/Src/stm32g0xx_hal_flash_ex.c ****   {
 535:Drivers/STM32G0xx_HAL_Driver/Src/stm32g0xx_hal_flash_ex.c ****     FLASH->CR |= FLASH_CR_SEC_PROT2;
 536:Drivers/STM32G0xx_HAL_Driver/Src/stm32g0xx_hal_flash_ex.c ****   }
 537:Drivers/STM32G0xx_HAL_Driver/Src/stm32g0xx_hal_flash_ex.c ****   else
 538:Drivers/STM32G0xx_HAL_Driver/Src/stm32g0xx_hal_flash_ex.c **** #else
 539:Drivers/STM32G0xx_HAL_Driver/Src/stm32g0xx_hal_flash_ex.c ****   UNUSED(Banks);
 540:Drivers/STM32G0xx_HAL_Driver/Src/stm32g0xx_hal_flash_ex.c **** #endif /* FLASH_DBANK_SUPPORT */
 541:Drivers/STM32G0xx_HAL_Driver/Src/stm32g0xx_hal_flash_ex.c ****   {
 542:Drivers/STM32G0xx_HAL_Driver/Src/stm32g0xx_hal_flash_ex.c ****     FLASH->CR |= FLASH_CR_SEC_PROT;
 543:Drivers/STM32G0xx_HAL_Driver/Src/stm32g0xx_hal_flash_ex.c ****   }
 544:Drivers/STM32G0xx_HAL_Driver/Src/stm32g0xx_hal_flash_ex.c **** }
 545:Drivers/STM32G0xx_HAL_Driver/Src/stm32g0xx_hal_flash_ex.c **** #endif /* FLASH_SECURABLE_MEMORY_SUPPORT */
 546:Drivers/STM32G0xx_HAL_Driver/Src/stm32g0xx_hal_flash_ex.c **** /**
ARM GAS  /tmp/ccXI1us5.s 			page 11


 547:Drivers/STM32G0xx_HAL_Driver/Src/stm32g0xx_hal_flash_ex.c ****   * @}
 548:Drivers/STM32G0xx_HAL_Driver/Src/stm32g0xx_hal_flash_ex.c ****   */
 549:Drivers/STM32G0xx_HAL_Driver/Src/stm32g0xx_hal_flash_ex.c **** 
 550:Drivers/STM32G0xx_HAL_Driver/Src/stm32g0xx_hal_flash_ex.c **** /**
 551:Drivers/STM32G0xx_HAL_Driver/Src/stm32g0xx_hal_flash_ex.c ****   * @}
 552:Drivers/STM32G0xx_HAL_Driver/Src/stm32g0xx_hal_flash_ex.c ****   */
 553:Drivers/STM32G0xx_HAL_Driver/Src/stm32g0xx_hal_flash_ex.c **** 
 554:Drivers/STM32G0xx_HAL_Driver/Src/stm32g0xx_hal_flash_ex.c **** /* Private functions ---------------------------------------------------------*/
 555:Drivers/STM32G0xx_HAL_Driver/Src/stm32g0xx_hal_flash_ex.c **** /** @addtogroup FLASHEx_Private_Functions
 556:Drivers/STM32G0xx_HAL_Driver/Src/stm32g0xx_hal_flash_ex.c ****   * @{
 557:Drivers/STM32G0xx_HAL_Driver/Src/stm32g0xx_hal_flash_ex.c ****   */
 558:Drivers/STM32G0xx_HAL_Driver/Src/stm32g0xx_hal_flash_ex.c **** 
 559:Drivers/STM32G0xx_HAL_Driver/Src/stm32g0xx_hal_flash_ex.c **** /**
 560:Drivers/STM32G0xx_HAL_Driver/Src/stm32g0xx_hal_flash_ex.c ****   * @brief  Mass erase of FLASH memory.
 561:Drivers/STM32G0xx_HAL_Driver/Src/stm32g0xx_hal_flash_ex.c ****   * @param  Banks: Banks to be erased
 562:Drivers/STM32G0xx_HAL_Driver/Src/stm32g0xx_hal_flash_ex.c ****   *         This parameter can be a combination of the following values:
 563:Drivers/STM32G0xx_HAL_Driver/Src/stm32g0xx_hal_flash_ex.c ****   *            @arg FLASH_BANK_1: Bank1 to be erased
 564:Drivers/STM32G0xx_HAL_Driver/Src/stm32g0xx_hal_flash_ex.c ****   *            @arg FLASH_BANK_2: Bank2 to be erased*
 565:Drivers/STM32G0xx_HAL_Driver/Src/stm32g0xx_hal_flash_ex.c ****   * @note (*) availability depends on devices
 566:Drivers/STM32G0xx_HAL_Driver/Src/stm32g0xx_hal_flash_ex.c ****   * @retval None
 567:Drivers/STM32G0xx_HAL_Driver/Src/stm32g0xx_hal_flash_ex.c ****   */
 568:Drivers/STM32G0xx_HAL_Driver/Src/stm32g0xx_hal_flash_ex.c **** static void FLASH_MassErase(uint32_t Banks)
 569:Drivers/STM32G0xx_HAL_Driver/Src/stm32g0xx_hal_flash_ex.c **** {
 570:Drivers/STM32G0xx_HAL_Driver/Src/stm32g0xx_hal_flash_ex.c ****   /* Check the parameters */
 571:Drivers/STM32G0xx_HAL_Driver/Src/stm32g0xx_hal_flash_ex.c ****   assert_param(IS_FLASH_BANK(Banks));
 572:Drivers/STM32G0xx_HAL_Driver/Src/stm32g0xx_hal_flash_ex.c **** 
 573:Drivers/STM32G0xx_HAL_Driver/Src/stm32g0xx_hal_flash_ex.c ****   /* Set the Mass Erase Bit and start bit */
 574:Drivers/STM32G0xx_HAL_Driver/Src/stm32g0xx_hal_flash_ex.c ****   FLASH->CR |= (FLASH_CR_STRT | Banks);
 575:Drivers/STM32G0xx_HAL_Driver/Src/stm32g0xx_hal_flash_ex.c **** }
 576:Drivers/STM32G0xx_HAL_Driver/Src/stm32g0xx_hal_flash_ex.c **** 
 577:Drivers/STM32G0xx_HAL_Driver/Src/stm32g0xx_hal_flash_ex.c **** /**
 578:Drivers/STM32G0xx_HAL_Driver/Src/stm32g0xx_hal_flash_ex.c ****   * @brief  Erase the specified FLASH memory page.
 579:Drivers/STM32G0xx_HAL_Driver/Src/stm32g0xx_hal_flash_ex.c ****   * @param  Banks: Banks to be erased
 580:Drivers/STM32G0xx_HAL_Driver/Src/stm32g0xx_hal_flash_ex.c ****   *         This parameter can one of the following values:
 581:Drivers/STM32G0xx_HAL_Driver/Src/stm32g0xx_hal_flash_ex.c ****   *            @arg FLASH_BANK_1: Bank1 to be erased
 582:Drivers/STM32G0xx_HAL_Driver/Src/stm32g0xx_hal_flash_ex.c ****   *            @arg FLASH_BANK_2: Bank2 to be erased*
 583:Drivers/STM32G0xx_HAL_Driver/Src/stm32g0xx_hal_flash_ex.c ****   * @param  Page FLASH page to erase
 584:Drivers/STM32G0xx_HAL_Driver/Src/stm32g0xx_hal_flash_ex.c ****   *         This parameter must be a value between 0 and (max number of pages in Flash - 1)
 585:Drivers/STM32G0xx_HAL_Driver/Src/stm32g0xx_hal_flash_ex.c ****   * @note (*) availability depends on devices
 586:Drivers/STM32G0xx_HAL_Driver/Src/stm32g0xx_hal_flash_ex.c ****   * @retval None
 587:Drivers/STM32G0xx_HAL_Driver/Src/stm32g0xx_hal_flash_ex.c ****   */
 588:Drivers/STM32G0xx_HAL_Driver/Src/stm32g0xx_hal_flash_ex.c **** void FLASH_PageErase(uint32_t Banks, uint32_t Page)
 589:Drivers/STM32G0xx_HAL_Driver/Src/stm32g0xx_hal_flash_ex.c **** {
 590:Drivers/STM32G0xx_HAL_Driver/Src/stm32g0xx_hal_flash_ex.c ****   uint32_t tmp;
 591:Drivers/STM32G0xx_HAL_Driver/Src/stm32g0xx_hal_flash_ex.c **** 
 592:Drivers/STM32G0xx_HAL_Driver/Src/stm32g0xx_hal_flash_ex.c ****   /* Check the parameters */
 593:Drivers/STM32G0xx_HAL_Driver/Src/stm32g0xx_hal_flash_ex.c ****   assert_param(IS_FLASH_BANK(Banks));
 594:Drivers/STM32G0xx_HAL_Driver/Src/stm32g0xx_hal_flash_ex.c ****   assert_param(IS_FLASH_PAGE(Page));
 595:Drivers/STM32G0xx_HAL_Driver/Src/stm32g0xx_hal_flash_ex.c **** 
 596:Drivers/STM32G0xx_HAL_Driver/Src/stm32g0xx_hal_flash_ex.c ****   /* Get configuration register, then clear page number */
 597:Drivers/STM32G0xx_HAL_Driver/Src/stm32g0xx_hal_flash_ex.c ****   tmp = (FLASH->CR & ~FLASH_CR_PNB);
 598:Drivers/STM32G0xx_HAL_Driver/Src/stm32g0xx_hal_flash_ex.c **** 
 599:Drivers/STM32G0xx_HAL_Driver/Src/stm32g0xx_hal_flash_ex.c **** #if defined(FLASH_DBANK_SUPPORT)
 600:Drivers/STM32G0xx_HAL_Driver/Src/stm32g0xx_hal_flash_ex.c ****   /* Check if page has to be erased in bank 1 or 2 */
 601:Drivers/STM32G0xx_HAL_Driver/Src/stm32g0xx_hal_flash_ex.c ****   if (Banks != FLASH_BANK_1)
 602:Drivers/STM32G0xx_HAL_Driver/Src/stm32g0xx_hal_flash_ex.c ****   {
 603:Drivers/STM32G0xx_HAL_Driver/Src/stm32g0xx_hal_flash_ex.c ****     tmp |= FLASH_CR_BKER;
ARM GAS  /tmp/ccXI1us5.s 			page 12


 604:Drivers/STM32G0xx_HAL_Driver/Src/stm32g0xx_hal_flash_ex.c ****   }
 605:Drivers/STM32G0xx_HAL_Driver/Src/stm32g0xx_hal_flash_ex.c ****   else
 606:Drivers/STM32G0xx_HAL_Driver/Src/stm32g0xx_hal_flash_ex.c ****   {
 607:Drivers/STM32G0xx_HAL_Driver/Src/stm32g0xx_hal_flash_ex.c ****     tmp &= ~FLASH_CR_BKER;
 608:Drivers/STM32G0xx_HAL_Driver/Src/stm32g0xx_hal_flash_ex.c ****   }
 609:Drivers/STM32G0xx_HAL_Driver/Src/stm32g0xx_hal_flash_ex.c **** #else
 610:Drivers/STM32G0xx_HAL_Driver/Src/stm32g0xx_hal_flash_ex.c ****   /* Prevent unused argument(s) compilation warning */
 611:Drivers/STM32G0xx_HAL_Driver/Src/stm32g0xx_hal_flash_ex.c ****   UNUSED(Banks);
 612:Drivers/STM32G0xx_HAL_Driver/Src/stm32g0xx_hal_flash_ex.c **** #endif /* FLASH_DBANK_SUPPORT */
 613:Drivers/STM32G0xx_HAL_Driver/Src/stm32g0xx_hal_flash_ex.c **** 
 614:Drivers/STM32G0xx_HAL_Driver/Src/stm32g0xx_hal_flash_ex.c ****   /* Set page number, Page Erase bit & Start bit */
 615:Drivers/STM32G0xx_HAL_Driver/Src/stm32g0xx_hal_flash_ex.c ****   FLASH->CR = (tmp | (FLASH_CR_STRT | (Page <<  FLASH_CR_PNB_Pos) | FLASH_CR_PER));
 616:Drivers/STM32G0xx_HAL_Driver/Src/stm32g0xx_hal_flash_ex.c **** }
 617:Drivers/STM32G0xx_HAL_Driver/Src/stm32g0xx_hal_flash_ex.c **** 
 618:Drivers/STM32G0xx_HAL_Driver/Src/stm32g0xx_hal_flash_ex.c **** /**
 619:Drivers/STM32G0xx_HAL_Driver/Src/stm32g0xx_hal_flash_ex.c ****   * @brief  Flush the instruction cache.
 620:Drivers/STM32G0xx_HAL_Driver/Src/stm32g0xx_hal_flash_ex.c ****   * @retval None
 621:Drivers/STM32G0xx_HAL_Driver/Src/stm32g0xx_hal_flash_ex.c ****   */
 622:Drivers/STM32G0xx_HAL_Driver/Src/stm32g0xx_hal_flash_ex.c **** void FLASH_FlushCaches(void)
 623:Drivers/STM32G0xx_HAL_Driver/Src/stm32g0xx_hal_flash_ex.c **** {
 624:Drivers/STM32G0xx_HAL_Driver/Src/stm32g0xx_hal_flash_ex.c ****   /* Flush instruction cache  */
 625:Drivers/STM32G0xx_HAL_Driver/Src/stm32g0xx_hal_flash_ex.c ****   if (READ_BIT(FLASH->ACR, FLASH_ACR_ICEN) != 0U)
 626:Drivers/STM32G0xx_HAL_Driver/Src/stm32g0xx_hal_flash_ex.c ****   {
 627:Drivers/STM32G0xx_HAL_Driver/Src/stm32g0xx_hal_flash_ex.c ****     /* Disable instruction cache  */
 628:Drivers/STM32G0xx_HAL_Driver/Src/stm32g0xx_hal_flash_ex.c ****     __HAL_FLASH_INSTRUCTION_CACHE_DISABLE();
 629:Drivers/STM32G0xx_HAL_Driver/Src/stm32g0xx_hal_flash_ex.c ****     /* Reset instruction cache */
 630:Drivers/STM32G0xx_HAL_Driver/Src/stm32g0xx_hal_flash_ex.c ****     __HAL_FLASH_INSTRUCTION_CACHE_RESET();
 631:Drivers/STM32G0xx_HAL_Driver/Src/stm32g0xx_hal_flash_ex.c ****     /* Enable instruction cache */
 632:Drivers/STM32G0xx_HAL_Driver/Src/stm32g0xx_hal_flash_ex.c ****     __HAL_FLASH_INSTRUCTION_CACHE_ENABLE();
 633:Drivers/STM32G0xx_HAL_Driver/Src/stm32g0xx_hal_flash_ex.c ****   }
 634:Drivers/STM32G0xx_HAL_Driver/Src/stm32g0xx_hal_flash_ex.c **** }
 635:Drivers/STM32G0xx_HAL_Driver/Src/stm32g0xx_hal_flash_ex.c **** 
 636:Drivers/STM32G0xx_HAL_Driver/Src/stm32g0xx_hal_flash_ex.c **** /**
 637:Drivers/STM32G0xx_HAL_Driver/Src/stm32g0xx_hal_flash_ex.c ****   * @brief  Configure the write protection of the desired pages.
 638:Drivers/STM32G0xx_HAL_Driver/Src/stm32g0xx_hal_flash_ex.c ****   * @note   When WRP is active in a zone, it cannot be erased or programmed.
 639:Drivers/STM32G0xx_HAL_Driver/Src/stm32g0xx_hal_flash_ex.c ****   *         Consequently, a software mass erase cannot be performed if one zone
 640:Drivers/STM32G0xx_HAL_Driver/Src/stm32g0xx_hal_flash_ex.c ****   *         is write-protected.
 641:Drivers/STM32G0xx_HAL_Driver/Src/stm32g0xx_hal_flash_ex.c ****   * @note   When the memory read protection level is selected (RDP level = 1),
 642:Drivers/STM32G0xx_HAL_Driver/Src/stm32g0xx_hal_flash_ex.c ****   *         it is not possible to program or erase Flash memory if the CPU debug
 643:Drivers/STM32G0xx_HAL_Driver/Src/stm32g0xx_hal_flash_ex.c ****   *         features are connected (JTAG or single wire) or boot code is being
 644:Drivers/STM32G0xx_HAL_Driver/Src/stm32g0xx_hal_flash_ex.c ****   *         executed from RAM or System flash, even if WRP is not activated.
 645:Drivers/STM32G0xx_HAL_Driver/Src/stm32g0xx_hal_flash_ex.c ****   * @param  WRPArea  Specifies the area to be configured.
 646:Drivers/STM32G0xx_HAL_Driver/Src/stm32g0xx_hal_flash_ex.c ****   *         This parameter can be one of the following values:
 647:Drivers/STM32G0xx_HAL_Driver/Src/stm32g0xx_hal_flash_ex.c ****   *           @arg @ref OB_WRPAREA_ZONE_A Flash Zone A
 648:Drivers/STM32G0xx_HAL_Driver/Src/stm32g0xx_hal_flash_ex.c ****   *           @arg @ref OB_WRPAREA_ZONE_B Flash Zone B
 649:Drivers/STM32G0xx_HAL_Driver/Src/stm32g0xx_hal_flash_ex.c ****   *           @arg @ref OB_WRPAREA_ZONE2_A Flash Bank 2 Zone A (*)
 650:Drivers/STM32G0xx_HAL_Driver/Src/stm32g0xx_hal_flash_ex.c ****   *           @arg @ref OB_WRPAREA_ZONE2_B Flash Bank 2 Zone B (*)
 651:Drivers/STM32G0xx_HAL_Driver/Src/stm32g0xx_hal_flash_ex.c ****   * @note  (*) availability depends on devices
 652:Drivers/STM32G0xx_HAL_Driver/Src/stm32g0xx_hal_flash_ex.c ****   * @param  WRPStartOffset  Specifies the start page of the write protected area
 653:Drivers/STM32G0xx_HAL_Driver/Src/stm32g0xx_hal_flash_ex.c ****   *         This parameter can be page number between 0 and (max number of pages in the Flash Bank 
 654:Drivers/STM32G0xx_HAL_Driver/Src/stm32g0xx_hal_flash_ex.c ****   * @param  WRDPEndOffset  Specifies the end page of the write protected area
 655:Drivers/STM32G0xx_HAL_Driver/Src/stm32g0xx_hal_flash_ex.c ****   *         This parameter can be page number between WRPStartOffset and (max number of pages in th
 656:Drivers/STM32G0xx_HAL_Driver/Src/stm32g0xx_hal_flash_ex.c ****   * @retval None
 657:Drivers/STM32G0xx_HAL_Driver/Src/stm32g0xx_hal_flash_ex.c ****   */
 658:Drivers/STM32G0xx_HAL_Driver/Src/stm32g0xx_hal_flash_ex.c **** static void FLASH_OB_WRPConfig(uint32_t WRPArea, uint32_t WRPStartOffset, uint32_t WRDPEndOffset)
 659:Drivers/STM32G0xx_HAL_Driver/Src/stm32g0xx_hal_flash_ex.c **** {
 660:Drivers/STM32G0xx_HAL_Driver/Src/stm32g0xx_hal_flash_ex.c ****   /* Check the parameters */
ARM GAS  /tmp/ccXI1us5.s 			page 13


 661:Drivers/STM32G0xx_HAL_Driver/Src/stm32g0xx_hal_flash_ex.c ****   assert_param(IS_OB_WRPAREA(WRPArea));
 662:Drivers/STM32G0xx_HAL_Driver/Src/stm32g0xx_hal_flash_ex.c ****   assert_param(IS_FLASH_PAGE(WRPStartOffset));
 663:Drivers/STM32G0xx_HAL_Driver/Src/stm32g0xx_hal_flash_ex.c ****   assert_param(IS_FLASH_PAGE(WRDPEndOffset));
 664:Drivers/STM32G0xx_HAL_Driver/Src/stm32g0xx_hal_flash_ex.c **** 
 665:Drivers/STM32G0xx_HAL_Driver/Src/stm32g0xx_hal_flash_ex.c ****   /* Configure the write protected area */
 666:Drivers/STM32G0xx_HAL_Driver/Src/stm32g0xx_hal_flash_ex.c ****   if (WRPArea == OB_WRPAREA_ZONE_A)
 667:Drivers/STM32G0xx_HAL_Driver/Src/stm32g0xx_hal_flash_ex.c ****   {
 668:Drivers/STM32G0xx_HAL_Driver/Src/stm32g0xx_hal_flash_ex.c ****     FLASH->WRP1AR = ((WRDPEndOffset << FLASH_WRP1AR_WRP1A_END_Pos) | WRPStartOffset);
 669:Drivers/STM32G0xx_HAL_Driver/Src/stm32g0xx_hal_flash_ex.c ****   }
 670:Drivers/STM32G0xx_HAL_Driver/Src/stm32g0xx_hal_flash_ex.c **** #if defined(FLASH_DBANK_SUPPORT)
 671:Drivers/STM32G0xx_HAL_Driver/Src/stm32g0xx_hal_flash_ex.c ****   else if (WRPArea == OB_WRPAREA_ZONE2_A)
 672:Drivers/STM32G0xx_HAL_Driver/Src/stm32g0xx_hal_flash_ex.c ****   {
 673:Drivers/STM32G0xx_HAL_Driver/Src/stm32g0xx_hal_flash_ex.c ****     FLASH->WRP2AR = ((WRDPEndOffset << FLASH_WRP2AR_WRP2A_END_Pos) | WRPStartOffset);
 674:Drivers/STM32G0xx_HAL_Driver/Src/stm32g0xx_hal_flash_ex.c ****   }
 675:Drivers/STM32G0xx_HAL_Driver/Src/stm32g0xx_hal_flash_ex.c ****   else if (WRPArea == OB_WRPAREA_ZONE2_B)
 676:Drivers/STM32G0xx_HAL_Driver/Src/stm32g0xx_hal_flash_ex.c ****   {
 677:Drivers/STM32G0xx_HAL_Driver/Src/stm32g0xx_hal_flash_ex.c ****     FLASH->WRP2BR = ((WRDPEndOffset << FLASH_WRP2BR_WRP2B_END_Pos) | WRPStartOffset);
 678:Drivers/STM32G0xx_HAL_Driver/Src/stm32g0xx_hal_flash_ex.c ****   }
 679:Drivers/STM32G0xx_HAL_Driver/Src/stm32g0xx_hal_flash_ex.c **** #endif /* FLASH_DBANK_SUPPORT */
 680:Drivers/STM32G0xx_HAL_Driver/Src/stm32g0xx_hal_flash_ex.c ****   else
 681:Drivers/STM32G0xx_HAL_Driver/Src/stm32g0xx_hal_flash_ex.c ****   {
 682:Drivers/STM32G0xx_HAL_Driver/Src/stm32g0xx_hal_flash_ex.c ****     FLASH->WRP1BR = ((WRDPEndOffset << FLASH_WRP1BR_WRP1B_END_Pos) | WRPStartOffset);
 683:Drivers/STM32G0xx_HAL_Driver/Src/stm32g0xx_hal_flash_ex.c ****   }
 684:Drivers/STM32G0xx_HAL_Driver/Src/stm32g0xx_hal_flash_ex.c **** }
 685:Drivers/STM32G0xx_HAL_Driver/Src/stm32g0xx_hal_flash_ex.c **** 
 686:Drivers/STM32G0xx_HAL_Driver/Src/stm32g0xx_hal_flash_ex.c **** /**
 687:Drivers/STM32G0xx_HAL_Driver/Src/stm32g0xx_hal_flash_ex.c ****   * @brief  Return the FLASH Write Protection Option Bytes value.
 688:Drivers/STM32G0xx_HAL_Driver/Src/stm32g0xx_hal_flash_ex.c ****   * @param[in]  WRPArea Specifies the area to be returned.
 689:Drivers/STM32G0xx_HAL_Driver/Src/stm32g0xx_hal_flash_ex.c ****   *             This parameter can be one of the following values:
 690:Drivers/STM32G0xx_HAL_Driver/Src/stm32g0xx_hal_flash_ex.c ****   *               @arg @ref OB_WRPAREA_ZONE_A Flash Zone A
 691:Drivers/STM32G0xx_HAL_Driver/Src/stm32g0xx_hal_flash_ex.c ****   *               @arg @ref OB_WRPAREA_ZONE_B Flash Zone B
 692:Drivers/STM32G0xx_HAL_Driver/Src/stm32g0xx_hal_flash_ex.c ****   *               @arg @ref OB_WRPAREA_ZONE2_A Flash Bank 2 Zone A (*)
 693:Drivers/STM32G0xx_HAL_Driver/Src/stm32g0xx_hal_flash_ex.c ****   *               @arg @ref OB_WRPAREA_ZONE2_B Flash Bank 2 Zone B (*)
 694:Drivers/STM32G0xx_HAL_Driver/Src/stm32g0xx_hal_flash_ex.c ****   * @note  (*) availability depends on devices
 695:Drivers/STM32G0xx_HAL_Driver/Src/stm32g0xx_hal_flash_ex.c ****   * @param[out]  WRPStartOffset  Specifies the address where to copied the start page
 696:Drivers/STM32G0xx_HAL_Driver/Src/stm32g0xx_hal_flash_ex.c ****   *                         of the write protected area
 697:Drivers/STM32G0xx_HAL_Driver/Src/stm32g0xx_hal_flash_ex.c ****   * @param[out]  WRDPEndOffset  Dpecifies the address where to copied the end page of
 698:Drivers/STM32G0xx_HAL_Driver/Src/stm32g0xx_hal_flash_ex.c ****   *                        the write protected area
 699:Drivers/STM32G0xx_HAL_Driver/Src/stm32g0xx_hal_flash_ex.c ****   * @retval None
 700:Drivers/STM32G0xx_HAL_Driver/Src/stm32g0xx_hal_flash_ex.c ****   */
 701:Drivers/STM32G0xx_HAL_Driver/Src/stm32g0xx_hal_flash_ex.c **** static void FLASH_OB_GetWRP(uint32_t WRPArea, uint32_t *WRPStartOffset, uint32_t *WRDPEndOffset)
 702:Drivers/STM32G0xx_HAL_Driver/Src/stm32g0xx_hal_flash_ex.c **** {
 703:Drivers/STM32G0xx_HAL_Driver/Src/stm32g0xx_hal_flash_ex.c ****   /* Check the parameters */
 704:Drivers/STM32G0xx_HAL_Driver/Src/stm32g0xx_hal_flash_ex.c ****   assert_param(IS_OB_WRPAREA(WRPArea));
 705:Drivers/STM32G0xx_HAL_Driver/Src/stm32g0xx_hal_flash_ex.c **** 
 706:Drivers/STM32G0xx_HAL_Driver/Src/stm32g0xx_hal_flash_ex.c ****   /* Get the configuration of the write protected area */
 707:Drivers/STM32G0xx_HAL_Driver/Src/stm32g0xx_hal_flash_ex.c ****   if (WRPArea == OB_WRPAREA_ZONE_A)
 708:Drivers/STM32G0xx_HAL_Driver/Src/stm32g0xx_hal_flash_ex.c ****   {
 709:Drivers/STM32G0xx_HAL_Driver/Src/stm32g0xx_hal_flash_ex.c ****     *WRPStartOffset = READ_BIT(FLASH->WRP1AR, FLASH_WRP1AR_WRP1A_STRT);
 710:Drivers/STM32G0xx_HAL_Driver/Src/stm32g0xx_hal_flash_ex.c ****     *WRDPEndOffset = (READ_BIT(FLASH->WRP1AR, FLASH_WRP1AR_WRP1A_END) >> FLASH_WRP1AR_WRP1A_END_Pos
 711:Drivers/STM32G0xx_HAL_Driver/Src/stm32g0xx_hal_flash_ex.c ****   }
 712:Drivers/STM32G0xx_HAL_Driver/Src/stm32g0xx_hal_flash_ex.c **** #if defined(FLASH_DBANK_SUPPORT)
 713:Drivers/STM32G0xx_HAL_Driver/Src/stm32g0xx_hal_flash_ex.c ****   else if (WRPArea == OB_WRPAREA_ZONE2_A)
 714:Drivers/STM32G0xx_HAL_Driver/Src/stm32g0xx_hal_flash_ex.c ****   {
 715:Drivers/STM32G0xx_HAL_Driver/Src/stm32g0xx_hal_flash_ex.c ****     *WRPStartOffset = READ_BIT(FLASH->WRP2AR, FLASH_WRP2AR_WRP2A_STRT);
 716:Drivers/STM32G0xx_HAL_Driver/Src/stm32g0xx_hal_flash_ex.c ****     *WRDPEndOffset = (READ_BIT(FLASH->WRP2AR, FLASH_WRP2AR_WRP2A_END) >> FLASH_WRP2AR_WRP2A_END_Pos
 717:Drivers/STM32G0xx_HAL_Driver/Src/stm32g0xx_hal_flash_ex.c ****   }
ARM GAS  /tmp/ccXI1us5.s 			page 14


 718:Drivers/STM32G0xx_HAL_Driver/Src/stm32g0xx_hal_flash_ex.c ****   else if (WRPArea == OB_WRPAREA_ZONE2_B)
 719:Drivers/STM32G0xx_HAL_Driver/Src/stm32g0xx_hal_flash_ex.c ****   {
 720:Drivers/STM32G0xx_HAL_Driver/Src/stm32g0xx_hal_flash_ex.c ****     *WRPStartOffset = READ_BIT(FLASH->WRP2BR, FLASH_WRP2BR_WRP2B_STRT);
 721:Drivers/STM32G0xx_HAL_Driver/Src/stm32g0xx_hal_flash_ex.c ****     *WRDPEndOffset = (READ_BIT(FLASH->WRP2BR, FLASH_WRP2BR_WRP2B_END) >> FLASH_WRP2BR_WRP2B_END_Pos
 722:Drivers/STM32G0xx_HAL_Driver/Src/stm32g0xx_hal_flash_ex.c ****   }
 723:Drivers/STM32G0xx_HAL_Driver/Src/stm32g0xx_hal_flash_ex.c **** #endif /* FLASH_DBANK_SUPPORT */
 724:Drivers/STM32G0xx_HAL_Driver/Src/stm32g0xx_hal_flash_ex.c ****   else
 725:Drivers/STM32G0xx_HAL_Driver/Src/stm32g0xx_hal_flash_ex.c ****   {
 726:Drivers/STM32G0xx_HAL_Driver/Src/stm32g0xx_hal_flash_ex.c ****     *WRPStartOffset = READ_BIT(FLASH->WRP1BR, FLASH_WRP1BR_WRP1B_STRT);
 727:Drivers/STM32G0xx_HAL_Driver/Src/stm32g0xx_hal_flash_ex.c ****     *WRDPEndOffset = (READ_BIT(FLASH->WRP1BR, FLASH_WRP1BR_WRP1B_END) >> FLASH_WRP1BR_WRP1B_END_Pos
 728:Drivers/STM32G0xx_HAL_Driver/Src/stm32g0xx_hal_flash_ex.c ****   }
 729:Drivers/STM32G0xx_HAL_Driver/Src/stm32g0xx_hal_flash_ex.c **** }
 730:Drivers/STM32G0xx_HAL_Driver/Src/stm32g0xx_hal_flash_ex.c **** 
 731:Drivers/STM32G0xx_HAL_Driver/Src/stm32g0xx_hal_flash_ex.c **** /**
 732:Drivers/STM32G0xx_HAL_Driver/Src/stm32g0xx_hal_flash_ex.c ****   * @brief  Set user & RDP configuration
 733:Drivers/STM32G0xx_HAL_Driver/Src/stm32g0xx_hal_flash_ex.c ****   * @note   !!! Warning : When enabling OB_RDP level 2 it is no more possible
 734:Drivers/STM32G0xx_HAL_Driver/Src/stm32g0xx_hal_flash_ex.c ****   *         to go back to level 1 or 0 !!!
 735:Drivers/STM32G0xx_HAL_Driver/Src/stm32g0xx_hal_flash_ex.c ****   * @param  UserType  The FLASH User Option Bytes to be modified.
 736:Drivers/STM32G0xx_HAL_Driver/Src/stm32g0xx_hal_flash_ex.c ****   *         This parameter can be a combination of @ref FLASH_OB_USER_Type
 737:Drivers/STM32G0xx_HAL_Driver/Src/stm32g0xx_hal_flash_ex.c ****   * @param  UserConfig  The FLASH User Option Bytes values.
 738:Drivers/STM32G0xx_HAL_Driver/Src/stm32g0xx_hal_flash_ex.c ****   *         This parameter can be a combination of:
 739:Drivers/STM32G0xx_HAL_Driver/Src/stm32g0xx_hal_flash_ex.c ****   *           @arg @ref FLASH_OB_USER_BOR_ENABLE(*)
 740:Drivers/STM32G0xx_HAL_Driver/Src/stm32g0xx_hal_flash_ex.c ****   *           @arg @ref FLASH_OB_USER_BOR_LEVEL(*)
 741:Drivers/STM32G0xx_HAL_Driver/Src/stm32g0xx_hal_flash_ex.c ****   *           @arg @ref FLASH_OB_USER_RESET_CONFIG(*)
 742:Drivers/STM32G0xx_HAL_Driver/Src/stm32g0xx_hal_flash_ex.c ****   *           @arg @ref FLASH_OB_USER_nRST_STOP
 743:Drivers/STM32G0xx_HAL_Driver/Src/stm32g0xx_hal_flash_ex.c ****   *           @arg @ref FLASH_OB_USER_nRST_STANDBY
 744:Drivers/STM32G0xx_HAL_Driver/Src/stm32g0xx_hal_flash_ex.c ****   *           @arg @ref FLASH_OB_USER_nRST_SHUTDOWN(*)
 745:Drivers/STM32G0xx_HAL_Driver/Src/stm32g0xx_hal_flash_ex.c ****   *           @arg @ref FLASH_OB_USER_IWDG_SW
 746:Drivers/STM32G0xx_HAL_Driver/Src/stm32g0xx_hal_flash_ex.c ****   *           @arg @ref FLASH_OB_USER_IWDG_STOP
 747:Drivers/STM32G0xx_HAL_Driver/Src/stm32g0xx_hal_flash_ex.c ****   *           @arg @ref FLASH_OB_USER_IWDG_STANDBY
 748:Drivers/STM32G0xx_HAL_Driver/Src/stm32g0xx_hal_flash_ex.c ****   *           @arg @ref FLASH_OB_USER_WWDG_SW
 749:Drivers/STM32G0xx_HAL_Driver/Src/stm32g0xx_hal_flash_ex.c ****   *           @arg @ref FLASH_OB_USER_SRAM_PARITY
 750:Drivers/STM32G0xx_HAL_Driver/Src/stm32g0xx_hal_flash_ex.c ****   *           @arg @ref FLASH_OB_USER_BANK_SWAP(*)
 751:Drivers/STM32G0xx_HAL_Driver/Src/stm32g0xx_hal_flash_ex.c ****   *           @arg @ref FLASH_OB_USER_DUAL_BANK(*)
 752:Drivers/STM32G0xx_HAL_Driver/Src/stm32g0xx_hal_flash_ex.c ****   *           @arg @ref FLASH_OB_USER_nBOOT_SEL
 753:Drivers/STM32G0xx_HAL_Driver/Src/stm32g0xx_hal_flash_ex.c ****   *           @arg @ref FLASH_OB_USER_nBOOT1
 754:Drivers/STM32G0xx_HAL_Driver/Src/stm32g0xx_hal_flash_ex.c ****   *           @arg @ref FLASH_OB_USER_nBOOT0
 755:Drivers/STM32G0xx_HAL_Driver/Src/stm32g0xx_hal_flash_ex.c ****   *           @arg @ref FLASH_OB_USER_INPUT_RESET_HOLDER(*)
 756:Drivers/STM32G0xx_HAL_Driver/Src/stm32g0xx_hal_flash_ex.c ****   * @param  RDPLevel  specifies the read protection level.
 757:Drivers/STM32G0xx_HAL_Driver/Src/stm32g0xx_hal_flash_ex.c ****   *         This parameter can be one of the following values:
 758:Drivers/STM32G0xx_HAL_Driver/Src/stm32g0xx_hal_flash_ex.c ****   *           @arg @ref OB_RDP_LEVEL_0 No protection
 759:Drivers/STM32G0xx_HAL_Driver/Src/stm32g0xx_hal_flash_ex.c ****   *           @arg @ref OB_RDP_LEVEL_1 Memory Read protection
 760:Drivers/STM32G0xx_HAL_Driver/Src/stm32g0xx_hal_flash_ex.c ****   *           @arg @ref OB_RDP_LEVEL_2 Full chip protection
 761:Drivers/STM32G0xx_HAL_Driver/Src/stm32g0xx_hal_flash_ex.c ****   * @note  (*) availability depends on devices
 762:Drivers/STM32G0xx_HAL_Driver/Src/stm32g0xx_hal_flash_ex.c ****   * @retval None
 763:Drivers/STM32G0xx_HAL_Driver/Src/stm32g0xx_hal_flash_ex.c ****   */
 764:Drivers/STM32G0xx_HAL_Driver/Src/stm32g0xx_hal_flash_ex.c **** static void FLASH_OB_OptrConfig(uint32_t UserType, uint32_t UserConfig, uint32_t RDPLevel)
 765:Drivers/STM32G0xx_HAL_Driver/Src/stm32g0xx_hal_flash_ex.c **** {
 766:Drivers/STM32G0xx_HAL_Driver/Src/stm32g0xx_hal_flash_ex.c ****   uint32_t optr;
 767:Drivers/STM32G0xx_HAL_Driver/Src/stm32g0xx_hal_flash_ex.c **** 
 768:Drivers/STM32G0xx_HAL_Driver/Src/stm32g0xx_hal_flash_ex.c ****   /* Check the parameters */
 769:Drivers/STM32G0xx_HAL_Driver/Src/stm32g0xx_hal_flash_ex.c ****   assert_param(IS_OB_USER_TYPE(UserType));
 770:Drivers/STM32G0xx_HAL_Driver/Src/stm32g0xx_hal_flash_ex.c ****   assert_param(IS_OB_USER_CONFIG(UserType, UserConfig));
 771:Drivers/STM32G0xx_HAL_Driver/Src/stm32g0xx_hal_flash_ex.c ****   assert_param(IS_OB_RDP_LEVEL(RDPLevel));
 772:Drivers/STM32G0xx_HAL_Driver/Src/stm32g0xx_hal_flash_ex.c **** 
 773:Drivers/STM32G0xx_HAL_Driver/Src/stm32g0xx_hal_flash_ex.c ****   /* Configure the RDP level in the option bytes register */
 774:Drivers/STM32G0xx_HAL_Driver/Src/stm32g0xx_hal_flash_ex.c ****   optr = FLASH->OPTR;
ARM GAS  /tmp/ccXI1us5.s 			page 15


 775:Drivers/STM32G0xx_HAL_Driver/Src/stm32g0xx_hal_flash_ex.c ****   optr &= ~(UserType | FLASH_OPTR_RDP);
 776:Drivers/STM32G0xx_HAL_Driver/Src/stm32g0xx_hal_flash_ex.c ****   FLASH->OPTR = (optr | UserConfig | RDPLevel);
 777:Drivers/STM32G0xx_HAL_Driver/Src/stm32g0xx_hal_flash_ex.c **** }
 778:Drivers/STM32G0xx_HAL_Driver/Src/stm32g0xx_hal_flash_ex.c **** 
 779:Drivers/STM32G0xx_HAL_Driver/Src/stm32g0xx_hal_flash_ex.c **** /**
 780:Drivers/STM32G0xx_HAL_Driver/Src/stm32g0xx_hal_flash_ex.c ****   * @brief  Return the FLASH Read Protection level.
 781:Drivers/STM32G0xx_HAL_Driver/Src/stm32g0xx_hal_flash_ex.c ****   * @retval FLASH ReadOut Protection Status:
 782:Drivers/STM32G0xx_HAL_Driver/Src/stm32g0xx_hal_flash_ex.c ****   *         This return value can be one of the following values:
 783:Drivers/STM32G0xx_HAL_Driver/Src/stm32g0xx_hal_flash_ex.c ****   *           @arg @ref OB_RDP_LEVEL_0 No protection
 784:Drivers/STM32G0xx_HAL_Driver/Src/stm32g0xx_hal_flash_ex.c ****   *           @arg @ref OB_RDP_LEVEL_1 Read protection of the memory
 785:Drivers/STM32G0xx_HAL_Driver/Src/stm32g0xx_hal_flash_ex.c ****   *           @arg @ref OB_RDP_LEVEL_2 Full chip protection
 786:Drivers/STM32G0xx_HAL_Driver/Src/stm32g0xx_hal_flash_ex.c ****   */
 787:Drivers/STM32G0xx_HAL_Driver/Src/stm32g0xx_hal_flash_ex.c **** static uint32_t FLASH_OB_GetRDP(void)
 788:Drivers/STM32G0xx_HAL_Driver/Src/stm32g0xx_hal_flash_ex.c **** {
  26              		.loc 1 788 1 view -0
  27              		.cfi_startproc
  28              		@ args = 0, pretend = 0, frame = 0
  29              		@ frame_needed = 0, uses_anonymous_args = 0
  30              		@ link register save eliminated.
 789:Drivers/STM32G0xx_HAL_Driver/Src/stm32g0xx_hal_flash_ex.c ****   uint32_t rdplvl = READ_BIT(FLASH->OPTR, FLASH_OPTR_RDP);
  31              		.loc 1 789 3 view .LVU1
  32              		.loc 1 789 21 is_stmt 0 view .LVU2
  33 0000 044B     		ldr	r3, .L4
  34 0002 1B6A     		ldr	r3, [r3, #32]
  35              		.loc 1 789 12 view .LVU3
  36 0004 FF20     		movs	r0, #255
  37 0006 1840     		ands	r0, r3
  38              	.LVL0:
 790:Drivers/STM32G0xx_HAL_Driver/Src/stm32g0xx_hal_flash_ex.c **** 
 791:Drivers/STM32G0xx_HAL_Driver/Src/stm32g0xx_hal_flash_ex.c ****   if ((rdplvl != OB_RDP_LEVEL_0) && (rdplvl != OB_RDP_LEVEL_2))
  39              		.loc 1 791 3 is_stmt 1 view .LVU4
  40              		.loc 1 791 6 is_stmt 0 view .LVU5
  41 0008 AA28     		cmp	r0, #170
  42 000a 02D0     		beq	.L1
  43              		.loc 1 791 34 discriminator 1 view .LVU6
  44 000c CC28     		cmp	r0, #204
  45 000e 00D0     		beq	.L1
 792:Drivers/STM32G0xx_HAL_Driver/Src/stm32g0xx_hal_flash_ex.c ****   {
 793:Drivers/STM32G0xx_HAL_Driver/Src/stm32g0xx_hal_flash_ex.c ****     return (OB_RDP_LEVEL_1);
  46              		.loc 1 793 12 view .LVU7
  47 0010 BB20     		movs	r0, #187
  48              	.LVL1:
  49              	.L1:
 794:Drivers/STM32G0xx_HAL_Driver/Src/stm32g0xx_hal_flash_ex.c ****   }
 795:Drivers/STM32G0xx_HAL_Driver/Src/stm32g0xx_hal_flash_ex.c ****   else
 796:Drivers/STM32G0xx_HAL_Driver/Src/stm32g0xx_hal_flash_ex.c ****   {
 797:Drivers/STM32G0xx_HAL_Driver/Src/stm32g0xx_hal_flash_ex.c ****     return rdplvl;
 798:Drivers/STM32G0xx_HAL_Driver/Src/stm32g0xx_hal_flash_ex.c ****   }
 799:Drivers/STM32G0xx_HAL_Driver/Src/stm32g0xx_hal_flash_ex.c **** }
  50              		.loc 1 799 1 view .LVU8
  51              		@ sp needed
  52 0012 7047     		bx	lr
  53              	.L5:
  54              		.align	2
  55              	.L4:
  56 0014 00200240 		.word	1073881088
  57              		.cfi_endproc
ARM GAS  /tmp/ccXI1us5.s 			page 16


  58              	.LFE342:
  60              		.section	.text.FLASH_OB_GetUser,"ax",%progbits
  61              		.align	1
  62              		.syntax unified
  63              		.code	16
  64              		.thumb_func
  66              	FLASH_OB_GetUser:
  67              	.LFB343:
 800:Drivers/STM32G0xx_HAL_Driver/Src/stm32g0xx_hal_flash_ex.c **** 
 801:Drivers/STM32G0xx_HAL_Driver/Src/stm32g0xx_hal_flash_ex.c **** /**
 802:Drivers/STM32G0xx_HAL_Driver/Src/stm32g0xx_hal_flash_ex.c ****   * @brief  Return the FLASH User Option Byte value.
 803:Drivers/STM32G0xx_HAL_Driver/Src/stm32g0xx_hal_flash_ex.c ****   * @retval The FLASH User Option Bytes values. It will be a combination of all the following value
 804:Drivers/STM32G0xx_HAL_Driver/Src/stm32g0xx_hal_flash_ex.c ****   *           @arg @ref FLASH_OB_USER_BOR_ENABLE(*)
 805:Drivers/STM32G0xx_HAL_Driver/Src/stm32g0xx_hal_flash_ex.c ****   *           @arg @ref FLASH_OB_USER_BOR_LEVEL(*)
 806:Drivers/STM32G0xx_HAL_Driver/Src/stm32g0xx_hal_flash_ex.c ****   *           @arg @ref FLASH_OB_USER_RESET_CONFIG(*)
 807:Drivers/STM32G0xx_HAL_Driver/Src/stm32g0xx_hal_flash_ex.c ****   *           @arg @ref FLASH_OB_USER_nRST_STOP
 808:Drivers/STM32G0xx_HAL_Driver/Src/stm32g0xx_hal_flash_ex.c ****   *           @arg @ref FLASH_OB_USER_nRST_STANDBY
 809:Drivers/STM32G0xx_HAL_Driver/Src/stm32g0xx_hal_flash_ex.c ****   *           @arg @ref FLASH_OB_USER_nRST_SHUTDOWN(*)
 810:Drivers/STM32G0xx_HAL_Driver/Src/stm32g0xx_hal_flash_ex.c ****   *           @arg @ref FLASH_OB_USER_IWDG_SW
 811:Drivers/STM32G0xx_HAL_Driver/Src/stm32g0xx_hal_flash_ex.c ****   *           @arg @ref FLASH_OB_USER_IWDG_STOP
 812:Drivers/STM32G0xx_HAL_Driver/Src/stm32g0xx_hal_flash_ex.c ****   *           @arg @ref FLASH_OB_USER_IWDG_STANDBY
 813:Drivers/STM32G0xx_HAL_Driver/Src/stm32g0xx_hal_flash_ex.c ****   *           @arg @ref FLASH_OB_USER_WWDG_SW
 814:Drivers/STM32G0xx_HAL_Driver/Src/stm32g0xx_hal_flash_ex.c ****   *           @arg @ref FLASH_OB_USER_SRAM_PARITY
 815:Drivers/STM32G0xx_HAL_Driver/Src/stm32g0xx_hal_flash_ex.c ****   *           @arg @ref FLASH_OB_USER_BANK_SWAP(*)
 816:Drivers/STM32G0xx_HAL_Driver/Src/stm32g0xx_hal_flash_ex.c ****   *           @arg @ref FLASH_OB_USER_DUAL_BANK(*)
 817:Drivers/STM32G0xx_HAL_Driver/Src/stm32g0xx_hal_flash_ex.c ****   *           @arg @ref FLASH_OB_USER_nBOOT_SEL
 818:Drivers/STM32G0xx_HAL_Driver/Src/stm32g0xx_hal_flash_ex.c ****   *           @arg @ref FLASH_OB_USER_nBOOT1
 819:Drivers/STM32G0xx_HAL_Driver/Src/stm32g0xx_hal_flash_ex.c ****   *           @arg @ref FLASH_OB_USER_nBOOT0
 820:Drivers/STM32G0xx_HAL_Driver/Src/stm32g0xx_hal_flash_ex.c ****   *           @arg @ref FLASH_OB_USER_INPUT_RESET_HOLDER(*)
 821:Drivers/STM32G0xx_HAL_Driver/Src/stm32g0xx_hal_flash_ex.c ****   * @note  (*) availability depends on devices
 822:Drivers/STM32G0xx_HAL_Driver/Src/stm32g0xx_hal_flash_ex.c ****   */
 823:Drivers/STM32G0xx_HAL_Driver/Src/stm32g0xx_hal_flash_ex.c **** static uint32_t FLASH_OB_GetUser(void)
 824:Drivers/STM32G0xx_HAL_Driver/Src/stm32g0xx_hal_flash_ex.c **** {
  68              		.loc 1 824 1 is_stmt 1 view -0
  69              		.cfi_startproc
  70              		@ args = 0, pretend = 0, frame = 0
  71              		@ frame_needed = 0, uses_anonymous_args = 0
  72              		@ link register save eliminated.
 825:Drivers/STM32G0xx_HAL_Driver/Src/stm32g0xx_hal_flash_ex.c ****   uint32_t user = ((FLASH->OPTR & ~FLASH_OPTR_RDP) & OB_USER_ALL);
  73              		.loc 1 825 3 view .LVU10
  74              		.loc 1 825 26 is_stmt 0 view .LVU11
  75 0000 024B     		ldr	r3, .L7
  76 0002 186A     		ldr	r0, [r3, #32]
  77              		.loc 1 825 12 view .LVU12
  78 0004 024B     		ldr	r3, .L7+4
  79 0006 1840     		ands	r0, r3
  80              	.LVL2:
 826:Drivers/STM32G0xx_HAL_Driver/Src/stm32g0xx_hal_flash_ex.c ****   return user;
  81              		.loc 1 826 3 is_stmt 1 view .LVU13
 827:Drivers/STM32G0xx_HAL_Driver/Src/stm32g0xx_hal_flash_ex.c **** }
  82              		.loc 1 827 1 is_stmt 0 view .LVU14
  83              		@ sp needed
  84 0008 7047     		bx	lr
  85              	.L8:
  86 000a C046     		.align	2
  87              	.L7:
  88 000c 00200240 		.word	1073881088
ARM GAS  /tmp/ccXI1us5.s 			page 17


  89 0010 00FF4F3F 		.word	1062207232
  90              		.cfi_endproc
  91              	.LFE343:
  93              		.section	.text.FLASH_OB_GetPCROP1A,"ax",%progbits
  94              		.align	1
  95              		.syntax unified
  96              		.code	16
  97              		.thumb_func
  99              	FLASH_OB_GetPCROP1A:
 100              	.LVL3:
 101              	.LFB346:
 828:Drivers/STM32G0xx_HAL_Driver/Src/stm32g0xx_hal_flash_ex.c **** 
 829:Drivers/STM32G0xx_HAL_Driver/Src/stm32g0xx_hal_flash_ex.c **** #if defined(FLASH_PCROP_SUPPORT)
 830:Drivers/STM32G0xx_HAL_Driver/Src/stm32g0xx_hal_flash_ex.c **** /**
 831:Drivers/STM32G0xx_HAL_Driver/Src/stm32g0xx_hal_flash_ex.c ****   * @brief  Configure the 1A Proprietary code readout protection & erase configuration on RDP regre
 832:Drivers/STM32G0xx_HAL_Driver/Src/stm32g0xx_hal_flash_ex.c ****   * @note   It is recommended to align PCROP zone with page granularity when using PCROP_RDP or avo
 833:Drivers/STM32G0xx_HAL_Driver/Src/stm32g0xx_hal_flash_ex.c ****   *         having some executable code in a page where PCROP zone starts or ends.
 834:Drivers/STM32G0xx_HAL_Driver/Src/stm32g0xx_hal_flash_ex.c ****   * @note   Minimum PCROP area size is 2 times the chosen granularity: PCROPA_STRT and PCROPA_END.
 835:Drivers/STM32G0xx_HAL_Driver/Src/stm32g0xx_hal_flash_ex.c ****   *         So if the requirement is to be able to read-protect 1KB areas, the ROP granularity
 836:Drivers/STM32G0xx_HAL_Driver/Src/stm32g0xx_hal_flash_ex.c ****   *         has to be set to 512 Bytes
 837:Drivers/STM32G0xx_HAL_Driver/Src/stm32g0xx_hal_flash_ex.c ****   * @param  PCROPConfig  specifies the erase configuration (OB_PCROP_RDP_NOT_ERASE or OB_PCROP_RDP_
 838:Drivers/STM32G0xx_HAL_Driver/Src/stm32g0xx_hal_flash_ex.c ****   *         on RDP level 1 regression.
 839:Drivers/STM32G0xx_HAL_Driver/Src/stm32g0xx_hal_flash_ex.c ****   * @param  PCROP1AStartAddr Specifies the Zone 1A Start address of the Proprietary code readout pr
 840:Drivers/STM32G0xx_HAL_Driver/Src/stm32g0xx_hal_flash_ex.c ****   *          This parameter can be an address between begin and end of the flash
 841:Drivers/STM32G0xx_HAL_Driver/Src/stm32g0xx_hal_flash_ex.c ****   * @param  PCROP1AEndAddr Specifies the Zone 1A end address of the Proprietary code readout protec
 842:Drivers/STM32G0xx_HAL_Driver/Src/stm32g0xx_hal_flash_ex.c ****   *          This parameter can be an address between PCROP1AStartAddr and end of the flash
 843:Drivers/STM32G0xx_HAL_Driver/Src/stm32g0xx_hal_flash_ex.c ****   * @retval None
 844:Drivers/STM32G0xx_HAL_Driver/Src/stm32g0xx_hal_flash_ex.c ****   */
 845:Drivers/STM32G0xx_HAL_Driver/Src/stm32g0xx_hal_flash_ex.c **** static void FLASH_OB_PCROP1AConfig(uint32_t PCROPConfig, uint32_t PCROP1AStartAddr, uint32_t PCROP1
 846:Drivers/STM32G0xx_HAL_Driver/Src/stm32g0xx_hal_flash_ex.c **** {
 847:Drivers/STM32G0xx_HAL_Driver/Src/stm32g0xx_hal_flash_ex.c ****   uint32_t startoffset;
 848:Drivers/STM32G0xx_HAL_Driver/Src/stm32g0xx_hal_flash_ex.c ****   uint32_t endoffset;
 849:Drivers/STM32G0xx_HAL_Driver/Src/stm32g0xx_hal_flash_ex.c ****   uint32_t pcrop1aend;
 850:Drivers/STM32G0xx_HAL_Driver/Src/stm32g0xx_hal_flash_ex.c ****   uint32_t ropbase;
 851:Drivers/STM32G0xx_HAL_Driver/Src/stm32g0xx_hal_flash_ex.c **** 
 852:Drivers/STM32G0xx_HAL_Driver/Src/stm32g0xx_hal_flash_ex.c ****   /* Check the parameters */
 853:Drivers/STM32G0xx_HAL_Driver/Src/stm32g0xx_hal_flash_ex.c ****   assert_param(IS_OB_PCROP_CONFIG(PCROPConfig));
 854:Drivers/STM32G0xx_HAL_Driver/Src/stm32g0xx_hal_flash_ex.c **** 
 855:Drivers/STM32G0xx_HAL_Driver/Src/stm32g0xx_hal_flash_ex.c **** #if defined(FLASH_DBANK_SUPPORT)
 856:Drivers/STM32G0xx_HAL_Driver/Src/stm32g0xx_hal_flash_ex.c ****   /* Check if banks are swapped (valid if only one bank) */
 857:Drivers/STM32G0xx_HAL_Driver/Src/stm32g0xx_hal_flash_ex.c ****   if (((FLASH->OPTR & FLASH_OPTR_nSWAP_BANK) != FLASH_OPTR_nSWAP_BANK) && (FLASH_BANK_NB == 2U))
 858:Drivers/STM32G0xx_HAL_Driver/Src/stm32g0xx_hal_flash_ex.c ****   {
 859:Drivers/STM32G0xx_HAL_Driver/Src/stm32g0xx_hal_flash_ex.c ****     /* Check the parameters */
 860:Drivers/STM32G0xx_HAL_Driver/Src/stm32g0xx_hal_flash_ex.c ****     assert_param(IS_FLASH_MAIN_SECONDHALF_MEM_ADDRESS(PCROP1AStartAddr));
 861:Drivers/STM32G0xx_HAL_Driver/Src/stm32g0xx_hal_flash_ex.c ****     assert_param(IS_FLASH_MAIN_SECONDHALF_MEM_ADDRESS(PCROP1AEndAddr));
 862:Drivers/STM32G0xx_HAL_Driver/Src/stm32g0xx_hal_flash_ex.c **** 
 863:Drivers/STM32G0xx_HAL_Driver/Src/stm32g0xx_hal_flash_ex.c ****     /* Bank swap, bank 1 read only protection is on second half of Flash */
 864:Drivers/STM32G0xx_HAL_Driver/Src/stm32g0xx_hal_flash_ex.c ****     ropbase = (FLASH_BASE + FLASH_BANK_SIZE);
 865:Drivers/STM32G0xx_HAL_Driver/Src/stm32g0xx_hal_flash_ex.c ****   }
 866:Drivers/STM32G0xx_HAL_Driver/Src/stm32g0xx_hal_flash_ex.c ****   else
 867:Drivers/STM32G0xx_HAL_Driver/Src/stm32g0xx_hal_flash_ex.c **** #endif /* FLASH_DBANK_SUPPORT */
 868:Drivers/STM32G0xx_HAL_Driver/Src/stm32g0xx_hal_flash_ex.c ****   {
 869:Drivers/STM32G0xx_HAL_Driver/Src/stm32g0xx_hal_flash_ex.c ****     /* Check the parameters */
 870:Drivers/STM32G0xx_HAL_Driver/Src/stm32g0xx_hal_flash_ex.c ****     assert_param(IS_FLASH_MAIN_FIRSTHALF_MEM_ADDRESS(PCROP1AStartAddr));
 871:Drivers/STM32G0xx_HAL_Driver/Src/stm32g0xx_hal_flash_ex.c ****     assert_param(IS_FLASH_MAIN_FIRSTHALF_MEM_ADDRESS(PCROP1AEndAddr));
 872:Drivers/STM32G0xx_HAL_Driver/Src/stm32g0xx_hal_flash_ex.c **** 
 873:Drivers/STM32G0xx_HAL_Driver/Src/stm32g0xx_hal_flash_ex.c ****     /* No Bank swap, bank 1 read only protection is on first half of Flash */
ARM GAS  /tmp/ccXI1us5.s 			page 18


 874:Drivers/STM32G0xx_HAL_Driver/Src/stm32g0xx_hal_flash_ex.c ****     ropbase = FLASH_BASE;
 875:Drivers/STM32G0xx_HAL_Driver/Src/stm32g0xx_hal_flash_ex.c ****   }
 876:Drivers/STM32G0xx_HAL_Driver/Src/stm32g0xx_hal_flash_ex.c **** 
 877:Drivers/STM32G0xx_HAL_Driver/Src/stm32g0xx_hal_flash_ex.c ****   /* get pcrop 1A end register */
 878:Drivers/STM32G0xx_HAL_Driver/Src/stm32g0xx_hal_flash_ex.c ****   pcrop1aend = FLASH->PCROP1AER;
 879:Drivers/STM32G0xx_HAL_Driver/Src/stm32g0xx_hal_flash_ex.c **** 
 880:Drivers/STM32G0xx_HAL_Driver/Src/stm32g0xx_hal_flash_ex.c ****   /* Configure the Proprietary code readout protection offset */
 881:Drivers/STM32G0xx_HAL_Driver/Src/stm32g0xx_hal_flash_ex.c ****   if ((PCROPConfig & OB_PCROP_ZONE_A) != 0x00U)
 882:Drivers/STM32G0xx_HAL_Driver/Src/stm32g0xx_hal_flash_ex.c ****   {
 883:Drivers/STM32G0xx_HAL_Driver/Src/stm32g0xx_hal_flash_ex.c ****     /* Compute offset depending on pcrop granularity */
 884:Drivers/STM32G0xx_HAL_Driver/Src/stm32g0xx_hal_flash_ex.c ****     startoffset = ((PCROP1AStartAddr - ropbase) >> FLASH_PCROP_GRANULARITY_OFFSET);
 885:Drivers/STM32G0xx_HAL_Driver/Src/stm32g0xx_hal_flash_ex.c ****     endoffset = ((PCROP1AEndAddr - ropbase) >> FLASH_PCROP_GRANULARITY_OFFSET);
 886:Drivers/STM32G0xx_HAL_Driver/Src/stm32g0xx_hal_flash_ex.c **** 
 887:Drivers/STM32G0xx_HAL_Driver/Src/stm32g0xx_hal_flash_ex.c ****     /* Set Zone A start offset */
 888:Drivers/STM32G0xx_HAL_Driver/Src/stm32g0xx_hal_flash_ex.c ****     FLASH->PCROP1ASR = startoffset;
 889:Drivers/STM32G0xx_HAL_Driver/Src/stm32g0xx_hal_flash_ex.c **** 
 890:Drivers/STM32G0xx_HAL_Driver/Src/stm32g0xx_hal_flash_ex.c ****     /* Set Zone A end offset */
 891:Drivers/STM32G0xx_HAL_Driver/Src/stm32g0xx_hal_flash_ex.c ****     pcrop1aend &= ~FLASH_PCROP1AER_PCROP1A_END;
 892:Drivers/STM32G0xx_HAL_Driver/Src/stm32g0xx_hal_flash_ex.c ****     pcrop1aend |= endoffset;
 893:Drivers/STM32G0xx_HAL_Driver/Src/stm32g0xx_hal_flash_ex.c ****   }
 894:Drivers/STM32G0xx_HAL_Driver/Src/stm32g0xx_hal_flash_ex.c **** 
 895:Drivers/STM32G0xx_HAL_Driver/Src/stm32g0xx_hal_flash_ex.c ****   /* Set RDP erase protection if needed. This bit is only set & will be reset by mass erase */
 896:Drivers/STM32G0xx_HAL_Driver/Src/stm32g0xx_hal_flash_ex.c ****   if ((PCROPConfig & OB_PCROP_RDP_ERASE) != 0x00U)
 897:Drivers/STM32G0xx_HAL_Driver/Src/stm32g0xx_hal_flash_ex.c ****   {
 898:Drivers/STM32G0xx_HAL_Driver/Src/stm32g0xx_hal_flash_ex.c ****     pcrop1aend |= FLASH_PCROP1AER_PCROP_RDP;
 899:Drivers/STM32G0xx_HAL_Driver/Src/stm32g0xx_hal_flash_ex.c ****   }
 900:Drivers/STM32G0xx_HAL_Driver/Src/stm32g0xx_hal_flash_ex.c **** 
 901:Drivers/STM32G0xx_HAL_Driver/Src/stm32g0xx_hal_flash_ex.c ****   /* set 1A End register */
 902:Drivers/STM32G0xx_HAL_Driver/Src/stm32g0xx_hal_flash_ex.c ****   FLASH->PCROP1AER = pcrop1aend;
 903:Drivers/STM32G0xx_HAL_Driver/Src/stm32g0xx_hal_flash_ex.c **** }
 904:Drivers/STM32G0xx_HAL_Driver/Src/stm32g0xx_hal_flash_ex.c **** 
 905:Drivers/STM32G0xx_HAL_Driver/Src/stm32g0xx_hal_flash_ex.c **** /**
 906:Drivers/STM32G0xx_HAL_Driver/Src/stm32g0xx_hal_flash_ex.c ****   * @brief  Configure the 1B Proprietary code readout protection.
 907:Drivers/STM32G0xx_HAL_Driver/Src/stm32g0xx_hal_flash_ex.c ****   * @note   It is recommended to align PCROP zone with page granularity when using PCROP_RDP or avo
 908:Drivers/STM32G0xx_HAL_Driver/Src/stm32g0xx_hal_flash_ex.c ****   *         having some executable code in a page where PCROP zone starts or ends.
 909:Drivers/STM32G0xx_HAL_Driver/Src/stm32g0xx_hal_flash_ex.c ****   * @note   Minimum PCROP area size is 2 times the chosen granularity: PCROPB_STRT and PCROPB_END.
 910:Drivers/STM32G0xx_HAL_Driver/Src/stm32g0xx_hal_flash_ex.c ****   *         So if the requirement is to be able to read-protect 1KB areas, the ROP granularity
 911:Drivers/STM32G0xx_HAL_Driver/Src/stm32g0xx_hal_flash_ex.c ****   *         has to be set to 512 Bytes
 912:Drivers/STM32G0xx_HAL_Driver/Src/stm32g0xx_hal_flash_ex.c ****   * @param  PCROP1BStartAddr  Specifies the Zone 1B Start address of the Proprietary code readout p
 913:Drivers/STM32G0xx_HAL_Driver/Src/stm32g0xx_hal_flash_ex.c ****   *         This parameter can be an address between begin and end of the flash
 914:Drivers/STM32G0xx_HAL_Driver/Src/stm32g0xx_hal_flash_ex.c ****   * @param  PCROP1BEndAddr  Specifies the Zone 1B end address of the Proprietary code readout prote
 915:Drivers/STM32G0xx_HAL_Driver/Src/stm32g0xx_hal_flash_ex.c ****   *         This parameter can be an address between PCROP1BStartAddr and end of the flash
 916:Drivers/STM32G0xx_HAL_Driver/Src/stm32g0xx_hal_flash_ex.c ****   * @retval None
 917:Drivers/STM32G0xx_HAL_Driver/Src/stm32g0xx_hal_flash_ex.c ****   */
 918:Drivers/STM32G0xx_HAL_Driver/Src/stm32g0xx_hal_flash_ex.c **** static void FLASH_OB_PCROP1BConfig(uint32_t PCROP1BStartAddr, uint32_t PCROP1BEndAddr)
 919:Drivers/STM32G0xx_HAL_Driver/Src/stm32g0xx_hal_flash_ex.c **** {
 920:Drivers/STM32G0xx_HAL_Driver/Src/stm32g0xx_hal_flash_ex.c ****   uint32_t startoffset;
 921:Drivers/STM32G0xx_HAL_Driver/Src/stm32g0xx_hal_flash_ex.c ****   uint32_t endoffset;
 922:Drivers/STM32G0xx_HAL_Driver/Src/stm32g0xx_hal_flash_ex.c ****   uint32_t ropbase;
 923:Drivers/STM32G0xx_HAL_Driver/Src/stm32g0xx_hal_flash_ex.c **** 
 924:Drivers/STM32G0xx_HAL_Driver/Src/stm32g0xx_hal_flash_ex.c **** #if defined(FLASH_DBANK_SUPPORT)
 925:Drivers/STM32G0xx_HAL_Driver/Src/stm32g0xx_hal_flash_ex.c ****   /* Check if banks are swapped (valid if only one bank) */
 926:Drivers/STM32G0xx_HAL_Driver/Src/stm32g0xx_hal_flash_ex.c ****   if (((FLASH->OPTR & FLASH_OPTR_nSWAP_BANK) != FLASH_OPTR_nSWAP_BANK) && (FLASH_BANK_NB == 2U))
 927:Drivers/STM32G0xx_HAL_Driver/Src/stm32g0xx_hal_flash_ex.c ****   {
 928:Drivers/STM32G0xx_HAL_Driver/Src/stm32g0xx_hal_flash_ex.c ****     /* Check the parameters */
 929:Drivers/STM32G0xx_HAL_Driver/Src/stm32g0xx_hal_flash_ex.c ****     assert_param(IS_FLASH_MAIN_SECONDHALF_MEM_ADDRESS(PCROP1BStartAddr));
 930:Drivers/STM32G0xx_HAL_Driver/Src/stm32g0xx_hal_flash_ex.c ****     assert_param(IS_FLASH_MAIN_SECONDHALF_MEM_ADDRESS(PCROP1BEndAddr));
ARM GAS  /tmp/ccXI1us5.s 			page 19


 931:Drivers/STM32G0xx_HAL_Driver/Src/stm32g0xx_hal_flash_ex.c **** 
 932:Drivers/STM32G0xx_HAL_Driver/Src/stm32g0xx_hal_flash_ex.c ****     /* Bank swap, bank 1 read only protection is on second half of Flash */
 933:Drivers/STM32G0xx_HAL_Driver/Src/stm32g0xx_hal_flash_ex.c ****     ropbase = (FLASH_BASE + FLASH_BANK_SIZE);
 934:Drivers/STM32G0xx_HAL_Driver/Src/stm32g0xx_hal_flash_ex.c ****   }
 935:Drivers/STM32G0xx_HAL_Driver/Src/stm32g0xx_hal_flash_ex.c ****   else
 936:Drivers/STM32G0xx_HAL_Driver/Src/stm32g0xx_hal_flash_ex.c **** #endif /* FLASH_DBANK_SUPPORT */
 937:Drivers/STM32G0xx_HAL_Driver/Src/stm32g0xx_hal_flash_ex.c ****   {
 938:Drivers/STM32G0xx_HAL_Driver/Src/stm32g0xx_hal_flash_ex.c ****     /* Check the parameters */
 939:Drivers/STM32G0xx_HAL_Driver/Src/stm32g0xx_hal_flash_ex.c ****     assert_param(IS_FLASH_MAIN_FIRSTHALF_MEM_ADDRESS(PCROP1BStartAddr));
 940:Drivers/STM32G0xx_HAL_Driver/Src/stm32g0xx_hal_flash_ex.c ****     assert_param(IS_FLASH_MAIN_FIRSTHALF_MEM_ADDRESS(PCROP1BEndAddr));
 941:Drivers/STM32G0xx_HAL_Driver/Src/stm32g0xx_hal_flash_ex.c **** 
 942:Drivers/STM32G0xx_HAL_Driver/Src/stm32g0xx_hal_flash_ex.c ****     /* No Bank swap, bank 1 read only protection is on first half of Flash */
 943:Drivers/STM32G0xx_HAL_Driver/Src/stm32g0xx_hal_flash_ex.c ****     ropbase = FLASH_BASE;
 944:Drivers/STM32G0xx_HAL_Driver/Src/stm32g0xx_hal_flash_ex.c ****   }
 945:Drivers/STM32G0xx_HAL_Driver/Src/stm32g0xx_hal_flash_ex.c **** 
 946:Drivers/STM32G0xx_HAL_Driver/Src/stm32g0xx_hal_flash_ex.c ****   /* Configure the Proprietary code readout protection offset */
 947:Drivers/STM32G0xx_HAL_Driver/Src/stm32g0xx_hal_flash_ex.c ****   startoffset = ((PCROP1BStartAddr - ropbase) >> FLASH_PCROP_GRANULARITY_OFFSET);
 948:Drivers/STM32G0xx_HAL_Driver/Src/stm32g0xx_hal_flash_ex.c ****   endoffset = ((PCROP1BEndAddr - ropbase) >> FLASH_PCROP_GRANULARITY_OFFSET);
 949:Drivers/STM32G0xx_HAL_Driver/Src/stm32g0xx_hal_flash_ex.c **** 
 950:Drivers/STM32G0xx_HAL_Driver/Src/stm32g0xx_hal_flash_ex.c ****   /* Set Zone B start offset */
 951:Drivers/STM32G0xx_HAL_Driver/Src/stm32g0xx_hal_flash_ex.c ****   FLASH->PCROP1BSR = startoffset;
 952:Drivers/STM32G0xx_HAL_Driver/Src/stm32g0xx_hal_flash_ex.c ****   /* Set Zone B end offset */
 953:Drivers/STM32G0xx_HAL_Driver/Src/stm32g0xx_hal_flash_ex.c ****   FLASH->PCROP1BER = endoffset;
 954:Drivers/STM32G0xx_HAL_Driver/Src/stm32g0xx_hal_flash_ex.c **** }
 955:Drivers/STM32G0xx_HAL_Driver/Src/stm32g0xx_hal_flash_ex.c **** 
 956:Drivers/STM32G0xx_HAL_Driver/Src/stm32g0xx_hal_flash_ex.c **** /**
 957:Drivers/STM32G0xx_HAL_Driver/Src/stm32g0xx_hal_flash_ex.c ****   * @brief  Return the FLASH PCROP Protection Option Bytes value.
 958:Drivers/STM32G0xx_HAL_Driver/Src/stm32g0xx_hal_flash_ex.c ****   * @param  PCROPConfig [out]  specifies the configuration of PCROP_RDP option.
 959:Drivers/STM32G0xx_HAL_Driver/Src/stm32g0xx_hal_flash_ex.c ****   * @param  PCROP1AStartAddr [out]  Specifies the address where to copied the start address
 960:Drivers/STM32G0xx_HAL_Driver/Src/stm32g0xx_hal_flash_ex.c ****   *         of the 1A Proprietary code readout protection
 961:Drivers/STM32G0xx_HAL_Driver/Src/stm32g0xx_hal_flash_ex.c ****   * @param  PCROP1AEndAddr [out]  Specifies the address where to copied the end address of
 962:Drivers/STM32G0xx_HAL_Driver/Src/stm32g0xx_hal_flash_ex.c ****   *         the 1A Proprietary code readout protection
 963:Drivers/STM32G0xx_HAL_Driver/Src/stm32g0xx_hal_flash_ex.c ****   * @retval None
 964:Drivers/STM32G0xx_HAL_Driver/Src/stm32g0xx_hal_flash_ex.c ****   */
 965:Drivers/STM32G0xx_HAL_Driver/Src/stm32g0xx_hal_flash_ex.c **** static void FLASH_OB_GetPCROP1A(uint32_t *PCROPConfig, uint32_t *PCROP1AStartAddr, uint32_t *PCROP1
 966:Drivers/STM32G0xx_HAL_Driver/Src/stm32g0xx_hal_flash_ex.c **** {
 102              		.loc 1 966 1 is_stmt 1 view -0
 103              		.cfi_startproc
 104              		@ args = 0, pretend = 0, frame = 0
 105              		@ frame_needed = 0, uses_anonymous_args = 0
 106              		.loc 1 966 1 is_stmt 0 view .LVU16
 107 0000 70B5     		push	{r4, r5, r6, lr}
 108              	.LCFI0:
 109              		.cfi_def_cfa_offset 16
 110              		.cfi_offset 4, -16
 111              		.cfi_offset 5, -12
 112              		.cfi_offset 6, -8
 113              		.cfi_offset 14, -4
 967:Drivers/STM32G0xx_HAL_Driver/Src/stm32g0xx_hal_flash_ex.c ****   uint32_t pcrop;
 114              		.loc 1 967 3 is_stmt 1 view .LVU17
 968:Drivers/STM32G0xx_HAL_Driver/Src/stm32g0xx_hal_flash_ex.c ****   uint32_t ropbase;
 115              		.loc 1 968 3 view .LVU18
 969:Drivers/STM32G0xx_HAL_Driver/Src/stm32g0xx_hal_flash_ex.c **** 
 970:Drivers/STM32G0xx_HAL_Driver/Src/stm32g0xx_hal_flash_ex.c **** #if defined(FLASH_DBANK_SUPPORT)
 971:Drivers/STM32G0xx_HAL_Driver/Src/stm32g0xx_hal_flash_ex.c ****   /* Check if banks are swapped (valid if only one bank) */
 972:Drivers/STM32G0xx_HAL_Driver/Src/stm32g0xx_hal_flash_ex.c ****   if (((FLASH->OPTR & FLASH_OPTR_nSWAP_BANK) != FLASH_OPTR_nSWAP_BANK) && (FLASH_BANK_NB == 2U))
 973:Drivers/STM32G0xx_HAL_Driver/Src/stm32g0xx_hal_flash_ex.c ****   {
ARM GAS  /tmp/ccXI1us5.s 			page 20


 974:Drivers/STM32G0xx_HAL_Driver/Src/stm32g0xx_hal_flash_ex.c ****     /* Bank swap, bank 1 read only protection is on second half of Flash */
 975:Drivers/STM32G0xx_HAL_Driver/Src/stm32g0xx_hal_flash_ex.c ****     ropbase = (FLASH_BASE + FLASH_BANK_SIZE);
 976:Drivers/STM32G0xx_HAL_Driver/Src/stm32g0xx_hal_flash_ex.c ****   }
 977:Drivers/STM32G0xx_HAL_Driver/Src/stm32g0xx_hal_flash_ex.c ****   else
 978:Drivers/STM32G0xx_HAL_Driver/Src/stm32g0xx_hal_flash_ex.c **** #endif /* FLASH_DBANK_SUPPORT */
 979:Drivers/STM32G0xx_HAL_Driver/Src/stm32g0xx_hal_flash_ex.c ****   {
 980:Drivers/STM32G0xx_HAL_Driver/Src/stm32g0xx_hal_flash_ex.c ****     /* No Bank swap, bank 1 read only protection is on first half of Flash */
 981:Drivers/STM32G0xx_HAL_Driver/Src/stm32g0xx_hal_flash_ex.c ****     ropbase = FLASH_BASE;
 116              		.loc 1 981 5 view .LVU19
 117              	.LVL4:
 982:Drivers/STM32G0xx_HAL_Driver/Src/stm32g0xx_hal_flash_ex.c ****   }
 983:Drivers/STM32G0xx_HAL_Driver/Src/stm32g0xx_hal_flash_ex.c **** 
 984:Drivers/STM32G0xx_HAL_Driver/Src/stm32g0xx_hal_flash_ex.c ****   pcrop = (FLASH->PCROP1ASR & FLASH_PCROP1ASR_PCROP1A_STRT);
 118              		.loc 1 984 3 view .LVU20
 119              		.loc 1 984 17 is_stmt 0 view .LVU21
 120 0002 0E4D     		ldr	r5, .L10
 121 0004 6B6A     		ldr	r3, [r5, #36]
 122              	.LVL5:
 985:Drivers/STM32G0xx_HAL_Driver/Src/stm32g0xx_hal_flash_ex.c ****   *PCROP1AStartAddr = (pcrop << FLASH_PCROP_GRANULARITY_OFFSET);
 123              		.loc 1 985 3 is_stmt 1 view .LVU22
 124              		.loc 1 985 30 is_stmt 0 view .LVU23
 125 0006 5B02     		lsls	r3, r3, #9
 126              	.LVL6:
 127              		.loc 1 985 30 view .LVU24
 128 0008 FF24     		movs	r4, #255
 129 000a 6402     		lsls	r4, r4, #9
 130 000c 2340     		ands	r3, r4
 131              		.loc 1 985 21 view .LVU25
 132 000e 0B60     		str	r3, [r1]
 986:Drivers/STM32G0xx_HAL_Driver/Src/stm32g0xx_hal_flash_ex.c ****   *PCROP1AStartAddr += ropbase;
 133              		.loc 1 986 3 is_stmt 1 view .LVU26
 134              		.loc 1 986 21 is_stmt 0 view .LVU27
 135 0010 8026     		movs	r6, #128
 136 0012 3605     		lsls	r6, r6, #20
 137 0014 B446     		mov	ip, r6
 138 0016 6344     		add	r3, r3, ip
 139 0018 0B60     		str	r3, [r1]
 987:Drivers/STM32G0xx_HAL_Driver/Src/stm32g0xx_hal_flash_ex.c **** 
 988:Drivers/STM32G0xx_HAL_Driver/Src/stm32g0xx_hal_flash_ex.c ****   pcrop = FLASH->PCROP1AER;
 140              		.loc 1 988 3 is_stmt 1 view .LVU28
 141              		.loc 1 988 9 is_stmt 0 view .LVU29
 142 001a A96A     		ldr	r1, [r5, #40]
 143              	.LVL7:
 989:Drivers/STM32G0xx_HAL_Driver/Src/stm32g0xx_hal_flash_ex.c ****   *PCROP1AEndAddr = ((pcrop & FLASH_PCROP1AER_PCROP1A_END) << FLASH_PCROP_GRANULARITY_OFFSET);
 144              		.loc 1 989 3 is_stmt 1 view .LVU30
 145              		.loc 1 989 60 is_stmt 0 view .LVU31
 146 001c 4B02     		lsls	r3, r1, #9
 147 001e 2340     		ands	r3, r4
 148              		.loc 1 989 19 view .LVU32
 149 0020 1360     		str	r3, [r2]
 990:Drivers/STM32G0xx_HAL_Driver/Src/stm32g0xx_hal_flash_ex.c ****   *PCROP1AEndAddr += (ropbase + FLASH_PCROP_GRANULARITY - 1U);
 150              		.loc 1 990 3 is_stmt 1 view .LVU33
 151              		.loc 1 990 19 is_stmt 0 view .LVU34
 152 0022 074C     		ldr	r4, .L10+4
 153 0024 A446     		mov	ip, r4
 154 0026 6344     		add	r3, r3, ip
 155 0028 1360     		str	r3, [r2]
ARM GAS  /tmp/ccXI1us5.s 			page 21


 991:Drivers/STM32G0xx_HAL_Driver/Src/stm32g0xx_hal_flash_ex.c **** 
 992:Drivers/STM32G0xx_HAL_Driver/Src/stm32g0xx_hal_flash_ex.c ****   *PCROPConfig &= ~OB_PCROP_RDP_ERASE;
 156              		.loc 1 992 3 is_stmt 1 view .LVU35
 157              		.loc 1 992 16 is_stmt 0 view .LVU36
 158 002a 0368     		ldr	r3, [r0]
 159 002c 5B00     		lsls	r3, r3, #1
 160 002e 5B08     		lsrs	r3, r3, #1
 161 0030 0360     		str	r3, [r0]
 993:Drivers/STM32G0xx_HAL_Driver/Src/stm32g0xx_hal_flash_ex.c ****   *PCROPConfig |= (pcrop & FLASH_PCROP1AER_PCROP_RDP);
 162              		.loc 1 993 3 is_stmt 1 view .LVU37
 163              		.loc 1 993 26 is_stmt 0 view .LVU38
 164 0032 C90F     		lsrs	r1, r1, #31
 165              	.LVL8:
 166              		.loc 1 993 26 view .LVU39
 167 0034 C907     		lsls	r1, r1, #31
 168              		.loc 1 993 16 view .LVU40
 169 0036 0B43     		orrs	r3, r1
 170 0038 0360     		str	r3, [r0]
 994:Drivers/STM32G0xx_HAL_Driver/Src/stm32g0xx_hal_flash_ex.c **** }
 171              		.loc 1 994 1 view .LVU41
 172              		@ sp needed
 173 003a 70BD     		pop	{r4, r5, r6, pc}
 174              	.L11:
 175              		.align	2
 176              	.L10:
 177 003c 00200240 		.word	1073881088
 178 0040 FF010008 		.word	134218239
 179              		.cfi_endproc
 180              	.LFE346:
 182              		.section	.text.FLASH_OB_GetPCROP1B,"ax",%progbits
 183              		.align	1
 184              		.syntax unified
 185              		.code	16
 186              		.thumb_func
 188              	FLASH_OB_GetPCROP1B:
 189              	.LVL9:
 190              	.LFB347:
 995:Drivers/STM32G0xx_HAL_Driver/Src/stm32g0xx_hal_flash_ex.c **** 
 996:Drivers/STM32G0xx_HAL_Driver/Src/stm32g0xx_hal_flash_ex.c **** /**
 997:Drivers/STM32G0xx_HAL_Driver/Src/stm32g0xx_hal_flash_ex.c ****   * @brief  Return the FLASH PCROP Protection Option Bytes value.
 998:Drivers/STM32G0xx_HAL_Driver/Src/stm32g0xx_hal_flash_ex.c ****   * @param  PCROP1BStartAddr [out]  Specifies the address where to copied the start address
 999:Drivers/STM32G0xx_HAL_Driver/Src/stm32g0xx_hal_flash_ex.c ****   *         of the 1B Proprietary code readout protection
1000:Drivers/STM32G0xx_HAL_Driver/Src/stm32g0xx_hal_flash_ex.c ****   * @param  PCROP1BEndAddr [out]  Specifies the address where to copied the end address of
1001:Drivers/STM32G0xx_HAL_Driver/Src/stm32g0xx_hal_flash_ex.c ****   *         the 1B Proprietary code readout protection
1002:Drivers/STM32G0xx_HAL_Driver/Src/stm32g0xx_hal_flash_ex.c ****   * @retval None
1003:Drivers/STM32G0xx_HAL_Driver/Src/stm32g0xx_hal_flash_ex.c ****   */
1004:Drivers/STM32G0xx_HAL_Driver/Src/stm32g0xx_hal_flash_ex.c **** static void FLASH_OB_GetPCROP1B(uint32_t *PCROP1BStartAddr, uint32_t *PCROP1BEndAddr)
1005:Drivers/STM32G0xx_HAL_Driver/Src/stm32g0xx_hal_flash_ex.c **** {
 191              		.loc 1 1005 1 is_stmt 1 view -0
 192              		.cfi_startproc
 193              		@ args = 0, pretend = 0, frame = 0
 194              		@ frame_needed = 0, uses_anonymous_args = 0
 195              		.loc 1 1005 1 is_stmt 0 view .LVU43
 196 0000 30B5     		push	{r4, r5, lr}
 197              	.LCFI1:
 198              		.cfi_def_cfa_offset 12
 199              		.cfi_offset 4, -12
ARM GAS  /tmp/ccXI1us5.s 			page 22


 200              		.cfi_offset 5, -8
 201              		.cfi_offset 14, -4
1006:Drivers/STM32G0xx_HAL_Driver/Src/stm32g0xx_hal_flash_ex.c ****   uint32_t pcrop;
 202              		.loc 1 1006 3 is_stmt 1 view .LVU44
1007:Drivers/STM32G0xx_HAL_Driver/Src/stm32g0xx_hal_flash_ex.c ****   uint32_t ropbase;
 203              		.loc 1 1007 3 view .LVU45
1008:Drivers/STM32G0xx_HAL_Driver/Src/stm32g0xx_hal_flash_ex.c **** 
1009:Drivers/STM32G0xx_HAL_Driver/Src/stm32g0xx_hal_flash_ex.c **** #if defined(FLASH_DBANK_SUPPORT)
1010:Drivers/STM32G0xx_HAL_Driver/Src/stm32g0xx_hal_flash_ex.c ****   /* Check if banks are swapped (valid if only one bank) */
1011:Drivers/STM32G0xx_HAL_Driver/Src/stm32g0xx_hal_flash_ex.c ****   if (((FLASH->OPTR & FLASH_OPTR_nSWAP_BANK) != FLASH_OPTR_nSWAP_BANK) && (FLASH_BANK_NB == 2U))
1012:Drivers/STM32G0xx_HAL_Driver/Src/stm32g0xx_hal_flash_ex.c ****   {
1013:Drivers/STM32G0xx_HAL_Driver/Src/stm32g0xx_hal_flash_ex.c ****     /* Bank swap, bank 1 read only protection is on second half of Flash */
1014:Drivers/STM32G0xx_HAL_Driver/Src/stm32g0xx_hal_flash_ex.c ****     ropbase = (FLASH_BASE + FLASH_BANK_SIZE);
1015:Drivers/STM32G0xx_HAL_Driver/Src/stm32g0xx_hal_flash_ex.c ****   }
1016:Drivers/STM32G0xx_HAL_Driver/Src/stm32g0xx_hal_flash_ex.c ****   else
1017:Drivers/STM32G0xx_HAL_Driver/Src/stm32g0xx_hal_flash_ex.c **** #endif /* FLASH_DBANK_SUPPORT */
1018:Drivers/STM32G0xx_HAL_Driver/Src/stm32g0xx_hal_flash_ex.c ****   {
1019:Drivers/STM32G0xx_HAL_Driver/Src/stm32g0xx_hal_flash_ex.c ****     /* No Bank swap, bank 1 read only protection is on first half of Flash */
1020:Drivers/STM32G0xx_HAL_Driver/Src/stm32g0xx_hal_flash_ex.c ****     ropbase = FLASH_BASE;
 204              		.loc 1 1020 5 view .LVU46
 205              	.LVL10:
1021:Drivers/STM32G0xx_HAL_Driver/Src/stm32g0xx_hal_flash_ex.c ****   }
1022:Drivers/STM32G0xx_HAL_Driver/Src/stm32g0xx_hal_flash_ex.c **** 
1023:Drivers/STM32G0xx_HAL_Driver/Src/stm32g0xx_hal_flash_ex.c ****   pcrop = (FLASH->PCROP1BSR & FLASH_PCROP1BSR_PCROP1B_STRT);
 206              		.loc 1 1023 3 view .LVU47
 207              		.loc 1 1023 17 is_stmt 0 view .LVU48
 208 0002 0A4B     		ldr	r3, .L13
 209 0004 5A6B     		ldr	r2, [r3, #52]
 210              	.LVL11:
1024:Drivers/STM32G0xx_HAL_Driver/Src/stm32g0xx_hal_flash_ex.c ****   *PCROP1BStartAddr = (pcrop << FLASH_PCROP_GRANULARITY_OFFSET);
 211              		.loc 1 1024 3 is_stmt 1 view .LVU49
 212              		.loc 1 1024 30 is_stmt 0 view .LVU50
 213 0006 5202     		lsls	r2, r2, #9
 214              	.LVL12:
 215              		.loc 1 1024 30 view .LVU51
 216 0008 FF24     		movs	r4, #255
 217 000a 6402     		lsls	r4, r4, #9
 218 000c 2240     		ands	r2, r4
 219              		.loc 1 1024 21 view .LVU52
 220 000e 0260     		str	r2, [r0]
1025:Drivers/STM32G0xx_HAL_Driver/Src/stm32g0xx_hal_flash_ex.c ****   *PCROP1BStartAddr += ropbase;
 221              		.loc 1 1025 3 is_stmt 1 view .LVU53
 222              		.loc 1 1025 21 is_stmt 0 view .LVU54
 223 0010 8025     		movs	r5, #128
 224 0012 2D05     		lsls	r5, r5, #20
 225 0014 AC46     		mov	ip, r5
 226 0016 6244     		add	r2, r2, ip
 227 0018 0260     		str	r2, [r0]
1026:Drivers/STM32G0xx_HAL_Driver/Src/stm32g0xx_hal_flash_ex.c **** 
1027:Drivers/STM32G0xx_HAL_Driver/Src/stm32g0xx_hal_flash_ex.c ****   pcrop = (FLASH->PCROP1BER & FLASH_PCROP1BER_PCROP1B_END);
 228              		.loc 1 1027 3 is_stmt 1 view .LVU55
 229              		.loc 1 1027 17 is_stmt 0 view .LVU56
 230 001a 9B6B     		ldr	r3, [r3, #56]
 231              	.LVL13:
1028:Drivers/STM32G0xx_HAL_Driver/Src/stm32g0xx_hal_flash_ex.c ****   *PCROP1BEndAddr = (pcrop << FLASH_PCROP_GRANULARITY_OFFSET);
 232              		.loc 1 1028 3 is_stmt 1 view .LVU57
 233              		.loc 1 1028 28 is_stmt 0 view .LVU58
ARM GAS  /tmp/ccXI1us5.s 			page 23


 234 001c 5B02     		lsls	r3, r3, #9
 235              	.LVL14:
 236              		.loc 1 1028 28 view .LVU59
 237 001e 2340     		ands	r3, r4
 238              		.loc 1 1028 19 view .LVU60
 239 0020 0B60     		str	r3, [r1]
1029:Drivers/STM32G0xx_HAL_Driver/Src/stm32g0xx_hal_flash_ex.c ****   *PCROP1BEndAddr += (ropbase + FLASH_PCROP_GRANULARITY - 1U);
 240              		.loc 1 1029 3 is_stmt 1 view .LVU61
 241              		.loc 1 1029 19 is_stmt 0 view .LVU62
 242 0022 034A     		ldr	r2, .L13+4
 243 0024 9446     		mov	ip, r2
 244 0026 6344     		add	r3, r3, ip
 245 0028 0B60     		str	r3, [r1]
1030:Drivers/STM32G0xx_HAL_Driver/Src/stm32g0xx_hal_flash_ex.c **** }
 246              		.loc 1 1030 1 view .LVU63
 247              		@ sp needed
 248 002a 30BD     		pop	{r4, r5, pc}
 249              	.L14:
 250              		.align	2
 251              	.L13:
 252 002c 00200240 		.word	1073881088
 253 0030 FF010008 		.word	134218239
 254              		.cfi_endproc
 255              	.LFE347:
 257              		.section	.text.FLASH_OB_GetSecMem,"ax",%progbits
 258              		.align	1
 259              		.syntax unified
 260              		.code	16
 261              		.thumb_func
 263              	FLASH_OB_GetSecMem:
 264              	.LVL15:
 265              	.LFB349:
1031:Drivers/STM32G0xx_HAL_Driver/Src/stm32g0xx_hal_flash_ex.c **** 
1032:Drivers/STM32G0xx_HAL_Driver/Src/stm32g0xx_hal_flash_ex.c **** #if defined(FLASH_DBANK_SUPPORT)
1033:Drivers/STM32G0xx_HAL_Driver/Src/stm32g0xx_hal_flash_ex.c **** /**
1034:Drivers/STM32G0xx_HAL_Driver/Src/stm32g0xx_hal_flash_ex.c ****   * @brief  Configure the 2A Proprietary code readout protection.
1035:Drivers/STM32G0xx_HAL_Driver/Src/stm32g0xx_hal_flash_ex.c ****   * @note   It is recommended to align PCROP zone with page granularity when using PCROP_RDP or avo
1036:Drivers/STM32G0xx_HAL_Driver/Src/stm32g0xx_hal_flash_ex.c ****   *         having some executable code in a page where PCROP zone starts or ends.
1037:Drivers/STM32G0xx_HAL_Driver/Src/stm32g0xx_hal_flash_ex.c ****   * @note   Minimum PCROP area size is 2 times the chosen granularity: PCROPA_STRT and PCROPA_END.
1038:Drivers/STM32G0xx_HAL_Driver/Src/stm32g0xx_hal_flash_ex.c ****   *         So if the requirement is to be able to read-protect 1KB areas, the ROP granularity
1039:Drivers/STM32G0xx_HAL_Driver/Src/stm32g0xx_hal_flash_ex.c ****   *         has to be set to 512 Bytes
1040:Drivers/STM32G0xx_HAL_Driver/Src/stm32g0xx_hal_flash_ex.c ****   * @param  PCROP2AStartAddr  Specifies the Zone 2A Start address of the Proprietary code readout p
1041:Drivers/STM32G0xx_HAL_Driver/Src/stm32g0xx_hal_flash_ex.c ****   *         This parameter can be an address between begin and end of the flash
1042:Drivers/STM32G0xx_HAL_Driver/Src/stm32g0xx_hal_flash_ex.c ****   * @param  PCROP2AEndAddr  Specifies the Zone 2A end address of the Proprietary code readout prote
1043:Drivers/STM32G0xx_HAL_Driver/Src/stm32g0xx_hal_flash_ex.c ****   *         This parameter can be an address between PCROP2AStartAddr and end of the flash
1044:Drivers/STM32G0xx_HAL_Driver/Src/stm32g0xx_hal_flash_ex.c ****   * @retval None
1045:Drivers/STM32G0xx_HAL_Driver/Src/stm32g0xx_hal_flash_ex.c ****   */
1046:Drivers/STM32G0xx_HAL_Driver/Src/stm32g0xx_hal_flash_ex.c **** static void FLASH_OB_PCROP2AConfig(uint32_t PCROP2AStartAddr, uint32_t PCROP2AEndAddr)
1047:Drivers/STM32G0xx_HAL_Driver/Src/stm32g0xx_hal_flash_ex.c **** {
1048:Drivers/STM32G0xx_HAL_Driver/Src/stm32g0xx_hal_flash_ex.c ****   uint32_t startoffset;
1049:Drivers/STM32G0xx_HAL_Driver/Src/stm32g0xx_hal_flash_ex.c ****   uint32_t endoffset;
1050:Drivers/STM32G0xx_HAL_Driver/Src/stm32g0xx_hal_flash_ex.c ****   uint32_t ropbase;
1051:Drivers/STM32G0xx_HAL_Driver/Src/stm32g0xx_hal_flash_ex.c **** 
1052:Drivers/STM32G0xx_HAL_Driver/Src/stm32g0xx_hal_flash_ex.c ****   /* Check if banks are swapped */
1053:Drivers/STM32G0xx_HAL_Driver/Src/stm32g0xx_hal_flash_ex.c ****   if ((FLASH->OPTR & FLASH_OPTR_nSWAP_BANK) != 0x00u)
1054:Drivers/STM32G0xx_HAL_Driver/Src/stm32g0xx_hal_flash_ex.c ****   {
1055:Drivers/STM32G0xx_HAL_Driver/Src/stm32g0xx_hal_flash_ex.c ****     /* Check the parameters */
ARM GAS  /tmp/ccXI1us5.s 			page 24


1056:Drivers/STM32G0xx_HAL_Driver/Src/stm32g0xx_hal_flash_ex.c ****     assert_param(IS_FLASH_MAIN_SECONDHALF_MEM_ADDRESS(PCROP2AStartAddr));
1057:Drivers/STM32G0xx_HAL_Driver/Src/stm32g0xx_hal_flash_ex.c ****     assert_param(IS_FLASH_MAIN_SECONDHALF_MEM_ADDRESS(PCROP2AEndAddr));
1058:Drivers/STM32G0xx_HAL_Driver/Src/stm32g0xx_hal_flash_ex.c **** 
1059:Drivers/STM32G0xx_HAL_Driver/Src/stm32g0xx_hal_flash_ex.c ****     /* No Bank swap, bank 2 read only protection is on second half of Flash */
1060:Drivers/STM32G0xx_HAL_Driver/Src/stm32g0xx_hal_flash_ex.c ****     ropbase = (FLASH_BASE + FLASH_BANK_SIZE);
1061:Drivers/STM32G0xx_HAL_Driver/Src/stm32g0xx_hal_flash_ex.c ****   }
1062:Drivers/STM32G0xx_HAL_Driver/Src/stm32g0xx_hal_flash_ex.c ****   else
1063:Drivers/STM32G0xx_HAL_Driver/Src/stm32g0xx_hal_flash_ex.c ****   {
1064:Drivers/STM32G0xx_HAL_Driver/Src/stm32g0xx_hal_flash_ex.c ****     /* Check the parameters */
1065:Drivers/STM32G0xx_HAL_Driver/Src/stm32g0xx_hal_flash_ex.c ****     assert_param(IS_FLASH_MAIN_FIRSTHALF_MEM_ADDRESS(PCROP2AStartAddr));
1066:Drivers/STM32G0xx_HAL_Driver/Src/stm32g0xx_hal_flash_ex.c ****     assert_param(IS_FLASH_MAIN_FIRSTHALF_MEM_ADDRESS(PCROP2AEndAddr));
1067:Drivers/STM32G0xx_HAL_Driver/Src/stm32g0xx_hal_flash_ex.c **** 
1068:Drivers/STM32G0xx_HAL_Driver/Src/stm32g0xx_hal_flash_ex.c ****     /* Bank swap, bank 2 read only protection is on first half of Flash */
1069:Drivers/STM32G0xx_HAL_Driver/Src/stm32g0xx_hal_flash_ex.c ****     ropbase = FLASH_BASE;
1070:Drivers/STM32G0xx_HAL_Driver/Src/stm32g0xx_hal_flash_ex.c ****   }
1071:Drivers/STM32G0xx_HAL_Driver/Src/stm32g0xx_hal_flash_ex.c **** 
1072:Drivers/STM32G0xx_HAL_Driver/Src/stm32g0xx_hal_flash_ex.c ****   /* Configure the Proprietary code readout protection offset */
1073:Drivers/STM32G0xx_HAL_Driver/Src/stm32g0xx_hal_flash_ex.c ****   startoffset = ((PCROP2AStartAddr - ropbase) >> FLASH_PCROP_GRANULARITY_OFFSET);
1074:Drivers/STM32G0xx_HAL_Driver/Src/stm32g0xx_hal_flash_ex.c ****   endoffset = ((PCROP2AEndAddr - ropbase) >> FLASH_PCROP_GRANULARITY_OFFSET);
1075:Drivers/STM32G0xx_HAL_Driver/Src/stm32g0xx_hal_flash_ex.c **** 
1076:Drivers/STM32G0xx_HAL_Driver/Src/stm32g0xx_hal_flash_ex.c ****   /* Set Zone A start offset */
1077:Drivers/STM32G0xx_HAL_Driver/Src/stm32g0xx_hal_flash_ex.c ****   FLASH->PCROP2ASR = startoffset;
1078:Drivers/STM32G0xx_HAL_Driver/Src/stm32g0xx_hal_flash_ex.c ****   /* Set Zone A end offset */
1079:Drivers/STM32G0xx_HAL_Driver/Src/stm32g0xx_hal_flash_ex.c ****   FLASH->PCROP2AER = endoffset;
1080:Drivers/STM32G0xx_HAL_Driver/Src/stm32g0xx_hal_flash_ex.c **** }
1081:Drivers/STM32G0xx_HAL_Driver/Src/stm32g0xx_hal_flash_ex.c **** 
1082:Drivers/STM32G0xx_HAL_Driver/Src/stm32g0xx_hal_flash_ex.c **** /**
1083:Drivers/STM32G0xx_HAL_Driver/Src/stm32g0xx_hal_flash_ex.c ****   * @brief  Configure the 2B Proprietary code readout protection.
1084:Drivers/STM32G0xx_HAL_Driver/Src/stm32g0xx_hal_flash_ex.c ****   * @note   It is recommended to align PCROP zone with page granularity when using PCROP_RDP or avo
1085:Drivers/STM32G0xx_HAL_Driver/Src/stm32g0xx_hal_flash_ex.c ****   *         having some executable code in a page where PCROP zone starts or ends.
1086:Drivers/STM32G0xx_HAL_Driver/Src/stm32g0xx_hal_flash_ex.c ****   * @note   Minimum PCROP area size is 2 times the chosen granularity: PCROP_STRT and PCROP_END.
1087:Drivers/STM32G0xx_HAL_Driver/Src/stm32g0xx_hal_flash_ex.c ****   *         So if the requirement is to be able to read-protect 1KB areas, the ROP granularity
1088:Drivers/STM32G0xx_HAL_Driver/Src/stm32g0xx_hal_flash_ex.c ****   *         has to be set to 512 Bytes
1089:Drivers/STM32G0xx_HAL_Driver/Src/stm32g0xx_hal_flash_ex.c ****   * @param  PCROP2BStartAddr  Specifies the Zone 2B Start address of the Proprietary code readout p
1090:Drivers/STM32G0xx_HAL_Driver/Src/stm32g0xx_hal_flash_ex.c ****   *         This parameter can be an address between begin and end of the flash
1091:Drivers/STM32G0xx_HAL_Driver/Src/stm32g0xx_hal_flash_ex.c ****   * @param  PCROP2BEndAddr  Specifies the Zone 2B end address of the Proprietary code readout prote
1092:Drivers/STM32G0xx_HAL_Driver/Src/stm32g0xx_hal_flash_ex.c ****   *         This parameter can be an address between PCROP2BStartAddr and end of the flash
1093:Drivers/STM32G0xx_HAL_Driver/Src/stm32g0xx_hal_flash_ex.c ****   * @retval None
1094:Drivers/STM32G0xx_HAL_Driver/Src/stm32g0xx_hal_flash_ex.c ****   */
1095:Drivers/STM32G0xx_HAL_Driver/Src/stm32g0xx_hal_flash_ex.c **** static void FLASH_OB_PCROP2BConfig(uint32_t PCROP2BStartAddr, uint32_t PCROP2BEndAddr)
1096:Drivers/STM32G0xx_HAL_Driver/Src/stm32g0xx_hal_flash_ex.c **** {
1097:Drivers/STM32G0xx_HAL_Driver/Src/stm32g0xx_hal_flash_ex.c ****   uint32_t startoffset;
1098:Drivers/STM32G0xx_HAL_Driver/Src/stm32g0xx_hal_flash_ex.c ****   uint32_t endoffset;
1099:Drivers/STM32G0xx_HAL_Driver/Src/stm32g0xx_hal_flash_ex.c ****   uint32_t ropbase;
1100:Drivers/STM32G0xx_HAL_Driver/Src/stm32g0xx_hal_flash_ex.c **** 
1101:Drivers/STM32G0xx_HAL_Driver/Src/stm32g0xx_hal_flash_ex.c ****   /* Check if banks are swapped */
1102:Drivers/STM32G0xx_HAL_Driver/Src/stm32g0xx_hal_flash_ex.c ****   if ((FLASH->OPTR & FLASH_OPTR_nSWAP_BANK) != 0x00u)
1103:Drivers/STM32G0xx_HAL_Driver/Src/stm32g0xx_hal_flash_ex.c ****   {
1104:Drivers/STM32G0xx_HAL_Driver/Src/stm32g0xx_hal_flash_ex.c ****     /* Check the parameters */
1105:Drivers/STM32G0xx_HAL_Driver/Src/stm32g0xx_hal_flash_ex.c ****     assert_param(IS_FLASH_MAIN_SECONDHALF_MEM_ADDRESS(PCROP2BStartAddr));
1106:Drivers/STM32G0xx_HAL_Driver/Src/stm32g0xx_hal_flash_ex.c ****     assert_param(IS_FLASH_MAIN_SECONDHALF_MEM_ADDRESS(PCROP2BEndAddr));
1107:Drivers/STM32G0xx_HAL_Driver/Src/stm32g0xx_hal_flash_ex.c **** 
1108:Drivers/STM32G0xx_HAL_Driver/Src/stm32g0xx_hal_flash_ex.c ****     /* No Bank swap, bank 2 read only protection is on second half of Flash */
1109:Drivers/STM32G0xx_HAL_Driver/Src/stm32g0xx_hal_flash_ex.c ****     ropbase = (FLASH_BASE + FLASH_BANK_SIZE);
1110:Drivers/STM32G0xx_HAL_Driver/Src/stm32g0xx_hal_flash_ex.c ****   }
1111:Drivers/STM32G0xx_HAL_Driver/Src/stm32g0xx_hal_flash_ex.c ****   else
1112:Drivers/STM32G0xx_HAL_Driver/Src/stm32g0xx_hal_flash_ex.c ****   {
ARM GAS  /tmp/ccXI1us5.s 			page 25


1113:Drivers/STM32G0xx_HAL_Driver/Src/stm32g0xx_hal_flash_ex.c ****     /* Check the parameters */
1114:Drivers/STM32G0xx_HAL_Driver/Src/stm32g0xx_hal_flash_ex.c ****     assert_param(IS_FLASH_MAIN_FIRSTHALF_MEM_ADDRESS(PCROP2BStartAddr));
1115:Drivers/STM32G0xx_HAL_Driver/Src/stm32g0xx_hal_flash_ex.c ****     assert_param(IS_FLASH_MAIN_FIRSTHALF_MEM_ADDRESS(PCROP2BEndAddr));
1116:Drivers/STM32G0xx_HAL_Driver/Src/stm32g0xx_hal_flash_ex.c **** 
1117:Drivers/STM32G0xx_HAL_Driver/Src/stm32g0xx_hal_flash_ex.c ****     /* Bank swap, bank 2 read only protection is on first half of Flash */
1118:Drivers/STM32G0xx_HAL_Driver/Src/stm32g0xx_hal_flash_ex.c ****     ropbase = FLASH_BASE;
1119:Drivers/STM32G0xx_HAL_Driver/Src/stm32g0xx_hal_flash_ex.c ****   }
1120:Drivers/STM32G0xx_HAL_Driver/Src/stm32g0xx_hal_flash_ex.c **** 
1121:Drivers/STM32G0xx_HAL_Driver/Src/stm32g0xx_hal_flash_ex.c ****   /* Configure the Proprietary code readout protection offset */
1122:Drivers/STM32G0xx_HAL_Driver/Src/stm32g0xx_hal_flash_ex.c ****   startoffset = ((PCROP2BStartAddr - ropbase) >> FLASH_PCROP_GRANULARITY_OFFSET);
1123:Drivers/STM32G0xx_HAL_Driver/Src/stm32g0xx_hal_flash_ex.c ****   endoffset = ((PCROP2BEndAddr - ropbase) >> FLASH_PCROP_GRANULARITY_OFFSET);
1124:Drivers/STM32G0xx_HAL_Driver/Src/stm32g0xx_hal_flash_ex.c **** 
1125:Drivers/STM32G0xx_HAL_Driver/Src/stm32g0xx_hal_flash_ex.c ****   /* Set Zone B start offset */
1126:Drivers/STM32G0xx_HAL_Driver/Src/stm32g0xx_hal_flash_ex.c ****   FLASH->PCROP2BSR = startoffset;
1127:Drivers/STM32G0xx_HAL_Driver/Src/stm32g0xx_hal_flash_ex.c ****   /* Set Zone B end offset */
1128:Drivers/STM32G0xx_HAL_Driver/Src/stm32g0xx_hal_flash_ex.c ****   FLASH->PCROP2BER = endoffset;
1129:Drivers/STM32G0xx_HAL_Driver/Src/stm32g0xx_hal_flash_ex.c **** }
1130:Drivers/STM32G0xx_HAL_Driver/Src/stm32g0xx_hal_flash_ex.c **** 
1131:Drivers/STM32G0xx_HAL_Driver/Src/stm32g0xx_hal_flash_ex.c **** /**
1132:Drivers/STM32G0xx_HAL_Driver/Src/stm32g0xx_hal_flash_ex.c ****   * @brief  Return the FLASH PCROP Protection Option Bytes value.
1133:Drivers/STM32G0xx_HAL_Driver/Src/stm32g0xx_hal_flash_ex.c ****   * @param  PCROP2AStartAddr [out]  Specifies the address where to copied the start address
1134:Drivers/STM32G0xx_HAL_Driver/Src/stm32g0xx_hal_flash_ex.c ****   *         of the 2A Proprietary code readout protection
1135:Drivers/STM32G0xx_HAL_Driver/Src/stm32g0xx_hal_flash_ex.c ****   * @param  PCROP2AEndAddr [out]  Specifies the address where to copied the end address of
1136:Drivers/STM32G0xx_HAL_Driver/Src/stm32g0xx_hal_flash_ex.c ****   *         the 2A Proprietary code readout protection
1137:Drivers/STM32G0xx_HAL_Driver/Src/stm32g0xx_hal_flash_ex.c ****   * @retval None
1138:Drivers/STM32G0xx_HAL_Driver/Src/stm32g0xx_hal_flash_ex.c ****   */
1139:Drivers/STM32G0xx_HAL_Driver/Src/stm32g0xx_hal_flash_ex.c **** static void FLASH_OB_GetPCROP2A(uint32_t *PCROP2AStartAddr, uint32_t *PCROP2AEndAddr)
1140:Drivers/STM32G0xx_HAL_Driver/Src/stm32g0xx_hal_flash_ex.c **** {
1141:Drivers/STM32G0xx_HAL_Driver/Src/stm32g0xx_hal_flash_ex.c ****   uint32_t pcrop;
1142:Drivers/STM32G0xx_HAL_Driver/Src/stm32g0xx_hal_flash_ex.c ****   uint32_t ropbase;
1143:Drivers/STM32G0xx_HAL_Driver/Src/stm32g0xx_hal_flash_ex.c **** 
1144:Drivers/STM32G0xx_HAL_Driver/Src/stm32g0xx_hal_flash_ex.c ****   /* Check if banks are swapped */
1145:Drivers/STM32G0xx_HAL_Driver/Src/stm32g0xx_hal_flash_ex.c ****   if ((FLASH->OPTR & FLASH_OPTR_nSWAP_BANK) != 0x00u)
1146:Drivers/STM32G0xx_HAL_Driver/Src/stm32g0xx_hal_flash_ex.c ****   {
1147:Drivers/STM32G0xx_HAL_Driver/Src/stm32g0xx_hal_flash_ex.c ****     /* No Bank swap, bank 2 read only protection is on second half of Flash */
1148:Drivers/STM32G0xx_HAL_Driver/Src/stm32g0xx_hal_flash_ex.c ****     ropbase = (FLASH_BASE + FLASH_BANK_SIZE);
1149:Drivers/STM32G0xx_HAL_Driver/Src/stm32g0xx_hal_flash_ex.c ****   }
1150:Drivers/STM32G0xx_HAL_Driver/Src/stm32g0xx_hal_flash_ex.c ****   else
1151:Drivers/STM32G0xx_HAL_Driver/Src/stm32g0xx_hal_flash_ex.c ****   {
1152:Drivers/STM32G0xx_HAL_Driver/Src/stm32g0xx_hal_flash_ex.c ****     /* Bank swap, bank 2 read only protection is on first half of Flash */
1153:Drivers/STM32G0xx_HAL_Driver/Src/stm32g0xx_hal_flash_ex.c ****     ropbase = FLASH_BASE;
1154:Drivers/STM32G0xx_HAL_Driver/Src/stm32g0xx_hal_flash_ex.c ****   }
1155:Drivers/STM32G0xx_HAL_Driver/Src/stm32g0xx_hal_flash_ex.c **** 
1156:Drivers/STM32G0xx_HAL_Driver/Src/stm32g0xx_hal_flash_ex.c ****   pcrop = (FLASH->PCROP2ASR & FLASH_PCROP2ASR_PCROP2A_STRT);
1157:Drivers/STM32G0xx_HAL_Driver/Src/stm32g0xx_hal_flash_ex.c ****   *PCROP2AStartAddr = (pcrop << FLASH_PCROP_GRANULARITY_OFFSET);
1158:Drivers/STM32G0xx_HAL_Driver/Src/stm32g0xx_hal_flash_ex.c ****   *PCROP2AStartAddr += ropbase;
1159:Drivers/STM32G0xx_HAL_Driver/Src/stm32g0xx_hal_flash_ex.c **** 
1160:Drivers/STM32G0xx_HAL_Driver/Src/stm32g0xx_hal_flash_ex.c ****   pcrop = (FLASH->PCROP2AER & FLASH_PCROP2AER_PCROP2A_END);
1161:Drivers/STM32G0xx_HAL_Driver/Src/stm32g0xx_hal_flash_ex.c ****   *PCROP2AEndAddr = (pcrop << FLASH_PCROP_GRANULARITY_OFFSET);
1162:Drivers/STM32G0xx_HAL_Driver/Src/stm32g0xx_hal_flash_ex.c ****   *PCROP2AEndAddr += (ropbase + FLASH_PCROP_GRANULARITY - 1U);
1163:Drivers/STM32G0xx_HAL_Driver/Src/stm32g0xx_hal_flash_ex.c **** }
1164:Drivers/STM32G0xx_HAL_Driver/Src/stm32g0xx_hal_flash_ex.c **** 
1165:Drivers/STM32G0xx_HAL_Driver/Src/stm32g0xx_hal_flash_ex.c **** /**
1166:Drivers/STM32G0xx_HAL_Driver/Src/stm32g0xx_hal_flash_ex.c ****   * @brief  Return the FLASH PCROP Protection Option Bytes value.
1167:Drivers/STM32G0xx_HAL_Driver/Src/stm32g0xx_hal_flash_ex.c ****   * @param  PCROP2BStartAddr [out]  Specifies the address where to copied the start address
1168:Drivers/STM32G0xx_HAL_Driver/Src/stm32g0xx_hal_flash_ex.c ****   *         of the 2B Proprietary code readout protection
1169:Drivers/STM32G0xx_HAL_Driver/Src/stm32g0xx_hal_flash_ex.c ****   * @param  PCROP2BEndAddr [out]  Specifies the address where to copied the end address of
ARM GAS  /tmp/ccXI1us5.s 			page 26


1170:Drivers/STM32G0xx_HAL_Driver/Src/stm32g0xx_hal_flash_ex.c ****   *         the 2B Proprietary code readout protection
1171:Drivers/STM32G0xx_HAL_Driver/Src/stm32g0xx_hal_flash_ex.c ****   * @retval None
1172:Drivers/STM32G0xx_HAL_Driver/Src/stm32g0xx_hal_flash_ex.c ****   */
1173:Drivers/STM32G0xx_HAL_Driver/Src/stm32g0xx_hal_flash_ex.c **** static void FLASH_OB_GetPCROP2B(uint32_t *PCROP2BStartAddr, uint32_t *PCROP2BEndAddr)
1174:Drivers/STM32G0xx_HAL_Driver/Src/stm32g0xx_hal_flash_ex.c **** {
1175:Drivers/STM32G0xx_HAL_Driver/Src/stm32g0xx_hal_flash_ex.c ****   uint32_t pcrop;
1176:Drivers/STM32G0xx_HAL_Driver/Src/stm32g0xx_hal_flash_ex.c ****   uint32_t ropbase;
1177:Drivers/STM32G0xx_HAL_Driver/Src/stm32g0xx_hal_flash_ex.c **** 
1178:Drivers/STM32G0xx_HAL_Driver/Src/stm32g0xx_hal_flash_ex.c ****   /* Check if banks are swapped */
1179:Drivers/STM32G0xx_HAL_Driver/Src/stm32g0xx_hal_flash_ex.c ****   if ((FLASH->OPTR & FLASH_OPTR_nSWAP_BANK) != 0x00u)
1180:Drivers/STM32G0xx_HAL_Driver/Src/stm32g0xx_hal_flash_ex.c ****   {
1181:Drivers/STM32G0xx_HAL_Driver/Src/stm32g0xx_hal_flash_ex.c ****     /* No Bank swap, bank 2 read only protection is on second half of Flash */
1182:Drivers/STM32G0xx_HAL_Driver/Src/stm32g0xx_hal_flash_ex.c ****     ropbase = (FLASH_BASE + FLASH_BANK_SIZE);
1183:Drivers/STM32G0xx_HAL_Driver/Src/stm32g0xx_hal_flash_ex.c ****   }
1184:Drivers/STM32G0xx_HAL_Driver/Src/stm32g0xx_hal_flash_ex.c ****   else
1185:Drivers/STM32G0xx_HAL_Driver/Src/stm32g0xx_hal_flash_ex.c ****   {
1186:Drivers/STM32G0xx_HAL_Driver/Src/stm32g0xx_hal_flash_ex.c ****     /* Bank swap, bank 2 read only protection is on first half of Flash */
1187:Drivers/STM32G0xx_HAL_Driver/Src/stm32g0xx_hal_flash_ex.c ****     ropbase = FLASH_BASE;
1188:Drivers/STM32G0xx_HAL_Driver/Src/stm32g0xx_hal_flash_ex.c ****   }
1189:Drivers/STM32G0xx_HAL_Driver/Src/stm32g0xx_hal_flash_ex.c **** 
1190:Drivers/STM32G0xx_HAL_Driver/Src/stm32g0xx_hal_flash_ex.c ****   pcrop = (FLASH->PCROP2BSR & FLASH_PCROP2BSR_PCROP2B_STRT);
1191:Drivers/STM32G0xx_HAL_Driver/Src/stm32g0xx_hal_flash_ex.c ****   *PCROP2BStartAddr = (pcrop << FLASH_PCROP_GRANULARITY_OFFSET);
1192:Drivers/STM32G0xx_HAL_Driver/Src/stm32g0xx_hal_flash_ex.c ****   *PCROP2BStartAddr += ropbase;
1193:Drivers/STM32G0xx_HAL_Driver/Src/stm32g0xx_hal_flash_ex.c **** 
1194:Drivers/STM32G0xx_HAL_Driver/Src/stm32g0xx_hal_flash_ex.c ****   pcrop = (FLASH->PCROP2BER & FLASH_PCROP2BER_PCROP2B_END);
1195:Drivers/STM32G0xx_HAL_Driver/Src/stm32g0xx_hal_flash_ex.c ****   *PCROP2BEndAddr = (pcrop << FLASH_PCROP_GRANULARITY_OFFSET);
1196:Drivers/STM32G0xx_HAL_Driver/Src/stm32g0xx_hal_flash_ex.c ****   *PCROP2BEndAddr += (ropbase + FLASH_PCROP_GRANULARITY - 1U);
1197:Drivers/STM32G0xx_HAL_Driver/Src/stm32g0xx_hal_flash_ex.c **** }
1198:Drivers/STM32G0xx_HAL_Driver/Src/stm32g0xx_hal_flash_ex.c **** #endif /* FLASH_DBANK_SUPPORT */
1199:Drivers/STM32G0xx_HAL_Driver/Src/stm32g0xx_hal_flash_ex.c **** #endif /* FLASH_PCROP_SUPPORT */
1200:Drivers/STM32G0xx_HAL_Driver/Src/stm32g0xx_hal_flash_ex.c **** 
1201:Drivers/STM32G0xx_HAL_Driver/Src/stm32g0xx_hal_flash_ex.c **** #if defined(FLASH_SECURABLE_MEMORY_SUPPORT)
1202:Drivers/STM32G0xx_HAL_Driver/Src/stm32g0xx_hal_flash_ex.c **** #if defined(FLASH_DBANK_SUPPORT)
1203:Drivers/STM32G0xx_HAL_Driver/Src/stm32g0xx_hal_flash_ex.c **** /**
1204:Drivers/STM32G0xx_HAL_Driver/Src/stm32g0xx_hal_flash_ex.c ****   * @brief  Configure Securable Memory area feature.
1205:Drivers/STM32G0xx_HAL_Driver/Src/stm32g0xx_hal_flash_ex.c ****   * @param  BootEntry  specifies if boot scheme is forced to Flash (System or user) or not
1206:Drivers/STM32G0xx_HAL_Driver/Src/stm32g0xx_hal_flash_ex.c ****   *         This parameter can be one of the following values:
1207:Drivers/STM32G0xx_HAL_Driver/Src/stm32g0xx_hal_flash_ex.c ****   *           @arg @ref OB_BOOT_ENTRY_FORCED_NONE No boot entry forced
1208:Drivers/STM32G0xx_HAL_Driver/Src/stm32g0xx_hal_flash_ex.c ****   *           @arg @ref OB_BOOT_ENTRY_FORCED_FLASH Flash selected as unique entry boot
1209:Drivers/STM32G0xx_HAL_Driver/Src/stm32g0xx_hal_flash_ex.c ****   * @param  SecSize specifies number of pages to protect as securable memory area, starting from
1210:Drivers/STM32G0xx_HAL_Driver/Src/stm32g0xx_hal_flash_ex.c ****   *         beginning of Bank1 (page 0).
1211:Drivers/STM32G0xx_HAL_Driver/Src/stm32g0xx_hal_flash_ex.c ****   * @param  SecSize2 specifies number of pages to protect as securable memory area, starting from
1212:Drivers/STM32G0xx_HAL_Driver/Src/stm32g0xx_hal_flash_ex.c ****   *         beginning of Bank2 (page 0).
1213:Drivers/STM32G0xx_HAL_Driver/Src/stm32g0xx_hal_flash_ex.c ****   * @retval None
1214:Drivers/STM32G0xx_HAL_Driver/Src/stm32g0xx_hal_flash_ex.c ****   */
1215:Drivers/STM32G0xx_HAL_Driver/Src/stm32g0xx_hal_flash_ex.c **** static void FLASH_OB_SecMemConfig(uint32_t BootEntry, uint32_t SecSize, uint32_t SecSize2)
1216:Drivers/STM32G0xx_HAL_Driver/Src/stm32g0xx_hal_flash_ex.c **** {
1217:Drivers/STM32G0xx_HAL_Driver/Src/stm32g0xx_hal_flash_ex.c ****   uint32_t secmem;
1218:Drivers/STM32G0xx_HAL_Driver/Src/stm32g0xx_hal_flash_ex.c **** 
1219:Drivers/STM32G0xx_HAL_Driver/Src/stm32g0xx_hal_flash_ex.c ****   /* Check the parameters */
1220:Drivers/STM32G0xx_HAL_Driver/Src/stm32g0xx_hal_flash_ex.c ****   assert_param(IS_OB_SEC_BOOT_LOCK(BootEntry));
1221:Drivers/STM32G0xx_HAL_Driver/Src/stm32g0xx_hal_flash_ex.c ****   assert_param(IS_OB_SEC_SIZE(SecSize));
1222:Drivers/STM32G0xx_HAL_Driver/Src/stm32g0xx_hal_flash_ex.c **** 
1223:Drivers/STM32G0xx_HAL_Driver/Src/stm32g0xx_hal_flash_ex.c ****   if ((FLASH_BANK_NB == 2U))
1224:Drivers/STM32G0xx_HAL_Driver/Src/stm32g0xx_hal_flash_ex.c ****   {
1225:Drivers/STM32G0xx_HAL_Driver/Src/stm32g0xx_hal_flash_ex.c ****     assert_param(IS_OB_SEC_SIZE(SecSize2));
1226:Drivers/STM32G0xx_HAL_Driver/Src/stm32g0xx_hal_flash_ex.c ****   }
ARM GAS  /tmp/ccXI1us5.s 			page 27


1227:Drivers/STM32G0xx_HAL_Driver/Src/stm32g0xx_hal_flash_ex.c **** 
1228:Drivers/STM32G0xx_HAL_Driver/Src/stm32g0xx_hal_flash_ex.c ****   /* Set securable memory area configuration */
1229:Drivers/STM32G0xx_HAL_Driver/Src/stm32g0xx_hal_flash_ex.c ****   secmem = (FLASH->SECR & ~(FLASH_SECR_BOOT_LOCK | FLASH_SECR_SEC_SIZE | FLASH_SECR_SEC_SIZE2));
1230:Drivers/STM32G0xx_HAL_Driver/Src/stm32g0xx_hal_flash_ex.c ****   FLASH->SECR = (secmem | BootEntry | SecSize | (SecSize2 << FLASH_SECR_SEC_SIZE2_Pos));
1231:Drivers/STM32G0xx_HAL_Driver/Src/stm32g0xx_hal_flash_ex.c **** }
1232:Drivers/STM32G0xx_HAL_Driver/Src/stm32g0xx_hal_flash_ex.c **** 
1233:Drivers/STM32G0xx_HAL_Driver/Src/stm32g0xx_hal_flash_ex.c **** /**
1234:Drivers/STM32G0xx_HAL_Driver/Src/stm32g0xx_hal_flash_ex.c ****   * @brief  Return the FLASH Securable memory area protection Option Bytes value.
1235:Drivers/STM32G0xx_HAL_Driver/Src/stm32g0xx_hal_flash_ex.c ****   * @param  BootEntry  specifies boot scheme configuration
1236:Drivers/STM32G0xx_HAL_Driver/Src/stm32g0xx_hal_flash_ex.c ****   * @param  SecSize specifies number of pages to protect as secure memory area, starting from
1237:Drivers/STM32G0xx_HAL_Driver/Src/stm32g0xx_hal_flash_ex.c ****   *         beginning of Bank1 (page 0).
1238:Drivers/STM32G0xx_HAL_Driver/Src/stm32g0xx_hal_flash_ex.c ****   * @param  SecSize2 specifies number of pages to protect as secure memory area, starting from
1239:Drivers/STM32G0xx_HAL_Driver/Src/stm32g0xx_hal_flash_ex.c ****   *         beginning of Bank2 (page 0).
1240:Drivers/STM32G0xx_HAL_Driver/Src/stm32g0xx_hal_flash_ex.c ****   * @retval None
1241:Drivers/STM32G0xx_HAL_Driver/Src/stm32g0xx_hal_flash_ex.c ****   */
1242:Drivers/STM32G0xx_HAL_Driver/Src/stm32g0xx_hal_flash_ex.c **** static void FLASH_OB_GetSecMem(uint32_t *BootEntry, uint32_t *SecSize, uint32_t *SecSize2)
1243:Drivers/STM32G0xx_HAL_Driver/Src/stm32g0xx_hal_flash_ex.c **** {
1244:Drivers/STM32G0xx_HAL_Driver/Src/stm32g0xx_hal_flash_ex.c ****   uint32_t secmem = FLASH->SECR;
1245:Drivers/STM32G0xx_HAL_Driver/Src/stm32g0xx_hal_flash_ex.c **** 
1246:Drivers/STM32G0xx_HAL_Driver/Src/stm32g0xx_hal_flash_ex.c ****   *BootEntry = (secmem & FLASH_SECR_BOOT_LOCK);
1247:Drivers/STM32G0xx_HAL_Driver/Src/stm32g0xx_hal_flash_ex.c ****   *SecSize = (secmem & FLASH_SECR_SEC_SIZE);
1248:Drivers/STM32G0xx_HAL_Driver/Src/stm32g0xx_hal_flash_ex.c ****   *SecSize2 = (secmem & FLASH_SECR_SEC_SIZE2) >> FLASH_SECR_SEC_SIZE2_Pos;
1249:Drivers/STM32G0xx_HAL_Driver/Src/stm32g0xx_hal_flash_ex.c **** }
1250:Drivers/STM32G0xx_HAL_Driver/Src/stm32g0xx_hal_flash_ex.c **** 
1251:Drivers/STM32G0xx_HAL_Driver/Src/stm32g0xx_hal_flash_ex.c **** #else
1252:Drivers/STM32G0xx_HAL_Driver/Src/stm32g0xx_hal_flash_ex.c **** /**
1253:Drivers/STM32G0xx_HAL_Driver/Src/stm32g0xx_hal_flash_ex.c ****   * @brief  Configure Securable Memory area feature.
1254:Drivers/STM32G0xx_HAL_Driver/Src/stm32g0xx_hal_flash_ex.c ****   * @param  BootEntry  specifies if boot scheme is forced to Flash (System or user) or not
1255:Drivers/STM32G0xx_HAL_Driver/Src/stm32g0xx_hal_flash_ex.c ****   *         This parameter can be one of the following values:
1256:Drivers/STM32G0xx_HAL_Driver/Src/stm32g0xx_hal_flash_ex.c ****   *           @arg @ref OB_BOOT_ENTRY_FORCED_NONE No boot entry forced
1257:Drivers/STM32G0xx_HAL_Driver/Src/stm32g0xx_hal_flash_ex.c ****   *           @arg @ref OB_BOOT_ENTRY_FORCED_FLASH FLash selected as unique entry boot
1258:Drivers/STM32G0xx_HAL_Driver/Src/stm32g0xx_hal_flash_ex.c ****   * @param  SecSize specifies number of pages to protect as securable memory area, starting from
1259:Drivers/STM32G0xx_HAL_Driver/Src/stm32g0xx_hal_flash_ex.c ****   *         beginning of the Flash (page 0).
1260:Drivers/STM32G0xx_HAL_Driver/Src/stm32g0xx_hal_flash_ex.c ****   * @retval None
1261:Drivers/STM32G0xx_HAL_Driver/Src/stm32g0xx_hal_flash_ex.c ****   */
1262:Drivers/STM32G0xx_HAL_Driver/Src/stm32g0xx_hal_flash_ex.c **** static void FLASH_OB_SecMemConfig(uint32_t BootEntry, uint32_t SecSize)
1263:Drivers/STM32G0xx_HAL_Driver/Src/stm32g0xx_hal_flash_ex.c **** {
1264:Drivers/STM32G0xx_HAL_Driver/Src/stm32g0xx_hal_flash_ex.c ****   uint32_t secmem;
1265:Drivers/STM32G0xx_HAL_Driver/Src/stm32g0xx_hal_flash_ex.c **** 
1266:Drivers/STM32G0xx_HAL_Driver/Src/stm32g0xx_hal_flash_ex.c ****   /* Check the parameters */
1267:Drivers/STM32G0xx_HAL_Driver/Src/stm32g0xx_hal_flash_ex.c ****   assert_param(IS_OB_SEC_BOOT_LOCK(BootEntry));
1268:Drivers/STM32G0xx_HAL_Driver/Src/stm32g0xx_hal_flash_ex.c ****   assert_param(IS_OB_SEC_SIZE(SecSize));
1269:Drivers/STM32G0xx_HAL_Driver/Src/stm32g0xx_hal_flash_ex.c **** 
1270:Drivers/STM32G0xx_HAL_Driver/Src/stm32g0xx_hal_flash_ex.c ****   /* Set securable memory area configuration */
1271:Drivers/STM32G0xx_HAL_Driver/Src/stm32g0xx_hal_flash_ex.c ****   secmem = (FLASH->SECR & ~(FLASH_SECR_BOOT_LOCK | FLASH_SECR_SEC_SIZE));
1272:Drivers/STM32G0xx_HAL_Driver/Src/stm32g0xx_hal_flash_ex.c ****   FLASH->SECR = (secmem | BootEntry | SecSize);
1273:Drivers/STM32G0xx_HAL_Driver/Src/stm32g0xx_hal_flash_ex.c **** }
1274:Drivers/STM32G0xx_HAL_Driver/Src/stm32g0xx_hal_flash_ex.c **** 
1275:Drivers/STM32G0xx_HAL_Driver/Src/stm32g0xx_hal_flash_ex.c **** /**
1276:Drivers/STM32G0xx_HAL_Driver/Src/stm32g0xx_hal_flash_ex.c ****   * @brief  Return the FLASH Securable memory area protection Option Bytes value.
1277:Drivers/STM32G0xx_HAL_Driver/Src/stm32g0xx_hal_flash_ex.c ****   * @param  BootEntry  specifies boot scheme configuration
1278:Drivers/STM32G0xx_HAL_Driver/Src/stm32g0xx_hal_flash_ex.c ****   * @param  SecSize specifies number of pages to protect as secure memory area, starting from
1279:Drivers/STM32G0xx_HAL_Driver/Src/stm32g0xx_hal_flash_ex.c ****   *         beginning of the Flash (page 0).
1280:Drivers/STM32G0xx_HAL_Driver/Src/stm32g0xx_hal_flash_ex.c ****   * @retval None
1281:Drivers/STM32G0xx_HAL_Driver/Src/stm32g0xx_hal_flash_ex.c ****   */
1282:Drivers/STM32G0xx_HAL_Driver/Src/stm32g0xx_hal_flash_ex.c **** static void FLASH_OB_GetSecMem(uint32_t *BootEntry, uint32_t *SecSize)
1283:Drivers/STM32G0xx_HAL_Driver/Src/stm32g0xx_hal_flash_ex.c **** {
ARM GAS  /tmp/ccXI1us5.s 			page 28


 266              		.loc 1 1283 1 is_stmt 1 view -0
 267              		.cfi_startproc
 268              		@ args = 0, pretend = 0, frame = 0
 269              		@ frame_needed = 0, uses_anonymous_args = 0
 270              		.loc 1 1283 1 is_stmt 0 view .LVU65
 271 0000 10B5     		push	{r4, lr}
 272              	.LCFI2:
 273              		.cfi_def_cfa_offset 8
 274              		.cfi_offset 4, -8
 275              		.cfi_offset 14, -4
1284:Drivers/STM32G0xx_HAL_Driver/Src/stm32g0xx_hal_flash_ex.c ****   uint32_t secmem = FLASH->SECR;
 276              		.loc 1 1284 3 is_stmt 1 view .LVU66
 277              		.loc 1 1284 12 is_stmt 0 view .LVU67
 278 0002 054A     		ldr	r2, .L16
 279 0004 8023     		movs	r3, #128
 280 0006 D458     		ldr	r4, [r2, r3]
 281              	.LVL16:
1285:Drivers/STM32G0xx_HAL_Driver/Src/stm32g0xx_hal_flash_ex.c **** 
1286:Drivers/STM32G0xx_HAL_Driver/Src/stm32g0xx_hal_flash_ex.c ****   *BootEntry = (secmem & FLASH_SECR_BOOT_LOCK);
 282              		.loc 1 1286 3 is_stmt 1 view .LVU68
 283              		.loc 1 1286 24 is_stmt 0 view .LVU69
 284 0008 8022     		movs	r2, #128
 285 000a 5202     		lsls	r2, r2, #9
 286 000c 2240     		ands	r2, r4
 287              		.loc 1 1286 14 view .LVU70
 288 000e 0260     		str	r2, [r0]
1287:Drivers/STM32G0xx_HAL_Driver/Src/stm32g0xx_hal_flash_ex.c ****   *SecSize = (secmem & FLASH_SECR_SEC_SIZE);
 289              		.loc 1 1287 3 is_stmt 1 view .LVU71
 290              		.loc 1 1287 22 is_stmt 0 view .LVU72
 291 0010 013B     		subs	r3, r3, #1
 292 0012 2340     		ands	r3, r4
 293              		.loc 1 1287 12 view .LVU73
 294 0014 0B60     		str	r3, [r1]
1288:Drivers/STM32G0xx_HAL_Driver/Src/stm32g0xx_hal_flash_ex.c **** }
 295              		.loc 1 1288 1 view .LVU74
 296              		@ sp needed
 297              	.LVL17:
 298              		.loc 1 1288 1 view .LVU75
 299 0016 10BD     		pop	{r4, pc}
 300              	.L17:
 301              		.align	2
 302              	.L16:
 303 0018 00200240 		.word	1073881088
 304              		.cfi_endproc
 305              	.LFE349:
 307              		.section	.rodata.FLASH_MassErase.str1.4,"aMS",%progbits,1
 308              		.align	2
 309              	.LC0:
 310 0000 44726976 		.ascii	"Drivers/STM32G0xx_HAL_Driver/Src/stm32g0xx_hal_flas"
 310      6572732F 
 310      53544D33 
 310      32473078 
 310      785F4841 
 311 0033 685F6578 		.ascii	"h_ex.c\000"
 311      2E6300
 312              		.section	.text.FLASH_MassErase,"ax",%progbits
 313              		.align	1
ARM GAS  /tmp/ccXI1us5.s 			page 29


 314              		.syntax unified
 315              		.code	16
 316              		.thumb_func
 318              	FLASH_MassErase:
 319              	.LVL18:
 320              	.LFB336:
 569:Drivers/STM32G0xx_HAL_Driver/Src/stm32g0xx_hal_flash_ex.c ****   /* Check the parameters */
 321              		.loc 1 569 1 is_stmt 1 view -0
 322              		.cfi_startproc
 323              		@ args = 0, pretend = 0, frame = 0
 324              		@ frame_needed = 0, uses_anonymous_args = 0
 569:Drivers/STM32G0xx_HAL_Driver/Src/stm32g0xx_hal_flash_ex.c ****   /* Check the parameters */
 325              		.loc 1 569 1 is_stmt 0 view .LVU77
 326 0000 10B5     		push	{r4, lr}
 327              	.LCFI3:
 328              		.cfi_def_cfa_offset 8
 329              		.cfi_offset 4, -8
 330              		.cfi_offset 14, -4
 331 0002 0400     		movs	r4, r0
 571:Drivers/STM32G0xx_HAL_Driver/Src/stm32g0xx_hal_flash_ex.c **** 
 332              		.loc 1 571 3 is_stmt 1 view .LVU78
 333 0004 0428     		cmp	r0, #4
 334 0006 07D1     		bne	.L20
 335              	.LVL19:
 336              	.L19:
 574:Drivers/STM32G0xx_HAL_Driver/Src/stm32g0xx_hal_flash_ex.c **** }
 337              		.loc 1 574 3 view .LVU79
 574:Drivers/STM32G0xx_HAL_Driver/Src/stm32g0xx_hal_flash_ex.c **** }
 338              		.loc 1 574 13 is_stmt 0 view .LVU80
 339 0008 064B     		ldr	r3, .L21
 340 000a 5869     		ldr	r0, [r3, #20]
 341 000c 2043     		orrs	r0, r4
 342 000e 8024     		movs	r4, #128
 343              	.LVL20:
 574:Drivers/STM32G0xx_HAL_Driver/Src/stm32g0xx_hal_flash_ex.c **** }
 344              		.loc 1 574 13 view .LVU81
 345 0010 6402     		lsls	r4, r4, #9
 346 0012 0443     		orrs	r4, r0
 347 0014 5C61     		str	r4, [r3, #20]
 575:Drivers/STM32G0xx_HAL_Driver/Src/stm32g0xx_hal_flash_ex.c **** 
 348              		.loc 1 575 1 view .LVU82
 349              		@ sp needed
 350 0016 10BD     		pop	{r4, pc}
 351              	.LVL21:
 352              	.L20:
 571:Drivers/STM32G0xx_HAL_Driver/Src/stm32g0xx_hal_flash_ex.c **** 
 353              		.loc 1 571 3 discriminator 1 view .LVU83
 354 0018 0349     		ldr	r1, .L21+4
 355 001a 0448     		ldr	r0, .L21+8
 356              	.LVL22:
 571:Drivers/STM32G0xx_HAL_Driver/Src/stm32g0xx_hal_flash_ex.c **** 
 357              		.loc 1 571 3 discriminator 1 view .LVU84
 358 001c FFF7FEFF 		bl	assert_failed
 359              	.LVL23:
 360 0020 F2E7     		b	.L19
 361              	.L22:
 362 0022 C046     		.align	2
ARM GAS  /tmp/ccXI1us5.s 			page 30


 363              	.L21:
 364 0024 00200240 		.word	1073881088
 365 0028 3B020000 		.word	571
 366 002c 00000000 		.word	.LC0
 367              		.cfi_endproc
 368              	.LFE336:
 370              		.section	.text.FLASH_OB_WRPConfig,"ax",%progbits
 371              		.align	1
 372              		.syntax unified
 373              		.code	16
 374              		.thumb_func
 376              	FLASH_OB_WRPConfig:
 377              	.LVL24:
 378              	.LFB339:
 659:Drivers/STM32G0xx_HAL_Driver/Src/stm32g0xx_hal_flash_ex.c ****   /* Check the parameters */
 379              		.loc 1 659 1 is_stmt 1 view -0
 380              		.cfi_startproc
 381              		@ args = 0, pretend = 0, frame = 0
 382              		@ frame_needed = 0, uses_anonymous_args = 0
 659:Drivers/STM32G0xx_HAL_Driver/Src/stm32g0xx_hal_flash_ex.c ****   /* Check the parameters */
 383              		.loc 1 659 1 is_stmt 0 view .LVU86
 384 0000 70B5     		push	{r4, r5, r6, lr}
 385              	.LCFI4:
 386              		.cfi_def_cfa_offset 16
 387              		.cfi_offset 4, -16
 388              		.cfi_offset 5, -12
 389              		.cfi_offset 6, -8
 390              		.cfi_offset 14, -4
 391 0002 0600     		movs	r6, r0
 392 0004 0D00     		movs	r5, r1
 393 0006 1400     		movs	r4, r2
 661:Drivers/STM32G0xx_HAL_Driver/Src/stm32g0xx_hal_flash_ex.c ****   assert_param(IS_FLASH_PAGE(WRPStartOffset));
 394              		.loc 1 661 3 is_stmt 1 view .LVU87
 395 0008 431E     		subs	r3, r0, #1
 396 000a 012B     		cmp	r3, #1
 397 000c 18D8     		bhi	.L29
 398              	.LVL25:
 399              	.L24:
 662:Drivers/STM32G0xx_HAL_Driver/Src/stm32g0xx_hal_flash_ex.c ****   assert_param(IS_FLASH_PAGE(WRDPEndOffset));
 400              		.loc 1 662 3 view .LVU88
 401 000e 164B     		ldr	r3, .L33
 402 0010 1B68     		ldr	r3, [r3]
 403 0012 9B02     		lsls	r3, r3, #10
 404 0014 FF22     		movs	r2, #255
 405 0016 9202     		lsls	r2, r2, #10
 406 0018 1340     		ands	r3, r2
 407 001a DB0A     		lsrs	r3, r3, #11
 408 001c AB42     		cmp	r3, r5
 409 001e 14D9     		bls	.L30
 410              	.L25:
 663:Drivers/STM32G0xx_HAL_Driver/Src/stm32g0xx_hal_flash_ex.c **** 
 411              		.loc 1 663 3 view .LVU89
 412 0020 114B     		ldr	r3, .L33
 413 0022 1B68     		ldr	r3, [r3]
 414 0024 9B02     		lsls	r3, r3, #10
 415 0026 FF22     		movs	r2, #255
 416 0028 9202     		lsls	r2, r2, #10
ARM GAS  /tmp/ccXI1us5.s 			page 31


 417 002a 1340     		ands	r3, r2
 418 002c DB0A     		lsrs	r3, r3, #11
 419 002e A342     		cmp	r3, r4
 420 0030 10D9     		bls	.L31
 421              	.L26:
 666:Drivers/STM32G0xx_HAL_Driver/Src/stm32g0xx_hal_flash_ex.c ****   {
 422              		.loc 1 666 3 view .LVU90
 666:Drivers/STM32G0xx_HAL_Driver/Src/stm32g0xx_hal_flash_ex.c ****   {
 423              		.loc 1 666 6 is_stmt 0 view .LVU91
 424 0032 012E     		cmp	r6, #1
 425 0034 13D0     		beq	.L32
 682:Drivers/STM32G0xx_HAL_Driver/Src/stm32g0xx_hal_flash_ex.c ****   }
 426              		.loc 1 682 5 is_stmt 1 view .LVU92
 682:Drivers/STM32G0xx_HAL_Driver/Src/stm32g0xx_hal_flash_ex.c ****   }
 427              		.loc 1 682 37 is_stmt 0 view .LVU93
 428 0036 2404     		lsls	r4, r4, #16
 429              	.LVL26:
 682:Drivers/STM32G0xx_HAL_Driver/Src/stm32g0xx_hal_flash_ex.c ****   }
 430              		.loc 1 682 68 view .LVU94
 431 0038 2543     		orrs	r5, r4
 432              	.LVL27:
 682:Drivers/STM32G0xx_HAL_Driver/Src/stm32g0xx_hal_flash_ex.c ****   }
 433              		.loc 1 682 19 view .LVU95
 434 003a 0C4B     		ldr	r3, .L33+4
 435 003c 1D63     		str	r5, [r3, #48]
 436              	.L23:
 684:Drivers/STM32G0xx_HAL_Driver/Src/stm32g0xx_hal_flash_ex.c **** 
 437              		.loc 1 684 1 view .LVU96
 438              		@ sp needed
 439              	.LVL28:
 684:Drivers/STM32G0xx_HAL_Driver/Src/stm32g0xx_hal_flash_ex.c **** 
 440              		.loc 1 684 1 view .LVU97
 441 003e 70BD     		pop	{r4, r5, r6, pc}
 442              	.LVL29:
 443              	.L29:
 661:Drivers/STM32G0xx_HAL_Driver/Src/stm32g0xx_hal_flash_ex.c ****   assert_param(IS_FLASH_PAGE(WRPStartOffset));
 444              		.loc 1 661 3 discriminator 1 view .LVU98
 445 0040 0B49     		ldr	r1, .L33+8
 446              	.LVL30:
 661:Drivers/STM32G0xx_HAL_Driver/Src/stm32g0xx_hal_flash_ex.c ****   assert_param(IS_FLASH_PAGE(WRPStartOffset));
 447              		.loc 1 661 3 discriminator 1 view .LVU99
 448 0042 0C48     		ldr	r0, .L33+12
 449              	.LVL31:
 661:Drivers/STM32G0xx_HAL_Driver/Src/stm32g0xx_hal_flash_ex.c ****   assert_param(IS_FLASH_PAGE(WRPStartOffset));
 450              		.loc 1 661 3 discriminator 1 view .LVU100
 451 0044 FFF7FEFF 		bl	assert_failed
 452              	.LVL32:
 661:Drivers/STM32G0xx_HAL_Driver/Src/stm32g0xx_hal_flash_ex.c ****   assert_param(IS_FLASH_PAGE(WRPStartOffset));
 453              		.loc 1 661 3 discriminator 1 view .LVU101
 454 0048 E1E7     		b	.L24
 455              	.L30:
 662:Drivers/STM32G0xx_HAL_Driver/Src/stm32g0xx_hal_flash_ex.c ****   assert_param(IS_FLASH_PAGE(WRDPEndOffset));
 456              		.loc 1 662 3 discriminator 1 view .LVU102
 457 004a 0B49     		ldr	r1, .L33+16
 458 004c 0948     		ldr	r0, .L33+12
 459 004e FFF7FEFF 		bl	assert_failed
 460              	.LVL33:
ARM GAS  /tmp/ccXI1us5.s 			page 32


 461 0052 E5E7     		b	.L25
 462              	.L31:
 663:Drivers/STM32G0xx_HAL_Driver/Src/stm32g0xx_hal_flash_ex.c **** 
 463              		.loc 1 663 3 discriminator 1 view .LVU103
 464 0054 0949     		ldr	r1, .L33+20
 465 0056 0748     		ldr	r0, .L33+12
 466 0058 FFF7FEFF 		bl	assert_failed
 467              	.LVL34:
 468 005c E9E7     		b	.L26
 469              	.L32:
 668:Drivers/STM32G0xx_HAL_Driver/Src/stm32g0xx_hal_flash_ex.c ****   }
 470              		.loc 1 668 5 is_stmt 1 view .LVU104
 668:Drivers/STM32G0xx_HAL_Driver/Src/stm32g0xx_hal_flash_ex.c ****   }
 471              		.loc 1 668 37 is_stmt 0 view .LVU105
 472 005e 2404     		lsls	r4, r4, #16
 473              	.LVL35:
 668:Drivers/STM32G0xx_HAL_Driver/Src/stm32g0xx_hal_flash_ex.c ****   }
 474              		.loc 1 668 68 view .LVU106
 475 0060 2543     		orrs	r5, r4
 476              	.LVL36:
 668:Drivers/STM32G0xx_HAL_Driver/Src/stm32g0xx_hal_flash_ex.c ****   }
 477              		.loc 1 668 19 view .LVU107
 478 0062 024B     		ldr	r3, .L33+4
 479 0064 DD62     		str	r5, [r3, #44]
 480 0066 EAE7     		b	.L23
 481              	.L34:
 482              		.align	2
 483              	.L33:
 484 0068 E075FF1F 		.word	536835552
 485 006c 00200240 		.word	1073881088
 486 0070 95020000 		.word	661
 487 0074 00000000 		.word	.LC0
 488 0078 96020000 		.word	662
 489 007c 97020000 		.word	663
 490              		.cfi_endproc
 491              	.LFE339:
 493              		.section	.text.FLASH_OB_OptrConfig,"ax",%progbits
 494              		.align	1
 495              		.syntax unified
 496              		.code	16
 497              		.thumb_func
 499              	FLASH_OB_OptrConfig:
 500              	.LVL37:
 501              	.LFB341:
 765:Drivers/STM32G0xx_HAL_Driver/Src/stm32g0xx_hal_flash_ex.c ****   uint32_t optr;
 502              		.loc 1 765 1 is_stmt 1 view -0
 503              		.cfi_startproc
 504              		@ args = 0, pretend = 0, frame = 0
 505              		@ frame_needed = 0, uses_anonymous_args = 0
 765:Drivers/STM32G0xx_HAL_Driver/Src/stm32g0xx_hal_flash_ex.c ****   uint32_t optr;
 506              		.loc 1 765 1 is_stmt 0 view .LVU109
 507 0000 70B5     		push	{r4, r5, r6, lr}
 508              	.LCFI5:
 509              		.cfi_def_cfa_offset 16
 510              		.cfi_offset 4, -16
 511              		.cfi_offset 5, -12
 512              		.cfi_offset 6, -8
ARM GAS  /tmp/ccXI1us5.s 			page 33


 513              		.cfi_offset 14, -4
 514 0002 0500     		movs	r5, r0
 515 0004 0C00     		movs	r4, r1
 516 0006 1600     		movs	r6, r2
 766:Drivers/STM32G0xx_HAL_Driver/Src/stm32g0xx_hal_flash_ex.c **** 
 517              		.loc 1 766 3 is_stmt 1 view .LVU110
 769:Drivers/STM32G0xx_HAL_Driver/Src/stm32g0xx_hal_flash_ex.c ****   assert_param(IS_OB_USER_CONFIG(UserType, UserConfig));
 518              		.loc 1 769 3 view .LVU111
 519 0008 124B     		ldr	r3, .L42
 520 000a 1842     		tst	r0, r3
 521 000c 02D0     		beq	.L36
 769:Drivers/STM32G0xx_HAL_Driver/Src/stm32g0xx_hal_flash_ex.c ****   assert_param(IS_OB_USER_CONFIG(UserType, UserConfig));
 522              		.loc 1 769 3 is_stmt 0 discriminator 2 view .LVU112
 523 000e 124B     		ldr	r3, .L42+4
 524 0010 1842     		tst	r0, r3
 525 0012 03D0     		beq	.L37
 526              	.L36:
 769:Drivers/STM32G0xx_HAL_Driver/Src/stm32g0xx_hal_flash_ex.c ****   assert_param(IS_OB_USER_CONFIG(UserType, UserConfig));
 527              		.loc 1 769 3 discriminator 3 view .LVU113
 528 0014 1149     		ldr	r1, .L42+8
 529              	.LVL38:
 769:Drivers/STM32G0xx_HAL_Driver/Src/stm32g0xx_hal_flash_ex.c ****   assert_param(IS_OB_USER_CONFIG(UserType, UserConfig));
 530              		.loc 1 769 3 discriminator 3 view .LVU114
 531 0016 1248     		ldr	r0, .L42+12
 532              	.LVL39:
 769:Drivers/STM32G0xx_HAL_Driver/Src/stm32g0xx_hal_flash_ex.c ****   assert_param(IS_OB_USER_CONFIG(UserType, UserConfig));
 533              		.loc 1 769 3 discriminator 3 view .LVU115
 534 0018 FFF7FEFF 		bl	assert_failed
 535              	.LVL40:
 536              	.L37:
 770:Drivers/STM32G0xx_HAL_Driver/Src/stm32g0xx_hal_flash_ex.c ****   assert_param(IS_OB_RDP_LEVEL(RDPLevel));
 537              		.loc 1 770 3 is_stmt 1 view .LVU116
 538 001c 2300     		movs	r3, r4
 539 001e AB43     		bics	r3, r5
 540 0020 0ED1     		bne	.L40
 541              	.L38:
 771:Drivers/STM32G0xx_HAL_Driver/Src/stm32g0xx_hal_flash_ex.c **** 
 542              		.loc 1 771 3 view .LVU117
 543 0022 AA2E     		cmp	r6, #170
 544 0024 03D0     		beq	.L39
 771:Drivers/STM32G0xx_HAL_Driver/Src/stm32g0xx_hal_flash_ex.c **** 
 545              		.loc 1 771 3 is_stmt 0 discriminator 1 view .LVU118
 546 0026 BB2E     		cmp	r6, #187
 547 0028 01D0     		beq	.L39
 771:Drivers/STM32G0xx_HAL_Driver/Src/stm32g0xx_hal_flash_ex.c **** 
 548              		.loc 1 771 3 discriminator 2 view .LVU119
 549 002a CC2E     		cmp	r6, #204
 550 002c 0DD1     		bne	.L41
 551              	.L39:
 774:Drivers/STM32G0xx_HAL_Driver/Src/stm32g0xx_hal_flash_ex.c ****   optr &= ~(UserType | FLASH_OPTR_RDP);
 552              		.loc 1 774 3 is_stmt 1 view .LVU120
 774:Drivers/STM32G0xx_HAL_Driver/Src/stm32g0xx_hal_flash_ex.c ****   optr &= ~(UserType | FLASH_OPTR_RDP);
 553              		.loc 1 774 8 is_stmt 0 view .LVU121
 554 002e 0D4B     		ldr	r3, .L42+16
 555 0030 196A     		ldr	r1, [r3, #32]
 556              	.LVL41:
 775:Drivers/STM32G0xx_HAL_Driver/Src/stm32g0xx_hal_flash_ex.c ****   FLASH->OPTR = (optr | UserConfig | RDPLevel);
ARM GAS  /tmp/ccXI1us5.s 			page 34


 557              		.loc 1 775 3 is_stmt 1 view .LVU122
 775:Drivers/STM32G0xx_HAL_Driver/Src/stm32g0xx_hal_flash_ex.c ****   FLASH->OPTR = (optr | UserConfig | RDPLevel);
 558              		.loc 1 775 22 is_stmt 0 view .LVU123
 559 0032 FF20     		movs	r0, #255
 560 0034 0543     		orrs	r5, r0
 561              	.LVL42:
 775:Drivers/STM32G0xx_HAL_Driver/Src/stm32g0xx_hal_flash_ex.c ****   FLASH->OPTR = (optr | UserConfig | RDPLevel);
 562              		.loc 1 775 8 view .LVU124
 563 0036 A943     		bics	r1, r5
 564              	.LVL43:
 776:Drivers/STM32G0xx_HAL_Driver/Src/stm32g0xx_hal_flash_ex.c **** }
 565              		.loc 1 776 3 is_stmt 1 view .LVU125
 776:Drivers/STM32G0xx_HAL_Driver/Src/stm32g0xx_hal_flash_ex.c **** }
 566              		.loc 1 776 23 is_stmt 0 view .LVU126
 567 0038 0C43     		orrs	r4, r1
 568              	.LVL44:
 776:Drivers/STM32G0xx_HAL_Driver/Src/stm32g0xx_hal_flash_ex.c **** }
 569              		.loc 1 776 36 view .LVU127
 570 003a 3443     		orrs	r4, r6
 776:Drivers/STM32G0xx_HAL_Driver/Src/stm32g0xx_hal_flash_ex.c **** }
 571              		.loc 1 776 15 view .LVU128
 572 003c 1C62     		str	r4, [r3, #32]
 777:Drivers/STM32G0xx_HAL_Driver/Src/stm32g0xx_hal_flash_ex.c **** 
 573              		.loc 1 777 1 view .LVU129
 574              		@ sp needed
 575              	.LVL45:
 777:Drivers/STM32G0xx_HAL_Driver/Src/stm32g0xx_hal_flash_ex.c **** 
 576              		.loc 1 777 1 view .LVU130
 577 003e 70BD     		pop	{r4, r5, r6, pc}
 578              	.LVL46:
 579              	.L40:
 770:Drivers/STM32G0xx_HAL_Driver/Src/stm32g0xx_hal_flash_ex.c ****   assert_param(IS_OB_RDP_LEVEL(RDPLevel));
 580              		.loc 1 770 3 discriminator 1 view .LVU131
 581 0040 0949     		ldr	r1, .L42+20
 582 0042 0748     		ldr	r0, .L42+12
 583 0044 FFF7FEFF 		bl	assert_failed
 584              	.LVL47:
 585 0048 EBE7     		b	.L38
 586              	.L41:
 771:Drivers/STM32G0xx_HAL_Driver/Src/stm32g0xx_hal_flash_ex.c **** 
 587              		.loc 1 771 3 discriminator 3 view .LVU132
 588 004a 0849     		ldr	r1, .L42+24
 589 004c 0448     		ldr	r0, .L42+12
 590 004e FFF7FEFF 		bl	assert_failed
 591              	.LVL48:
 592 0052 ECE7     		b	.L39
 593              	.L43:
 594              		.align	2
 595              	.L42:
 596 0054 00FF4F3F 		.word	1062207232
 597 0058 FF00B0C0 		.word	-1062207233
 598 005c 01030000 		.word	769
 599 0060 00000000 		.word	.LC0
 600 0064 00200240 		.word	1073881088
 601 0068 02030000 		.word	770
 602 006c 03030000 		.word	771
 603              		.cfi_endproc
ARM GAS  /tmp/ccXI1us5.s 			page 35


 604              	.LFE341:
 606              		.section	.text.FLASH_OB_PCROP1AConfig,"ax",%progbits
 607              		.align	1
 608              		.syntax unified
 609              		.code	16
 610              		.thumb_func
 612              	FLASH_OB_PCROP1AConfig:
 613              	.LVL49:
 614              	.LFB344:
 846:Drivers/STM32G0xx_HAL_Driver/Src/stm32g0xx_hal_flash_ex.c ****   uint32_t startoffset;
 615              		.loc 1 846 1 is_stmt 1 view -0
 616              		.cfi_startproc
 617              		@ args = 0, pretend = 0, frame = 0
 618              		@ frame_needed = 0, uses_anonymous_args = 0
 846:Drivers/STM32G0xx_HAL_Driver/Src/stm32g0xx_hal_flash_ex.c ****   uint32_t startoffset;
 619              		.loc 1 846 1 is_stmt 0 view .LVU134
 620 0000 70B5     		push	{r4, r5, r6, lr}
 621              	.LCFI6:
 622              		.cfi_def_cfa_offset 16
 623              		.cfi_offset 4, -16
 624              		.cfi_offset 5, -12
 625              		.cfi_offset 6, -8
 626              		.cfi_offset 14, -4
 627 0002 0600     		movs	r6, r0
 628 0004 0D00     		movs	r5, r1
 629 0006 1400     		movs	r4, r2
 847:Drivers/STM32G0xx_HAL_Driver/Src/stm32g0xx_hal_flash_ex.c ****   uint32_t endoffset;
 630              		.loc 1 847 3 is_stmt 1 view .LVU135
 848:Drivers/STM32G0xx_HAL_Driver/Src/stm32g0xx_hal_flash_ex.c ****   uint32_t pcrop1aend;
 631              		.loc 1 848 3 view .LVU136
 849:Drivers/STM32G0xx_HAL_Driver/Src/stm32g0xx_hal_flash_ex.c ****   uint32_t ropbase;
 632              		.loc 1 849 3 view .LVU137
 850:Drivers/STM32G0xx_HAL_Driver/Src/stm32g0xx_hal_flash_ex.c **** 
 633              		.loc 1 850 3 view .LVU138
 853:Drivers/STM32G0xx_HAL_Driver/Src/stm32g0xx_hal_flash_ex.c **** 
 634              		.loc 1 853 3 view .LVU139
 635 0008 234B     		ldr	r3, .L54
 636 000a 1842     		tst	r0, r3
 637 000c 3AD1     		bne	.L52
 638              	.LVL50:
 639              	.L45:
 870:Drivers/STM32G0xx_HAL_Driver/Src/stm32g0xx_hal_flash_ex.c ****     assert_param(IS_FLASH_MAIN_FIRSTHALF_MEM_ADDRESS(PCROP1AEndAddr));
 640              		.loc 1 870 5 view .LVU140
 641 000e 8023     		movs	r3, #128
 642 0010 1B05     		lsls	r3, r3, #20
 643 0012 9D42     		cmp	r5, r3
 644 0014 0AD3     		bcc	.L46
 870:Drivers/STM32G0xx_HAL_Driver/Src/stm32g0xx_hal_flash_ex.c ****     assert_param(IS_FLASH_MAIN_FIRSTHALF_MEM_ADDRESS(PCROP1AEndAddr));
 645              		.loc 1 870 5 is_stmt 0 discriminator 2 view .LVU141
 646 0016 214B     		ldr	r3, .L54+4
 647 0018 1B68     		ldr	r3, [r3]
 648 001a 9B02     		lsls	r3, r3, #10
 649 001c FF22     		movs	r2, #255
 650 001e 9202     		lsls	r2, r2, #10
 651 0020 1340     		ands	r3, r2
 652 0022 1F4A     		ldr	r2, .L54+8
 653 0024 9446     		mov	ip, r2
ARM GAS  /tmp/ccXI1us5.s 			page 36


 654 0026 6344     		add	r3, r3, ip
 655 0028 AB42     		cmp	r3, r5
 656 002a 03D2     		bcs	.L47
 657              	.L46:
 870:Drivers/STM32G0xx_HAL_Driver/Src/stm32g0xx_hal_flash_ex.c ****     assert_param(IS_FLASH_MAIN_FIRSTHALF_MEM_ADDRESS(PCROP1AEndAddr));
 658              		.loc 1 870 5 discriminator 3 view .LVU142
 659 002c 1D49     		ldr	r1, .L54+12
 660 002e 1E48     		ldr	r0, .L54+16
 661 0030 FFF7FEFF 		bl	assert_failed
 662              	.LVL51:
 663              	.L47:
 871:Drivers/STM32G0xx_HAL_Driver/Src/stm32g0xx_hal_flash_ex.c **** 
 664              		.loc 1 871 5 is_stmt 1 view .LVU143
 665 0034 8023     		movs	r3, #128
 666 0036 1B05     		lsls	r3, r3, #20
 667 0038 9C42     		cmp	r4, r3
 668 003a 0AD3     		bcc	.L48
 871:Drivers/STM32G0xx_HAL_Driver/Src/stm32g0xx_hal_flash_ex.c **** 
 669              		.loc 1 871 5 is_stmt 0 discriminator 2 view .LVU144
 670 003c 174B     		ldr	r3, .L54+4
 671 003e 1B68     		ldr	r3, [r3]
 672 0040 9B02     		lsls	r3, r3, #10
 673 0042 FF22     		movs	r2, #255
 674 0044 9202     		lsls	r2, r2, #10
 675 0046 1340     		ands	r3, r2
 676 0048 154A     		ldr	r2, .L54+8
 677 004a 9446     		mov	ip, r2
 678 004c 6344     		add	r3, r3, ip
 679 004e A342     		cmp	r3, r4
 680 0050 03D2     		bcs	.L49
 681              	.L48:
 871:Drivers/STM32G0xx_HAL_Driver/Src/stm32g0xx_hal_flash_ex.c **** 
 682              		.loc 1 871 5 discriminator 3 view .LVU145
 683 0052 1649     		ldr	r1, .L54+20
 684 0054 1448     		ldr	r0, .L54+16
 685 0056 FFF7FEFF 		bl	assert_failed
 686              	.LVL52:
 687              	.L49:
 874:Drivers/STM32G0xx_HAL_Driver/Src/stm32g0xx_hal_flash_ex.c ****   }
 688              		.loc 1 874 5 is_stmt 1 view .LVU146
 878:Drivers/STM32G0xx_HAL_Driver/Src/stm32g0xx_hal_flash_ex.c **** 
 689              		.loc 1 878 3 view .LVU147
 878:Drivers/STM32G0xx_HAL_Driver/Src/stm32g0xx_hal_flash_ex.c **** 
 690              		.loc 1 878 14 is_stmt 0 view .LVU148
 691 005a 154B     		ldr	r3, .L54+24
 692 005c 9B6A     		ldr	r3, [r3, #40]
 693              	.LVL53:
 881:Drivers/STM32G0xx_HAL_Driver/Src/stm32g0xx_hal_flash_ex.c ****   {
 694              		.loc 1 881 3 is_stmt 1 view .LVU149
 881:Drivers/STM32G0xx_HAL_Driver/Src/stm32g0xx_hal_flash_ex.c ****   {
 695              		.loc 1 881 6 is_stmt 0 view .LVU150
 696 005e F207     		lsls	r2, r6, #31
 697 0060 0BD5     		bpl	.L50
 884:Drivers/STM32G0xx_HAL_Driver/Src/stm32g0xx_hal_flash_ex.c ****     endoffset = ((PCROP1AEndAddr - ropbase) >> FLASH_PCROP_GRANULARITY_OFFSET);
 698              		.loc 1 884 5 is_stmt 1 view .LVU151
 884:Drivers/STM32G0xx_HAL_Driver/Src/stm32g0xx_hal_flash_ex.c ****     endoffset = ((PCROP1AEndAddr - ropbase) >> FLASH_PCROP_GRANULARITY_OFFSET);
 699              		.loc 1 884 38 is_stmt 0 view .LVU152
ARM GAS  /tmp/ccXI1us5.s 			page 37


 700 0062 F822     		movs	r2, #248
 701 0064 1206     		lsls	r2, r2, #24
 702 0066 9446     		mov	ip, r2
 703 0068 6544     		add	r5, r5, ip
 704              	.LVL54:
 884:Drivers/STM32G0xx_HAL_Driver/Src/stm32g0xx_hal_flash_ex.c ****     endoffset = ((PCROP1AEndAddr - ropbase) >> FLASH_PCROP_GRANULARITY_OFFSET);
 705              		.loc 1 884 17 view .LVU153
 706 006a 6D0A     		lsrs	r5, r5, #9
 707              	.LVL55:
 885:Drivers/STM32G0xx_HAL_Driver/Src/stm32g0xx_hal_flash_ex.c **** 
 708              		.loc 1 885 5 is_stmt 1 view .LVU154
 885:Drivers/STM32G0xx_HAL_Driver/Src/stm32g0xx_hal_flash_ex.c **** 
 709              		.loc 1 885 34 is_stmt 0 view .LVU155
 710 006c 6444     		add	r4, r4, ip
 711              	.LVL56:
 885:Drivers/STM32G0xx_HAL_Driver/Src/stm32g0xx_hal_flash_ex.c **** 
 712              		.loc 1 885 15 view .LVU156
 713 006e 640A     		lsrs	r4, r4, #9
 714              	.LVL57:
 888:Drivers/STM32G0xx_HAL_Driver/Src/stm32g0xx_hal_flash_ex.c **** 
 715              		.loc 1 888 5 is_stmt 1 view .LVU157
 888:Drivers/STM32G0xx_HAL_Driver/Src/stm32g0xx_hal_flash_ex.c **** 
 716              		.loc 1 888 22 is_stmt 0 view .LVU158
 717 0070 0F4A     		ldr	r2, .L54+24
 718 0072 5562     		str	r5, [r2, #36]
 891:Drivers/STM32G0xx_HAL_Driver/Src/stm32g0xx_hal_flash_ex.c ****     pcrop1aend |= endoffset;
 719              		.loc 1 891 5 is_stmt 1 view .LVU159
 891:Drivers/STM32G0xx_HAL_Driver/Src/stm32g0xx_hal_flash_ex.c ****     pcrop1aend |= endoffset;
 720              		.loc 1 891 16 is_stmt 0 view .LVU160
 721 0074 FF22     		movs	r2, #255
 722 0076 9343     		bics	r3, r2
 723              	.LVL58:
 892:Drivers/STM32G0xx_HAL_Driver/Src/stm32g0xx_hal_flash_ex.c ****   }
 724              		.loc 1 892 5 is_stmt 1 view .LVU161
 892:Drivers/STM32G0xx_HAL_Driver/Src/stm32g0xx_hal_flash_ex.c ****   }
 725              		.loc 1 892 16 is_stmt 0 view .LVU162
 726 0078 2343     		orrs	r3, r4
 727              	.LVL59:
 728              	.L50:
 896:Drivers/STM32G0xx_HAL_Driver/Src/stm32g0xx_hal_flash_ex.c ****   {
 729              		.loc 1 896 3 is_stmt 1 view .LVU163
 896:Drivers/STM32G0xx_HAL_Driver/Src/stm32g0xx_hal_flash_ex.c ****   {
 730              		.loc 1 896 6 is_stmt 0 view .LVU164
 731 007a 002E     		cmp	r6, #0
 732 007c 07DB     		blt	.L53
 733              	.L51:
 902:Drivers/STM32G0xx_HAL_Driver/Src/stm32g0xx_hal_flash_ex.c **** }
 734              		.loc 1 902 3 is_stmt 1 view .LVU165
 902:Drivers/STM32G0xx_HAL_Driver/Src/stm32g0xx_hal_flash_ex.c **** }
 735              		.loc 1 902 20 is_stmt 0 view .LVU166
 736 007e 0C4A     		ldr	r2, .L54+24
 737 0080 9362     		str	r3, [r2, #40]
 903:Drivers/STM32G0xx_HAL_Driver/Src/stm32g0xx_hal_flash_ex.c **** 
 738              		.loc 1 903 1 view .LVU167
 739              		@ sp needed
 740              	.LVL60:
 903:Drivers/STM32G0xx_HAL_Driver/Src/stm32g0xx_hal_flash_ex.c **** 
ARM GAS  /tmp/ccXI1us5.s 			page 38


 741              		.loc 1 903 1 view .LVU168
 742 0082 70BD     		pop	{r4, r5, r6, pc}
 743              	.LVL61:
 744              	.L52:
 853:Drivers/STM32G0xx_HAL_Driver/Src/stm32g0xx_hal_flash_ex.c **** 
 745              		.loc 1 853 3 discriminator 1 view .LVU169
 746 0084 0B49     		ldr	r1, .L54+28
 747              	.LVL62:
 853:Drivers/STM32G0xx_HAL_Driver/Src/stm32g0xx_hal_flash_ex.c **** 
 748              		.loc 1 853 3 discriminator 1 view .LVU170
 749 0086 0848     		ldr	r0, .L54+16
 750              	.LVL63:
 853:Drivers/STM32G0xx_HAL_Driver/Src/stm32g0xx_hal_flash_ex.c **** 
 751              		.loc 1 853 3 discriminator 1 view .LVU171
 752 0088 FFF7FEFF 		bl	assert_failed
 753              	.LVL64:
 853:Drivers/STM32G0xx_HAL_Driver/Src/stm32g0xx_hal_flash_ex.c **** 
 754              		.loc 1 853 3 discriminator 1 view .LVU172
 755 008c BFE7     		b	.L45
 756              	.LVL65:
 757              	.L53:
 898:Drivers/STM32G0xx_HAL_Driver/Src/stm32g0xx_hal_flash_ex.c ****   }
 758              		.loc 1 898 5 is_stmt 1 view .LVU173
 898:Drivers/STM32G0xx_HAL_Driver/Src/stm32g0xx_hal_flash_ex.c ****   }
 759              		.loc 1 898 16 is_stmt 0 view .LVU174
 760 008e 8022     		movs	r2, #128
 761 0090 1206     		lsls	r2, r2, #24
 762 0092 1343     		orrs	r3, r2
 763              	.LVL66:
 898:Drivers/STM32G0xx_HAL_Driver/Src/stm32g0xx_hal_flash_ex.c ****   }
 764              		.loc 1 898 16 view .LVU175
 765 0094 F3E7     		b	.L51
 766              	.L55:
 767 0096 C046     		.align	2
 768              	.L54:
 769 0098 FCFFFF7F 		.word	2147483644
 770 009c E075FF1F 		.word	536835552
 771 00a0 FFFFFF07 		.word	134217727
 772 00a4 66030000 		.word	870
 773 00a8 00000000 		.word	.LC0
 774 00ac 67030000 		.word	871
 775 00b0 00200240 		.word	1073881088
 776 00b4 55030000 		.word	853
 777              		.cfi_endproc
 778              	.LFE344:
 780              		.section	.text.FLASH_OB_PCROP1BConfig,"ax",%progbits
 781              		.align	1
 782              		.syntax unified
 783              		.code	16
 784              		.thumb_func
 786              	FLASH_OB_PCROP1BConfig:
 787              	.LVL67:
 788              	.LFB345:
 919:Drivers/STM32G0xx_HAL_Driver/Src/stm32g0xx_hal_flash_ex.c ****   uint32_t startoffset;
 789              		.loc 1 919 1 is_stmt 1 view -0
 790              		.cfi_startproc
 791              		@ args = 0, pretend = 0, frame = 0
ARM GAS  /tmp/ccXI1us5.s 			page 39


 792              		@ frame_needed = 0, uses_anonymous_args = 0
 919:Drivers/STM32G0xx_HAL_Driver/Src/stm32g0xx_hal_flash_ex.c ****   uint32_t startoffset;
 793              		.loc 1 919 1 is_stmt 0 view .LVU177
 794 0000 70B5     		push	{r4, r5, r6, lr}
 795              	.LCFI7:
 796              		.cfi_def_cfa_offset 16
 797              		.cfi_offset 4, -16
 798              		.cfi_offset 5, -12
 799              		.cfi_offset 6, -8
 800              		.cfi_offset 14, -4
 801 0002 0500     		movs	r5, r0
 802 0004 0C00     		movs	r4, r1
 920:Drivers/STM32G0xx_HAL_Driver/Src/stm32g0xx_hal_flash_ex.c ****   uint32_t endoffset;
 803              		.loc 1 920 3 is_stmt 1 view .LVU178
 921:Drivers/STM32G0xx_HAL_Driver/Src/stm32g0xx_hal_flash_ex.c ****   uint32_t ropbase;
 804              		.loc 1 921 3 view .LVU179
 922:Drivers/STM32G0xx_HAL_Driver/Src/stm32g0xx_hal_flash_ex.c **** 
 805              		.loc 1 922 3 view .LVU180
 939:Drivers/STM32G0xx_HAL_Driver/Src/stm32g0xx_hal_flash_ex.c ****     assert_param(IS_FLASH_MAIN_FIRSTHALF_MEM_ADDRESS(PCROP1BEndAddr));
 806              		.loc 1 939 5 view .LVU181
 807 0006 8023     		movs	r3, #128
 808 0008 1B05     		lsls	r3, r3, #20
 809 000a 9842     		cmp	r0, r3
 810 000c 0AD3     		bcc	.L57
 939:Drivers/STM32G0xx_HAL_Driver/Src/stm32g0xx_hal_flash_ex.c ****     assert_param(IS_FLASH_MAIN_FIRSTHALF_MEM_ADDRESS(PCROP1BEndAddr));
 811              		.loc 1 939 5 is_stmt 0 discriminator 2 view .LVU182
 812 000e 174B     		ldr	r3, .L61
 813 0010 1B68     		ldr	r3, [r3]
 814 0012 9B02     		lsls	r3, r3, #10
 815 0014 FF22     		movs	r2, #255
 816 0016 9202     		lsls	r2, r2, #10
 817 0018 1340     		ands	r3, r2
 818 001a 154A     		ldr	r2, .L61+4
 819 001c 9446     		mov	ip, r2
 820 001e 6344     		add	r3, r3, ip
 821 0020 8342     		cmp	r3, r0
 822 0022 03D2     		bcs	.L58
 823              	.L57:
 939:Drivers/STM32G0xx_HAL_Driver/Src/stm32g0xx_hal_flash_ex.c ****     assert_param(IS_FLASH_MAIN_FIRSTHALF_MEM_ADDRESS(PCROP1BEndAddr));
 824              		.loc 1 939 5 discriminator 3 view .LVU183
 825 0024 1349     		ldr	r1, .L61+8
 826              	.LVL68:
 939:Drivers/STM32G0xx_HAL_Driver/Src/stm32g0xx_hal_flash_ex.c ****     assert_param(IS_FLASH_MAIN_FIRSTHALF_MEM_ADDRESS(PCROP1BEndAddr));
 827              		.loc 1 939 5 discriminator 3 view .LVU184
 828 0026 1448     		ldr	r0, .L61+12
 829              	.LVL69:
 939:Drivers/STM32G0xx_HAL_Driver/Src/stm32g0xx_hal_flash_ex.c ****     assert_param(IS_FLASH_MAIN_FIRSTHALF_MEM_ADDRESS(PCROP1BEndAddr));
 830              		.loc 1 939 5 discriminator 3 view .LVU185
 831 0028 FFF7FEFF 		bl	assert_failed
 832              	.LVL70:
 833              	.L58:
 940:Drivers/STM32G0xx_HAL_Driver/Src/stm32g0xx_hal_flash_ex.c **** 
 834              		.loc 1 940 5 is_stmt 1 view .LVU186
 835 002c 8023     		movs	r3, #128
 836 002e 1B05     		lsls	r3, r3, #20
 837 0030 9C42     		cmp	r4, r3
 838 0032 0AD3     		bcc	.L59
ARM GAS  /tmp/ccXI1us5.s 			page 40


 940:Drivers/STM32G0xx_HAL_Driver/Src/stm32g0xx_hal_flash_ex.c **** 
 839              		.loc 1 940 5 is_stmt 0 discriminator 2 view .LVU187
 840 0034 0D4B     		ldr	r3, .L61
 841 0036 1B68     		ldr	r3, [r3]
 842 0038 9B02     		lsls	r3, r3, #10
 843 003a FF22     		movs	r2, #255
 844 003c 9202     		lsls	r2, r2, #10
 845 003e 1340     		ands	r3, r2
 846 0040 0B4A     		ldr	r2, .L61+4
 847 0042 9446     		mov	ip, r2
 848 0044 6344     		add	r3, r3, ip
 849 0046 A342     		cmp	r3, r4
 850 0048 04D2     		bcs	.L60
 851              	.L59:
 940:Drivers/STM32G0xx_HAL_Driver/Src/stm32g0xx_hal_flash_ex.c **** 
 852              		.loc 1 940 5 discriminator 3 view .LVU188
 853 004a EB21     		movs	r1, #235
 854 004c 8900     		lsls	r1, r1, #2
 855 004e 0A48     		ldr	r0, .L61+12
 856 0050 FFF7FEFF 		bl	assert_failed
 857              	.LVL71:
 858              	.L60:
 943:Drivers/STM32G0xx_HAL_Driver/Src/stm32g0xx_hal_flash_ex.c ****   }
 859              		.loc 1 943 5 is_stmt 1 view .LVU189
 947:Drivers/STM32G0xx_HAL_Driver/Src/stm32g0xx_hal_flash_ex.c ****   endoffset = ((PCROP1BEndAddr - ropbase) >> FLASH_PCROP_GRANULARITY_OFFSET);
 860              		.loc 1 947 3 view .LVU190
 947:Drivers/STM32G0xx_HAL_Driver/Src/stm32g0xx_hal_flash_ex.c ****   endoffset = ((PCROP1BEndAddr - ropbase) >> FLASH_PCROP_GRANULARITY_OFFSET);
 861              		.loc 1 947 36 is_stmt 0 view .LVU191
 862 0054 F823     		movs	r3, #248
 863 0056 1B06     		lsls	r3, r3, #24
 864 0058 9C46     		mov	ip, r3
 865 005a 6544     		add	r5, r5, ip
 866              	.LVL72:
 947:Drivers/STM32G0xx_HAL_Driver/Src/stm32g0xx_hal_flash_ex.c ****   endoffset = ((PCROP1BEndAddr - ropbase) >> FLASH_PCROP_GRANULARITY_OFFSET);
 867              		.loc 1 947 15 view .LVU192
 868 005c 6D0A     		lsrs	r5, r5, #9
 869              	.LVL73:
 948:Drivers/STM32G0xx_HAL_Driver/Src/stm32g0xx_hal_flash_ex.c **** 
 870              		.loc 1 948 3 is_stmt 1 view .LVU193
 948:Drivers/STM32G0xx_HAL_Driver/Src/stm32g0xx_hal_flash_ex.c **** 
 871              		.loc 1 948 32 is_stmt 0 view .LVU194
 872 005e 6444     		add	r4, r4, ip
 873              	.LVL74:
 948:Drivers/STM32G0xx_HAL_Driver/Src/stm32g0xx_hal_flash_ex.c **** 
 874              		.loc 1 948 13 view .LVU195
 875 0060 640A     		lsrs	r4, r4, #9
 876              	.LVL75:
 951:Drivers/STM32G0xx_HAL_Driver/Src/stm32g0xx_hal_flash_ex.c ****   /* Set Zone B end offset */
 877              		.loc 1 951 3 is_stmt 1 view .LVU196
 951:Drivers/STM32G0xx_HAL_Driver/Src/stm32g0xx_hal_flash_ex.c ****   /* Set Zone B end offset */
 878              		.loc 1 951 20 is_stmt 0 view .LVU197
 879 0062 064B     		ldr	r3, .L61+16
 880 0064 5D63     		str	r5, [r3, #52]
 953:Drivers/STM32G0xx_HAL_Driver/Src/stm32g0xx_hal_flash_ex.c **** }
 881              		.loc 1 953 3 is_stmt 1 view .LVU198
 953:Drivers/STM32G0xx_HAL_Driver/Src/stm32g0xx_hal_flash_ex.c **** }
 882              		.loc 1 953 20 is_stmt 0 view .LVU199
ARM GAS  /tmp/ccXI1us5.s 			page 41


 883 0066 9C63     		str	r4, [r3, #56]
 954:Drivers/STM32G0xx_HAL_Driver/Src/stm32g0xx_hal_flash_ex.c **** 
 884              		.loc 1 954 1 view .LVU200
 885              		@ sp needed
 886              	.LVL76:
 887              	.LVL77:
 954:Drivers/STM32G0xx_HAL_Driver/Src/stm32g0xx_hal_flash_ex.c **** 
 888              		.loc 1 954 1 view .LVU201
 889 0068 70BD     		pop	{r4, r5, r6, pc}
 890              	.L62:
 891 006a C046     		.align	2
 892              	.L61:
 893 006c E075FF1F 		.word	536835552
 894 0070 FFFFFF07 		.word	134217727
 895 0074 AB030000 		.word	939
 896 0078 00000000 		.word	.LC0
 897 007c 00200240 		.word	1073881088
 898              		.cfi_endproc
 899              	.LFE345:
 901              		.section	.text.FLASH_OB_SecMemConfig,"ax",%progbits
 902              		.align	1
 903              		.syntax unified
 904              		.code	16
 905              		.thumb_func
 907              	FLASH_OB_SecMemConfig:
 908              	.LVL78:
 909              	.LFB348:
1263:Drivers/STM32G0xx_HAL_Driver/Src/stm32g0xx_hal_flash_ex.c ****   uint32_t secmem;
 910              		.loc 1 1263 1 is_stmt 1 view -0
 911              		.cfi_startproc
 912              		@ args = 0, pretend = 0, frame = 0
 913              		@ frame_needed = 0, uses_anonymous_args = 0
1263:Drivers/STM32G0xx_HAL_Driver/Src/stm32g0xx_hal_flash_ex.c ****   uint32_t secmem;
 914              		.loc 1 1263 1 is_stmt 0 view .LVU203
 915 0000 70B5     		push	{r4, r5, r6, lr}
 916              	.LCFI8:
 917              		.cfi_def_cfa_offset 16
 918              		.cfi_offset 4, -16
 919              		.cfi_offset 5, -12
 920              		.cfi_offset 6, -8
 921              		.cfi_offset 14, -4
 922 0002 0400     		movs	r4, r0
 923 0004 0D00     		movs	r5, r1
1264:Drivers/STM32G0xx_HAL_Driver/Src/stm32g0xx_hal_flash_ex.c **** 
 924              		.loc 1 1264 3 is_stmt 1 view .LVU204
1267:Drivers/STM32G0xx_HAL_Driver/Src/stm32g0xx_hal_flash_ex.c ****   assert_param(IS_OB_SEC_SIZE(SecSize));
 925              		.loc 1 1267 3 view .LVU205
 926 0006 0028     		cmp	r0, #0
 927 0008 03D0     		beq	.L64
1267:Drivers/STM32G0xx_HAL_Driver/Src/stm32g0xx_hal_flash_ex.c ****   assert_param(IS_OB_SEC_SIZE(SecSize));
 928              		.loc 1 1267 3 is_stmt 0 discriminator 1 view .LVU206
 929 000a 8023     		movs	r3, #128
 930 000c 5B02     		lsls	r3, r3, #9
 931 000e 9842     		cmp	r0, r3
 932 0010 12D1     		bne	.L66
 933              	.LVL79:
 934              	.L64:
ARM GAS  /tmp/ccXI1us5.s 			page 42


1268:Drivers/STM32G0xx_HAL_Driver/Src/stm32g0xx_hal_flash_ex.c **** 
 935              		.loc 1 1268 3 is_stmt 1 view .LVU207
 936 0012 0E4B     		ldr	r3, .L68
 937 0014 1B68     		ldr	r3, [r3]
 938 0016 9B02     		lsls	r3, r3, #10
 939 0018 FF22     		movs	r2, #255
 940 001a 9202     		lsls	r2, r2, #10
 941 001c 1340     		ands	r3, r2
 942 001e DB0A     		lsrs	r3, r3, #11
 943 0020 0133     		adds	r3, r3, #1
 944 0022 AB42     		cmp	r3, r5
 945 0024 0DD9     		bls	.L67
 946              	.L65:
1271:Drivers/STM32G0xx_HAL_Driver/Src/stm32g0xx_hal_flash_ex.c ****   FLASH->SECR = (secmem | BootEntry | SecSize);
 947              		.loc 1 1271 3 view .LVU208
1271:Drivers/STM32G0xx_HAL_Driver/Src/stm32g0xx_hal_flash_ex.c ****   FLASH->SECR = (secmem | BootEntry | SecSize);
 948              		.loc 1 1271 18 is_stmt 0 view .LVU209
 949 0026 0A4A     		ldr	r2, .L68+4
 950 0028 8023     		movs	r3, #128
 951 002a D058     		ldr	r0, [r2, r3]
1271:Drivers/STM32G0xx_HAL_Driver/Src/stm32g0xx_hal_flash_ex.c ****   FLASH->SECR = (secmem | BootEntry | SecSize);
 952              		.loc 1 1271 10 view .LVU210
 953 002c 0949     		ldr	r1, .L68+8
 954 002e 0840     		ands	r0, r1
 955              	.LVL80:
1272:Drivers/STM32G0xx_HAL_Driver/Src/stm32g0xx_hal_flash_ex.c **** }
 956              		.loc 1 1272 3 is_stmt 1 view .LVU211
1272:Drivers/STM32G0xx_HAL_Driver/Src/stm32g0xx_hal_flash_ex.c **** }
 957              		.loc 1 1272 25 is_stmt 0 view .LVU212
 958 0030 0443     		orrs	r4, r0
 959              	.LVL81:
1272:Drivers/STM32G0xx_HAL_Driver/Src/stm32g0xx_hal_flash_ex.c **** }
 960              		.loc 1 1272 37 view .LVU213
 961 0032 2C43     		orrs	r4, r5
1272:Drivers/STM32G0xx_HAL_Driver/Src/stm32g0xx_hal_flash_ex.c **** }
 962              		.loc 1 1272 15 view .LVU214
 963 0034 D450     		str	r4, [r2, r3]
1273:Drivers/STM32G0xx_HAL_Driver/Src/stm32g0xx_hal_flash_ex.c **** 
 964              		.loc 1 1273 1 view .LVU215
 965              		@ sp needed
 966              	.LVL82:
1273:Drivers/STM32G0xx_HAL_Driver/Src/stm32g0xx_hal_flash_ex.c **** 
 967              		.loc 1 1273 1 view .LVU216
 968 0036 70BD     		pop	{r4, r5, r6, pc}
 969              	.LVL83:
 970              	.L66:
1267:Drivers/STM32G0xx_HAL_Driver/Src/stm32g0xx_hal_flash_ex.c ****   assert_param(IS_OB_SEC_SIZE(SecSize));
 971              		.loc 1 1267 3 discriminator 2 view .LVU217
 972 0038 0749     		ldr	r1, .L68+12
 973              	.LVL84:
1267:Drivers/STM32G0xx_HAL_Driver/Src/stm32g0xx_hal_flash_ex.c ****   assert_param(IS_OB_SEC_SIZE(SecSize));
 974              		.loc 1 1267 3 discriminator 2 view .LVU218
 975 003a 0848     		ldr	r0, .L68+16
 976              	.LVL85:
1267:Drivers/STM32G0xx_HAL_Driver/Src/stm32g0xx_hal_flash_ex.c ****   assert_param(IS_OB_SEC_SIZE(SecSize));
 977              		.loc 1 1267 3 discriminator 2 view .LVU219
 978 003c FFF7FEFF 		bl	assert_failed
ARM GAS  /tmp/ccXI1us5.s 			page 43


 979              	.LVL86:
 980 0040 E7E7     		b	.L64
 981              	.L67:
1268:Drivers/STM32G0xx_HAL_Driver/Src/stm32g0xx_hal_flash_ex.c **** 
 982              		.loc 1 1268 3 discriminator 1 view .LVU220
 983 0042 0749     		ldr	r1, .L68+20
 984 0044 0548     		ldr	r0, .L68+16
 985 0046 FFF7FEFF 		bl	assert_failed
 986              	.LVL87:
 987 004a ECE7     		b	.L65
 988              	.L69:
 989              		.align	2
 990              	.L68:
 991 004c E075FF1F 		.word	536835552
 992 0050 00200240 		.word	1073881088
 993 0054 80FFFEFF 		.word	-65664
 994 0058 F3040000 		.word	1267
 995 005c 00000000 		.word	.LC0
 996 0060 F4040000 		.word	1268
 997              		.cfi_endproc
 998              	.LFE348:
 1000              		.section	.text.FLASH_OB_GetWRP,"ax",%progbits
 1001              		.align	1
 1002              		.syntax unified
 1003              		.code	16
 1004              		.thumb_func
 1006              	FLASH_OB_GetWRP:
 1007              	.LVL88:
 1008              	.LFB340:
 702:Drivers/STM32G0xx_HAL_Driver/Src/stm32g0xx_hal_flash_ex.c ****   /* Check the parameters */
 1009              		.loc 1 702 1 is_stmt 1 view -0
 1010              		.cfi_startproc
 1011              		@ args = 0, pretend = 0, frame = 0
 1012              		@ frame_needed = 0, uses_anonymous_args = 0
 702:Drivers/STM32G0xx_HAL_Driver/Src/stm32g0xx_hal_flash_ex.c ****   /* Check the parameters */
 1013              		.loc 1 702 1 is_stmt 0 view .LVU222
 1014 0000 70B5     		push	{r4, r5, r6, lr}
 1015              	.LCFI9:
 1016              		.cfi_def_cfa_offset 16
 1017              		.cfi_offset 4, -16
 1018              		.cfi_offset 5, -12
 1019              		.cfi_offset 6, -8
 1020              		.cfi_offset 14, -4
 1021 0002 0400     		movs	r4, r0
 1022 0004 0E00     		movs	r6, r1
 1023 0006 1500     		movs	r5, r2
 704:Drivers/STM32G0xx_HAL_Driver/Src/stm32g0xx_hal_flash_ex.c **** 
 1024              		.loc 1 704 3 is_stmt 1 view .LVU223
 1025 0008 431E     		subs	r3, r0, #1
 1026 000a 012B     		cmp	r3, #1
 1027 000c 0BD8     		bhi	.L74
 1028              	.LVL89:
 1029              	.L71:
 707:Drivers/STM32G0xx_HAL_Driver/Src/stm32g0xx_hal_flash_ex.c ****   {
 1030              		.loc 1 707 3 view .LVU224
 707:Drivers/STM32G0xx_HAL_Driver/Src/stm32g0xx_hal_flash_ex.c ****   {
 1031              		.loc 1 707 6 is_stmt 0 view .LVU225
ARM GAS  /tmp/ccXI1us5.s 			page 44


 1032 000e 012C     		cmp	r4, #1
 1033 0010 0FD0     		beq	.L75
 726:Drivers/STM32G0xx_HAL_Driver/Src/stm32g0xx_hal_flash_ex.c ****     *WRDPEndOffset = (READ_BIT(FLASH->WRP1BR, FLASH_WRP1BR_WRP1B_END) >> FLASH_WRP1BR_WRP1B_END_Pos
 1034              		.loc 1 726 5 is_stmt 1 view .LVU226
 726:Drivers/STM32G0xx_HAL_Driver/Src/stm32g0xx_hal_flash_ex.c ****     *WRDPEndOffset = (READ_BIT(FLASH->WRP1BR, FLASH_WRP1BR_WRP1B_END) >> FLASH_WRP1BR_WRP1B_END_Pos
 1035              		.loc 1 726 23 is_stmt 0 view .LVU227
 1036 0012 0D49     		ldr	r1, .L76
 1037 0014 0A6B     		ldr	r2, [r1, #48]
 1038 0016 3F23     		movs	r3, #63
 1039 0018 1A40     		ands	r2, r3
 726:Drivers/STM32G0xx_HAL_Driver/Src/stm32g0xx_hal_flash_ex.c ****     *WRDPEndOffset = (READ_BIT(FLASH->WRP1BR, FLASH_WRP1BR_WRP1B_END) >> FLASH_WRP1BR_WRP1B_END_Pos
 1040              		.loc 1 726 21 view .LVU228
 1041 001a 3260     		str	r2, [r6]
 727:Drivers/STM32G0xx_HAL_Driver/Src/stm32g0xx_hal_flash_ex.c ****   }
 1042              		.loc 1 727 5 is_stmt 1 view .LVU229
 727:Drivers/STM32G0xx_HAL_Driver/Src/stm32g0xx_hal_flash_ex.c ****   }
 1043              		.loc 1 727 23 is_stmt 0 view .LVU230
 1044 001c 0A6B     		ldr	r2, [r1, #48]
 727:Drivers/STM32G0xx_HAL_Driver/Src/stm32g0xx_hal_flash_ex.c ****   }
 1045              		.loc 1 727 71 view .LVU231
 1046 001e 120C     		lsrs	r2, r2, #16
 1047 0020 1340     		ands	r3, r2
 727:Drivers/STM32G0xx_HAL_Driver/Src/stm32g0xx_hal_flash_ex.c ****   }
 1048              		.loc 1 727 20 view .LVU232
 1049 0022 2B60     		str	r3, [r5]
 1050              	.L70:
 729:Drivers/STM32G0xx_HAL_Driver/Src/stm32g0xx_hal_flash_ex.c **** 
 1051              		.loc 1 729 1 view .LVU233
 1052              		@ sp needed
 1053              	.LVL90:
 1054              	.LVL91:
 1055              	.LVL92:
 729:Drivers/STM32G0xx_HAL_Driver/Src/stm32g0xx_hal_flash_ex.c **** 
 1056              		.loc 1 729 1 view .LVU234
 1057 0024 70BD     		pop	{r4, r5, r6, pc}
 1058              	.LVL93:
 1059              	.L74:
 704:Drivers/STM32G0xx_HAL_Driver/Src/stm32g0xx_hal_flash_ex.c **** 
 1060              		.loc 1 704 3 discriminator 1 view .LVU235
 1061 0026 B021     		movs	r1, #176
 1062              	.LVL94:
 704:Drivers/STM32G0xx_HAL_Driver/Src/stm32g0xx_hal_flash_ex.c **** 
 1063              		.loc 1 704 3 discriminator 1 view .LVU236
 1064 0028 8900     		lsls	r1, r1, #2
 1065 002a 0848     		ldr	r0, .L76+4
 1066              	.LVL95:
 704:Drivers/STM32G0xx_HAL_Driver/Src/stm32g0xx_hal_flash_ex.c **** 
 1067              		.loc 1 704 3 discriminator 1 view .LVU237
 1068 002c FFF7FEFF 		bl	assert_failed
 1069              	.LVL96:
 704:Drivers/STM32G0xx_HAL_Driver/Src/stm32g0xx_hal_flash_ex.c **** 
 1070              		.loc 1 704 3 discriminator 1 view .LVU238
 1071 0030 EDE7     		b	.L71
 1072              	.L75:
 709:Drivers/STM32G0xx_HAL_Driver/Src/stm32g0xx_hal_flash_ex.c ****     *WRDPEndOffset = (READ_BIT(FLASH->WRP1AR, FLASH_WRP1AR_WRP1A_END) >> FLASH_WRP1AR_WRP1A_END_Pos
 1073              		.loc 1 709 5 is_stmt 1 view .LVU239
 709:Drivers/STM32G0xx_HAL_Driver/Src/stm32g0xx_hal_flash_ex.c ****     *WRDPEndOffset = (READ_BIT(FLASH->WRP1AR, FLASH_WRP1AR_WRP1A_END) >> FLASH_WRP1AR_WRP1A_END_Pos
ARM GAS  /tmp/ccXI1us5.s 			page 45


 1074              		.loc 1 709 23 is_stmt 0 view .LVU240
 1075 0032 0549     		ldr	r1, .L76
 1076 0034 CA6A     		ldr	r2, [r1, #44]
 1077 0036 3F23     		movs	r3, #63
 1078 0038 1A40     		ands	r2, r3
 709:Drivers/STM32G0xx_HAL_Driver/Src/stm32g0xx_hal_flash_ex.c ****     *WRDPEndOffset = (READ_BIT(FLASH->WRP1AR, FLASH_WRP1AR_WRP1A_END) >> FLASH_WRP1AR_WRP1A_END_Pos
 1079              		.loc 1 709 21 view .LVU241
 1080 003a 3260     		str	r2, [r6]
 710:Drivers/STM32G0xx_HAL_Driver/Src/stm32g0xx_hal_flash_ex.c ****   }
 1081              		.loc 1 710 5 is_stmt 1 view .LVU242
 710:Drivers/STM32G0xx_HAL_Driver/Src/stm32g0xx_hal_flash_ex.c ****   }
 1082              		.loc 1 710 23 is_stmt 0 view .LVU243
 1083 003c CA6A     		ldr	r2, [r1, #44]
 710:Drivers/STM32G0xx_HAL_Driver/Src/stm32g0xx_hal_flash_ex.c ****   }
 1084              		.loc 1 710 71 view .LVU244
 1085 003e 120C     		lsrs	r2, r2, #16
 1086 0040 1340     		ands	r3, r2
 710:Drivers/STM32G0xx_HAL_Driver/Src/stm32g0xx_hal_flash_ex.c ****   }
 1087              		.loc 1 710 20 view .LVU245
 1088 0042 2B60     		str	r3, [r5]
 1089 0044 EEE7     		b	.L70
 1090              	.L77:
 1091 0046 C046     		.align	2
 1092              	.L76:
 1093 0048 00200240 		.word	1073881088
 1094 004c 00000000 		.word	.LC0
 1095              		.cfi_endproc
 1096              	.LFE340:
 1098              		.section	.text.HAL_FLASHEx_OBProgram,"ax",%progbits
 1099              		.align	1
 1100              		.global	HAL_FLASHEx_OBProgram
 1101              		.syntax unified
 1102              		.code	16
 1103              		.thumb_func
 1105              	HAL_FLASHEx_OBProgram:
 1106              	.LVL97:
 1107              	.LFB329:
 298:Drivers/STM32G0xx_HAL_Driver/Src/stm32g0xx_hal_flash_ex.c ****   uint32_t optr;
 1108              		.loc 1 298 1 is_stmt 1 view -0
 1109              		.cfi_startproc
 1110              		@ args = 0, pretend = 0, frame = 0
 1111              		@ frame_needed = 0, uses_anonymous_args = 0
 298:Drivers/STM32G0xx_HAL_Driver/Src/stm32g0xx_hal_flash_ex.c ****   uint32_t optr;
 1112              		.loc 1 298 1 is_stmt 0 view .LVU247
 1113 0000 10B5     		push	{r4, lr}
 1114              	.LCFI10:
 1115              		.cfi_def_cfa_offset 8
 1116              		.cfi_offset 4, -8
 1117              		.cfi_offset 14, -4
 1118 0002 0400     		movs	r4, r0
 299:Drivers/STM32G0xx_HAL_Driver/Src/stm32g0xx_hal_flash_ex.c ****   HAL_StatusTypeDef status;
 1119              		.loc 1 299 3 is_stmt 1 view .LVU248
 300:Drivers/STM32G0xx_HAL_Driver/Src/stm32g0xx_hal_flash_ex.c **** 
 1120              		.loc 1 300 3 view .LVU249
 303:Drivers/STM32G0xx_HAL_Driver/Src/stm32g0xx_hal_flash_ex.c **** 
 1121              		.loc 1 303 3 view .LVU250
 1122 0004 0368     		ldr	r3, [r0]
ARM GAS  /tmp/ccXI1us5.s 			page 46


 1123 0006 DA06     		lsls	r2, r3, #27
 1124 0008 02D0     		beq	.L79
 303:Drivers/STM32G0xx_HAL_Driver/Src/stm32g0xx_hal_flash_ex.c **** 
 1125              		.loc 1 303 3 is_stmt 0 discriminator 2 view .LVU251
 1126 000a 1F22     		movs	r2, #31
 1127 000c 9343     		bics	r3, r2
 1128 000e 04D0     		beq	.L80
 1129              	.L79:
 303:Drivers/STM32G0xx_HAL_Driver/Src/stm32g0xx_hal_flash_ex.c **** 
 1130              		.loc 1 303 3 discriminator 3 view .LVU252
 1131 0010 3021     		movs	r1, #48
 1132 0012 FF31     		adds	r1, r1, #255
 1133 0014 3948     		ldr	r0, .L101
 1134              	.LVL98:
 303:Drivers/STM32G0xx_HAL_Driver/Src/stm32g0xx_hal_flash_ex.c **** 
 1135              		.loc 1 303 3 discriminator 3 view .LVU253
 1136 0016 FFF7FEFF 		bl	assert_failed
 1137              	.LVL99:
 1138              	.L80:
 306:Drivers/STM32G0xx_HAL_Driver/Src/stm32g0xx_hal_flash_ex.c **** 
 1139              		.loc 1 306 3 is_stmt 1 view .LVU254
 306:Drivers/STM32G0xx_HAL_Driver/Src/stm32g0xx_hal_flash_ex.c **** 
 1140              		.loc 1 306 3 view .LVU255
 1141 001a 394B     		ldr	r3, .L101+4
 1142 001c 1B78     		ldrb	r3, [r3]
 1143 001e 012B     		cmp	r3, #1
 1144 0020 6AD0     		beq	.L91
 306:Drivers/STM32G0xx_HAL_Driver/Src/stm32g0xx_hal_flash_ex.c **** 
 1145              		.loc 1 306 3 discriminator 2 view .LVU256
 1146 0022 374A     		ldr	r2, .L101+4
 1147 0024 0123     		movs	r3, #1
 1148 0026 1370     		strb	r3, [r2]
 306:Drivers/STM32G0xx_HAL_Driver/Src/stm32g0xx_hal_flash_ex.c **** 
 1149              		.loc 1 306 3 discriminator 2 view .LVU257
 308:Drivers/STM32G0xx_HAL_Driver/Src/stm32g0xx_hal_flash_ex.c **** 
 1150              		.loc 1 308 3 discriminator 2 view .LVU258
 308:Drivers/STM32G0xx_HAL_Driver/Src/stm32g0xx_hal_flash_ex.c **** 
 1151              		.loc 1 308 20 is_stmt 0 discriminator 2 view .LVU259
 1152 0028 0021     		movs	r1, #0
 1153 002a 5160     		str	r1, [r2, #4]
 311:Drivers/STM32G0xx_HAL_Driver/Src/stm32g0xx_hal_flash_ex.c ****   {
 1154              		.loc 1 311 3 is_stmt 1 discriminator 2 view .LVU260
 311:Drivers/STM32G0xx_HAL_Driver/Src/stm32g0xx_hal_flash_ex.c ****   {
 1155              		.loc 1 311 6 is_stmt 0 discriminator 2 view .LVU261
 1156 002c 2268     		ldr	r2, [r4]
 1157 002e 1342     		tst	r3, r2
 1158 0030 23D1     		bne	.L92
 1159              	.L82:
 318:Drivers/STM32G0xx_HAL_Driver/Src/stm32g0xx_hal_flash_ex.c ****   {
 1160              		.loc 1 318 3 is_stmt 1 view .LVU262
 318:Drivers/STM32G0xx_HAL_Driver/Src/stm32g0xx_hal_flash_ex.c ****   {
 1161              		.loc 1 318 15 is_stmt 0 view .LVU263
 1162 0032 2268     		ldr	r2, [r4]
 318:Drivers/STM32G0xx_HAL_Driver/Src/stm32g0xx_hal_flash_ex.c ****   {
 1163              		.loc 1 318 28 view .LVU264
 1164 0034 0623     		movs	r3, #6
 1165 0036 1340     		ands	r3, r2
ARM GAS  /tmp/ccXI1us5.s 			page 47


 318:Drivers/STM32G0xx_HAL_Driver/Src/stm32g0xx_hal_flash_ex.c ****   {
 1166              		.loc 1 318 6 view .LVU265
 1167 0038 062B     		cmp	r3, #6
 1168 003a 24D0     		beq	.L93
 323:Drivers/STM32G0xx_HAL_Driver/Src/stm32g0xx_hal_flash_ex.c ****   {
 1169              		.loc 1 323 8 is_stmt 1 view .LVU266
 323:Drivers/STM32G0xx_HAL_Driver/Src/stm32g0xx_hal_flash_ex.c ****   {
 1170              		.loc 1 323 11 is_stmt 0 view .LVU267
 1171 003c 9307     		lsls	r3, r2, #30
 1172 003e 28D4     		bmi	.L94
 329:Drivers/STM32G0xx_HAL_Driver/Src/stm32g0xx_hal_flash_ex.c ****   {
 1173              		.loc 1 329 8 is_stmt 1 view .LVU268
 329:Drivers/STM32G0xx_HAL_Driver/Src/stm32g0xx_hal_flash_ex.c ****   {
 1174              		.loc 1 329 11 is_stmt 0 view .LVU269
 1175 0040 5307     		lsls	r3, r2, #29
 1176 0042 2DD4     		bmi	.L95
 1177              	.L84:
 338:Drivers/STM32G0xx_HAL_Driver/Src/stm32g0xx_hal_flash_ex.c **** 
 1178              		.loc 1 338 3 is_stmt 1 view .LVU270
 342:Drivers/STM32G0xx_HAL_Driver/Src/stm32g0xx_hal_flash_ex.c ****   {
 1179              		.loc 1 342 3 view .LVU271
 342:Drivers/STM32G0xx_HAL_Driver/Src/stm32g0xx_hal_flash_ex.c ****   {
 1180              		.loc 1 342 6 is_stmt 0 view .LVU272
 1181 0044 2368     		ldr	r3, [r4]
 1182 0046 1B07     		lsls	r3, r3, #28
 1183 0048 0AD5     		bpl	.L86
 345:Drivers/STM32G0xx_HAL_Driver/Src/stm32g0xx_hal_flash_ex.c **** 
 1184              		.loc 1 345 5 is_stmt 1 view .LVU273
 1185 004a 2E4B     		ldr	r3, .L101+8
 1186 004c E269     		ldr	r2, [r4, #28]
 1187 004e 1A42     		tst	r2, r3
 1188 0050 2ED1     		bne	.L96
 1189              	.L87:
 347:Drivers/STM32G0xx_HAL_Driver/Src/stm32g0xx_hal_flash_ex.c ****     {
 1190              		.loc 1 347 5 view .LVU274
 347:Drivers/STM32G0xx_HAL_Driver/Src/stm32g0xx_hal_flash_ex.c ****     {
 1191              		.loc 1 347 17 is_stmt 0 view .LVU275
 1192 0052 E069     		ldr	r0, [r4, #28]
 347:Drivers/STM32G0xx_HAL_Driver/Src/stm32g0xx_hal_flash_ex.c ****     {
 1193              		.loc 1 347 31 view .LVU276
 1194 0054 2C4B     		ldr	r3, .L101+12
 347:Drivers/STM32G0xx_HAL_Driver/Src/stm32g0xx_hal_flash_ex.c ****     {
 1195              		.loc 1 347 8 view .LVU277
 1196 0056 1842     		tst	r0, r3
 1197 0058 30D1     		bne	.L97
 1198              	.L88:
 353:Drivers/STM32G0xx_HAL_Driver/Src/stm32g0xx_hal_flash_ex.c ****     {
 1199              		.loc 1 353 5 is_stmt 1 view .LVU278
 353:Drivers/STM32G0xx_HAL_Driver/Src/stm32g0xx_hal_flash_ex.c ****     {
 1200              		.loc 1 353 8 is_stmt 0 view .LVU279
 1201 005a E369     		ldr	r3, [r4, #28]
 1202 005c 9B07     		lsls	r3, r3, #30
 1203 005e 32D4     		bmi	.L98
 1204              	.L86:
 377:Drivers/STM32G0xx_HAL_Driver/Src/stm32g0xx_hal_flash_ex.c ****   {
 1205              		.loc 1 377 3 is_stmt 1 view .LVU280
 377:Drivers/STM32G0xx_HAL_Driver/Src/stm32g0xx_hal_flash_ex.c ****   {
ARM GAS  /tmp/ccXI1us5.s 			page 48


 1206              		.loc 1 377 6 is_stmt 0 view .LVU281
 1207 0060 2368     		ldr	r3, [r4]
 1208 0062 DB06     		lsls	r3, r3, #27
 1209 0064 34D4     		bmi	.L99
 1210              	.L89:
 390:Drivers/STM32G0xx_HAL_Driver/Src/stm32g0xx_hal_flash_ex.c **** 
 1211              		.loc 1 390 3 is_stmt 1 view .LVU282
 390:Drivers/STM32G0xx_HAL_Driver/Src/stm32g0xx_hal_flash_ex.c **** 
 1212              		.loc 1 390 12 is_stmt 0 view .LVU283
 1213 0066 FA20     		movs	r0, #250
 1214 0068 8000     		lsls	r0, r0, #2
 1215 006a FFF7FEFF 		bl	FLASH_WaitForLastOperation
 1216              	.LVL100:
 392:Drivers/STM32G0xx_HAL_Driver/Src/stm32g0xx_hal_flash_ex.c ****   {
 1217              		.loc 1 392 3 is_stmt 1 view .LVU284
 392:Drivers/STM32G0xx_HAL_Driver/Src/stm32g0xx_hal_flash_ex.c ****   {
 1218              		.loc 1 392 6 is_stmt 0 view .LVU285
 1219 006e 0028     		cmp	r0, #0
 1220 0070 33D0     		beq	.L100
 1221              	.LVL101:
 1222              	.L90:
 405:Drivers/STM32G0xx_HAL_Driver/Src/stm32g0xx_hal_flash_ex.c **** 
 1223              		.loc 1 405 3 is_stmt 1 view .LVU286
 405:Drivers/STM32G0xx_HAL_Driver/Src/stm32g0xx_hal_flash_ex.c **** 
 1224              		.loc 1 405 3 view .LVU287
 1225 0072 234B     		ldr	r3, .L101+4
 1226 0074 0022     		movs	r2, #0
 1227 0076 1A70     		strb	r2, [r3]
 405:Drivers/STM32G0xx_HAL_Driver/Src/stm32g0xx_hal_flash_ex.c **** 
 1228              		.loc 1 405 3 view .LVU288
 408:Drivers/STM32G0xx_HAL_Driver/Src/stm32g0xx_hal_flash_ex.c **** }
 1229              		.loc 1 408 3 view .LVU289
 1230              	.LVL102:
 1231              	.L81:
 409:Drivers/STM32G0xx_HAL_Driver/Src/stm32g0xx_hal_flash_ex.c **** 
 1232              		.loc 1 409 1 is_stmt 0 view .LVU290
 1233              		@ sp needed
 1234 0078 10BD     		pop	{r4, pc}
 1235              	.LVL103:
 1236              	.L92:
 314:Drivers/STM32G0xx_HAL_Driver/Src/stm32g0xx_hal_flash_ex.c ****   }
 1237              		.loc 1 314 5 is_stmt 1 view .LVU291
 1238 007a E268     		ldr	r2, [r4, #12]
 1239 007c A168     		ldr	r1, [r4, #8]
 1240 007e 6068     		ldr	r0, [r4, #4]
 1241 0080 FFF7FEFF 		bl	FLASH_OB_WRPConfig
 1242              	.LVL104:
 1243 0084 D5E7     		b	.L82
 1244              	.L93:
 321:Drivers/STM32G0xx_HAL_Driver/Src/stm32g0xx_hal_flash_ex.c ****   }
 1245              		.loc 1 321 5 view .LVU292
 1246 0086 2269     		ldr	r2, [r4, #16]
 1247 0088 A169     		ldr	r1, [r4, #24]
 1248 008a 6069     		ldr	r0, [r4, #20]
 1249 008c FFF7FEFF 		bl	FLASH_OB_OptrConfig
 1250              	.LVL105:
 1251 0090 D8E7     		b	.L84
ARM GAS  /tmp/ccXI1us5.s 			page 49


 1252              	.L94:
 326:Drivers/STM32G0xx_HAL_Driver/Src/stm32g0xx_hal_flash_ex.c ****     FLASH_OB_OptrConfig(optr, optr, pOBInit->RDPLevel);
 1253              		.loc 1 326 5 view .LVU293
 326:Drivers/STM32G0xx_HAL_Driver/Src/stm32g0xx_hal_flash_ex.c ****     FLASH_OB_OptrConfig(optr, optr, pOBInit->RDPLevel);
 1254              		.loc 1 326 12 is_stmt 0 view .LVU294
 1255 0092 FFF7FEFF 		bl	FLASH_OB_GetUser
 1256              	.LVL106:
 327:Drivers/STM32G0xx_HAL_Driver/Src/stm32g0xx_hal_flash_ex.c ****   }
 1257              		.loc 1 327 5 is_stmt 1 view .LVU295
 1258 0096 2269     		ldr	r2, [r4, #16]
 1259 0098 0100     		movs	r1, r0
 1260 009a FFF7FEFF 		bl	FLASH_OB_OptrConfig
 1261              	.LVL107:
 327:Drivers/STM32G0xx_HAL_Driver/Src/stm32g0xx_hal_flash_ex.c ****   }
 1262              		.loc 1 327 5 is_stmt 0 view .LVU296
 1263 009e D1E7     		b	.L84
 1264              	.L95:
 332:Drivers/STM32G0xx_HAL_Driver/Src/stm32g0xx_hal_flash_ex.c ****     FLASH_OB_OptrConfig(pOBInit->USERType, pOBInit->USERConfig, optr);
 1265              		.loc 1 332 5 is_stmt 1 view .LVU297
 332:Drivers/STM32G0xx_HAL_Driver/Src/stm32g0xx_hal_flash_ex.c ****     FLASH_OB_OptrConfig(pOBInit->USERType, pOBInit->USERConfig, optr);
 1266              		.loc 1 332 12 is_stmt 0 view .LVU298
 1267 00a0 FFF7FEFF 		bl	FLASH_OB_GetRDP
 1268              	.LVL108:
 1269 00a4 0200     		movs	r2, r0
 1270              	.LVL109:
 333:Drivers/STM32G0xx_HAL_Driver/Src/stm32g0xx_hal_flash_ex.c ****   }
 1271              		.loc 1 333 5 is_stmt 1 view .LVU299
 1272 00a6 A169     		ldr	r1, [r4, #24]
 1273 00a8 6069     		ldr	r0, [r4, #20]
 1274              	.LVL110:
 333:Drivers/STM32G0xx_HAL_Driver/Src/stm32g0xx_hal_flash_ex.c ****   }
 1275              		.loc 1 333 5 is_stmt 0 view .LVU300
 1276 00aa FFF7FEFF 		bl	FLASH_OB_OptrConfig
 1277              	.LVL111:
 333:Drivers/STM32G0xx_HAL_Driver/Src/stm32g0xx_hal_flash_ex.c ****   }
 1278              		.loc 1 333 5 view .LVU301
 1279 00ae C9E7     		b	.L84
 1280              	.L96:
 345:Drivers/STM32G0xx_HAL_Driver/Src/stm32g0xx_hal_flash_ex.c **** 
 1281              		.loc 1 345 5 discriminator 1 view .LVU302
 1282 00b0 5A21     		movs	r1, #90
 1283 00b2 FF31     		adds	r1, r1, #255
 1284 00b4 1148     		ldr	r0, .L101
 1285 00b6 FFF7FEFF 		bl	assert_failed
 1286              	.LVL112:
 1287 00ba CAE7     		b	.L87
 1288              	.L97:
 350:Drivers/STM32G0xx_HAL_Driver/Src/stm32g0xx_hal_flash_ex.c ****     }
 1289              		.loc 1 350 7 is_stmt 1 view .LVU303
 1290 00bc 626A     		ldr	r2, [r4, #36]
 1291 00be 216A     		ldr	r1, [r4, #32]
 1292 00c0 FFF7FEFF 		bl	FLASH_OB_PCROP1AConfig
 1293              	.LVL113:
 1294 00c4 C9E7     		b	.L88
 1295              	.L98:
 356:Drivers/STM32G0xx_HAL_Driver/Src/stm32g0xx_hal_flash_ex.c ****     }
 1296              		.loc 1 356 7 view .LVU304
ARM GAS  /tmp/ccXI1us5.s 			page 50


 1297 00c6 E16A     		ldr	r1, [r4, #44]
 1298 00c8 A06A     		ldr	r0, [r4, #40]
 1299 00ca FFF7FEFF 		bl	FLASH_OB_PCROP1BConfig
 1300              	.LVL114:
 1301 00ce C7E7     		b	.L86
 1302              	.L99:
 384:Drivers/STM32G0xx_HAL_Driver/Src/stm32g0xx_hal_flash_ex.c **** #endif /* FLASH_DBANK_SUPPORT */
 1303              		.loc 1 384 5 view .LVU305
 1304 00d0 616B     		ldr	r1, [r4, #52]
 1305 00d2 206B     		ldr	r0, [r4, #48]
 1306 00d4 FFF7FEFF 		bl	FLASH_OB_SecMemConfig
 1307              	.LVL115:
 1308 00d8 C5E7     		b	.L89
 1309              	.LVL116:
 1310              	.L100:
 395:Drivers/STM32G0xx_HAL_Driver/Src/stm32g0xx_hal_flash_ex.c **** 
 1311              		.loc 1 395 5 view .LVU306
 1312 00da 0C4C     		ldr	r4, .L101+16
 1313              	.LVL117:
 395:Drivers/STM32G0xx_HAL_Driver/Src/stm32g0xx_hal_flash_ex.c **** 
 1314              		.loc 1 395 5 is_stmt 0 view .LVU307
 1315 00dc 6269     		ldr	r2, [r4, #20]
 1316 00de 8023     		movs	r3, #128
 1317 00e0 9B02     		lsls	r3, r3, #10
 1318 00e2 1343     		orrs	r3, r2
 1319 00e4 6361     		str	r3, [r4, #20]
 398:Drivers/STM32G0xx_HAL_Driver/Src/stm32g0xx_hal_flash_ex.c **** 
 1320              		.loc 1 398 5 is_stmt 1 view .LVU308
 398:Drivers/STM32G0xx_HAL_Driver/Src/stm32g0xx_hal_flash_ex.c **** 
 1321              		.loc 1 398 14 is_stmt 0 view .LVU309
 1322 00e6 FA30     		adds	r0, r0, #250
 1323              	.LVL118:
 398:Drivers/STM32G0xx_HAL_Driver/Src/stm32g0xx_hal_flash_ex.c **** 
 1324              		.loc 1 398 14 view .LVU310
 1325 00e8 8000     		lsls	r0, r0, #2
 1326              	.LVL119:
 398:Drivers/STM32G0xx_HAL_Driver/Src/stm32g0xx_hal_flash_ex.c **** 
 1327              		.loc 1 398 14 view .LVU311
 1328 00ea FFF7FEFF 		bl	FLASH_WaitForLastOperation
 1329              	.LVL120:
 401:Drivers/STM32G0xx_HAL_Driver/Src/stm32g0xx_hal_flash_ex.c ****   }
 1330              		.loc 1 401 5 is_stmt 1 view .LVU312
 1331 00ee 6369     		ldr	r3, [r4, #20]
 1332 00f0 074A     		ldr	r2, .L101+20
 1333 00f2 1340     		ands	r3, r2
 1334 00f4 6361     		str	r3, [r4, #20]
 1335 00f6 BCE7     		b	.L90
 1336              	.LVL121:
 1337              	.L91:
 306:Drivers/STM32G0xx_HAL_Driver/Src/stm32g0xx_hal_flash_ex.c **** 
 1338              		.loc 1 306 3 is_stmt 0 view .LVU313
 1339 00f8 0220     		movs	r0, #2
 1340 00fa BDE7     		b	.L81
 1341              	.L102:
 1342              		.align	2
 1343              	.L101:
 1344 00fc 00000000 		.word	.LC0
ARM GAS  /tmp/ccXI1us5.s 			page 51


 1345 0100 00000000 		.word	pFlash
 1346 0104 FCFFFF7F 		.word	2147483644
 1347 0108 01000080 		.word	-2147483647
 1348 010c 00200240 		.word	1073881088
 1349 0110 FFFFFDFF 		.word	-131073
 1350              		.cfi_endproc
 1351              	.LFE329:
 1353              		.section	.text.HAL_FLASHEx_OBGetConfig,"ax",%progbits
 1354              		.align	1
 1355              		.global	HAL_FLASHEx_OBGetConfig
 1356              		.syntax unified
 1357              		.code	16
 1358              		.thumb_func
 1360              	HAL_FLASHEx_OBGetConfig:
 1361              	.LVL122:
 1362              	.LFB330:
 422:Drivers/STM32G0xx_HAL_Driver/Src/stm32g0xx_hal_flash_ex.c ****   pOBInit->OptionType = OPTIONBYTE_ALL;
 1363              		.loc 1 422 1 is_stmt 1 view -0
 1364              		.cfi_startproc
 1365              		@ args = 0, pretend = 0, frame = 0
 1366              		@ frame_needed = 0, uses_anonymous_args = 0
 422:Drivers/STM32G0xx_HAL_Driver/Src/stm32g0xx_hal_flash_ex.c ****   pOBInit->OptionType = OPTIONBYTE_ALL;
 1367              		.loc 1 422 1 is_stmt 0 view .LVU315
 1368 0000 10B5     		push	{r4, lr}
 1369              	.LCFI11:
 1370              		.cfi_def_cfa_offset 8
 1371              		.cfi_offset 4, -8
 1372              		.cfi_offset 14, -4
 1373 0002 0400     		movs	r4, r0
 423:Drivers/STM32G0xx_HAL_Driver/Src/stm32g0xx_hal_flash_ex.c **** 
 1374              		.loc 1 423 3 is_stmt 1 view .LVU316
 423:Drivers/STM32G0xx_HAL_Driver/Src/stm32g0xx_hal_flash_ex.c **** 
 1375              		.loc 1 423 23 is_stmt 0 view .LVU317
 1376 0004 1F23     		movs	r3, #31
 1377 0006 0360     		str	r3, [r0]
 426:Drivers/STM32G0xx_HAL_Driver/Src/stm32g0xx_hal_flash_ex.c **** 
 1378              		.loc 1 426 3 is_stmt 1 view .LVU318
 1379 0008 0200     		movs	r2, r0
 1380 000a 0C32     		adds	r2, r2, #12
 1381 000c 0100     		movs	r1, r0
 1382 000e 0831     		adds	r1, r1, #8
 1383 0010 4068     		ldr	r0, [r0, #4]
 1384              	.LVL123:
 426:Drivers/STM32G0xx_HAL_Driver/Src/stm32g0xx_hal_flash_ex.c **** 
 1385              		.loc 1 426 3 is_stmt 0 view .LVU319
 1386 0012 FFF7FEFF 		bl	FLASH_OB_GetWRP
 1387              	.LVL124:
 429:Drivers/STM32G0xx_HAL_Driver/Src/stm32g0xx_hal_flash_ex.c **** 
 1388              		.loc 1 429 3 is_stmt 1 view .LVU320
 429:Drivers/STM32G0xx_HAL_Driver/Src/stm32g0xx_hal_flash_ex.c **** 
 1389              		.loc 1 429 23 is_stmt 0 view .LVU321
 1390 0016 FFF7FEFF 		bl	FLASH_OB_GetRDP
 1391              	.LVL125:
 429:Drivers/STM32G0xx_HAL_Driver/Src/stm32g0xx_hal_flash_ex.c **** 
 1392              		.loc 1 429 21 view .LVU322
 1393 001a 2061     		str	r0, [r4, #16]
 432:Drivers/STM32G0xx_HAL_Driver/Src/stm32g0xx_hal_flash_ex.c ****   pOBInit->USERType = OB_USER_ALL;
ARM GAS  /tmp/ccXI1us5.s 			page 52


 1394              		.loc 1 432 3 is_stmt 1 view .LVU323
 432:Drivers/STM32G0xx_HAL_Driver/Src/stm32g0xx_hal_flash_ex.c ****   pOBInit->USERType = OB_USER_ALL;
 1395              		.loc 1 432 25 is_stmt 0 view .LVU324
 1396 001c FFF7FEFF 		bl	FLASH_OB_GetUser
 1397              	.LVL126:
 432:Drivers/STM32G0xx_HAL_Driver/Src/stm32g0xx_hal_flash_ex.c ****   pOBInit->USERType = OB_USER_ALL;
 1398              		.loc 1 432 23 view .LVU325
 1399 0020 A061     		str	r0, [r4, #24]
 433:Drivers/STM32G0xx_HAL_Driver/Src/stm32g0xx_hal_flash_ex.c **** 
 1400              		.loc 1 433 3 is_stmt 1 view .LVU326
 433:Drivers/STM32G0xx_HAL_Driver/Src/stm32g0xx_hal_flash_ex.c **** 
 1401              		.loc 1 433 21 is_stmt 0 view .LVU327
 1402 0022 0D4B     		ldr	r3, .L104
 1403 0024 6361     		str	r3, [r4, #20]
 437:Drivers/STM32G0xx_HAL_Driver/Src/stm32g0xx_hal_flash_ex.c ****   FLASH_OB_GetPCROP1B(&(pOBInit->PCROP1BStartAddr), &(pOBInit->PCROP1BEndAddr));
 1404              		.loc 1 437 3 is_stmt 1 view .LVU328
 1405 0026 2200     		movs	r2, r4
 1406 0028 2432     		adds	r2, r2, #36
 1407 002a 2100     		movs	r1, r4
 1408 002c 2031     		adds	r1, r1, #32
 1409 002e 2000     		movs	r0, r4
 1410 0030 1C30     		adds	r0, r0, #28
 1411 0032 FFF7FEFF 		bl	FLASH_OB_GetPCROP1A
 1412              	.LVL127:
 438:Drivers/STM32G0xx_HAL_Driver/Src/stm32g0xx_hal_flash_ex.c ****   pOBInit->PCROPConfig |= (OB_PCROP_ZONE_A | OB_PCROP_ZONE_B);
 1413              		.loc 1 438 3 view .LVU329
 1414 0036 2100     		movs	r1, r4
 1415 0038 2C31     		adds	r1, r1, #44
 1416 003a 2000     		movs	r0, r4
 1417 003c 2830     		adds	r0, r0, #40
 1418 003e FFF7FEFF 		bl	FLASH_OB_GetPCROP1B
 1419              	.LVL128:
 439:Drivers/STM32G0xx_HAL_Driver/Src/stm32g0xx_hal_flash_ex.c **** #if defined(FLASH_DBANK_SUPPORT)
 1420              		.loc 1 439 3 view .LVU330
 439:Drivers/STM32G0xx_HAL_Driver/Src/stm32g0xx_hal_flash_ex.c **** #if defined(FLASH_DBANK_SUPPORT)
 1421              		.loc 1 439 24 is_stmt 0 view .LVU331
 1422 0042 0323     		movs	r3, #3
 1423 0044 E269     		ldr	r2, [r4, #28]
 1424 0046 1343     		orrs	r3, r2
 1425 0048 E361     		str	r3, [r4, #28]
 453:Drivers/STM32G0xx_HAL_Driver/Src/stm32g0xx_hal_flash_ex.c **** #endif /* FLASH_DBANK_SUPPORT */
 1426              		.loc 1 453 3 is_stmt 1 view .LVU332
 1427 004a 2100     		movs	r1, r4
 1428 004c 3431     		adds	r1, r1, #52
 1429 004e 2000     		movs	r0, r4
 1430 0050 3030     		adds	r0, r0, #48
 1431 0052 FFF7FEFF 		bl	FLASH_OB_GetSecMem
 1432              	.LVL129:
 456:Drivers/STM32G0xx_HAL_Driver/Src/stm32g0xx_hal_flash_ex.c **** 
 1433              		.loc 1 456 1 is_stmt 0 view .LVU333
 1434              		@ sp needed
 1435              	.LVL130:
 456:Drivers/STM32G0xx_HAL_Driver/Src/stm32g0xx_hal_flash_ex.c **** 
 1436              		.loc 1 456 1 view .LVU334
 1437 0056 10BD     		pop	{r4, pc}
 1438              	.L105:
 1439              		.align	2
ARM GAS  /tmp/ccXI1us5.s 			page 53


 1440              	.L104:
 1441 0058 00FF4F3F 		.word	1062207232
 1442              		.cfi_endproc
 1443              	.LFE330:
 1445              		.section	.text.HAL_FLASHEx_EnableDebugger,"ax",%progbits
 1446              		.align	1
 1447              		.global	HAL_FLASHEx_EnableDebugger
 1448              		.syntax unified
 1449              		.code	16
 1450              		.thumb_func
 1452              	HAL_FLASHEx_EnableDebugger:
 1453              	.LFB331:
 465:Drivers/STM32G0xx_HAL_Driver/Src/stm32g0xx_hal_flash_ex.c ****   FLASH->ACR |= FLASH_ACR_DBG_SWEN;
 1454              		.loc 1 465 1 is_stmt 1 view -0
 1455              		.cfi_startproc
 1456              		@ args = 0, pretend = 0, frame = 0
 1457              		@ frame_needed = 0, uses_anonymous_args = 0
 1458              		@ link register save eliminated.
 466:Drivers/STM32G0xx_HAL_Driver/Src/stm32g0xx_hal_flash_ex.c **** }
 1459              		.loc 1 466 3 view .LVU336
 466:Drivers/STM32G0xx_HAL_Driver/Src/stm32g0xx_hal_flash_ex.c **** }
 1460              		.loc 1 466 14 is_stmt 0 view .LVU337
 1461 0000 034A     		ldr	r2, .L107
 1462 0002 1168     		ldr	r1, [r2]
 1463 0004 8023     		movs	r3, #128
 1464 0006 DB02     		lsls	r3, r3, #11
 1465 0008 0B43     		orrs	r3, r1
 1466 000a 1360     		str	r3, [r2]
 467:Drivers/STM32G0xx_HAL_Driver/Src/stm32g0xx_hal_flash_ex.c **** 
 1467              		.loc 1 467 1 view .LVU338
 1468              		@ sp needed
 1469 000c 7047     		bx	lr
 1470              	.L108:
 1471 000e C046     		.align	2
 1472              	.L107:
 1473 0010 00200240 		.word	1073881088
 1474              		.cfi_endproc
 1475              	.LFE331:
 1477              		.section	.text.HAL_FLASHEx_DisableDebugger,"ax",%progbits
 1478              		.align	1
 1479              		.global	HAL_FLASHEx_DisableDebugger
 1480              		.syntax unified
 1481              		.code	16
 1482              		.thumb_func
 1484              	HAL_FLASHEx_DisableDebugger:
 1485              	.LFB332:
 477:Drivers/STM32G0xx_HAL_Driver/Src/stm32g0xx_hal_flash_ex.c ****   FLASH->ACR &= ~FLASH_ACR_DBG_SWEN;
 1486              		.loc 1 477 1 is_stmt 1 view -0
 1487              		.cfi_startproc
 1488              		@ args = 0, pretend = 0, frame = 0
 1489              		@ frame_needed = 0, uses_anonymous_args = 0
 1490              		@ link register save eliminated.
 478:Drivers/STM32G0xx_HAL_Driver/Src/stm32g0xx_hal_flash_ex.c **** }
 1491              		.loc 1 478 3 view .LVU340
 478:Drivers/STM32G0xx_HAL_Driver/Src/stm32g0xx_hal_flash_ex.c **** }
 1492              		.loc 1 478 14 is_stmt 0 view .LVU341
 1493 0000 024A     		ldr	r2, .L110
ARM GAS  /tmp/ccXI1us5.s 			page 54


 1494 0002 1368     		ldr	r3, [r2]
 1495 0004 0249     		ldr	r1, .L110+4
 1496 0006 0B40     		ands	r3, r1
 1497 0008 1360     		str	r3, [r2]
 479:Drivers/STM32G0xx_HAL_Driver/Src/stm32g0xx_hal_flash_ex.c **** #endif /* FLASH_ACR_DBG_SWEN */
 1498              		.loc 1 479 1 view .LVU342
 1499              		@ sp needed
 1500 000a 7047     		bx	lr
 1501              	.L111:
 1502              		.align	2
 1503              	.L110:
 1504 000c 00200240 		.word	1073881088
 1505 0010 FFFFFBFF 		.word	-262145
 1506              		.cfi_endproc
 1507              	.LFE332:
 1509              		.section	.text.HAL_FLASHEx_FlashEmptyCheck,"ax",%progbits
 1510              		.align	1
 1511              		.global	HAL_FLASHEx_FlashEmptyCheck
 1512              		.syntax unified
 1513              		.code	16
 1514              		.thumb_func
 1516              	HAL_FLASHEx_FlashEmptyCheck:
 1517              	.LFB333:
 489:Drivers/STM32G0xx_HAL_Driver/Src/stm32g0xx_hal_flash_ex.c ****   return ((FLASH->ACR & FLASH_ACR_PROGEMPTY));
 1518              		.loc 1 489 1 is_stmt 1 view -0
 1519              		.cfi_startproc
 1520              		@ args = 0, pretend = 0, frame = 0
 1521              		@ frame_needed = 0, uses_anonymous_args = 0
 1522              		@ link register save eliminated.
 490:Drivers/STM32G0xx_HAL_Driver/Src/stm32g0xx_hal_flash_ex.c **** }
 1523              		.loc 1 490 3 view .LVU344
 490:Drivers/STM32G0xx_HAL_Driver/Src/stm32g0xx_hal_flash_ex.c **** }
 1524              		.loc 1 490 17 is_stmt 0 view .LVU345
 1525 0000 024B     		ldr	r3, .L113
 1526 0002 1868     		ldr	r0, [r3]
 490:Drivers/STM32G0xx_HAL_Driver/Src/stm32g0xx_hal_flash_ex.c **** }
 1527              		.loc 1 490 23 view .LVU346
 1528 0004 8023     		movs	r3, #128
 1529 0006 5B02     		lsls	r3, r3, #9
 1530 0008 1840     		ands	r0, r3
 491:Drivers/STM32G0xx_HAL_Driver/Src/stm32g0xx_hal_flash_ex.c **** 
 1531              		.loc 1 491 1 view .LVU347
 1532              		@ sp needed
 1533 000a 7047     		bx	lr
 1534              	.L114:
 1535              		.align	2
 1536              	.L113:
 1537 000c 00200240 		.word	1073881088
 1538              		.cfi_endproc
 1539              	.LFE333:
 1541              		.section	.text.HAL_FLASHEx_ForceFlashEmpty,"ax",%progbits
 1542              		.align	1
 1543              		.global	HAL_FLASHEx_ForceFlashEmpty
 1544              		.syntax unified
 1545              		.code	16
 1546              		.thumb_func
 1548              	HAL_FLASHEx_ForceFlashEmpty:
ARM GAS  /tmp/ccXI1us5.s 			page 55


 1549              	.LVL131:
 1550              	.LFB334:
 503:Drivers/STM32G0xx_HAL_Driver/Src/stm32g0xx_hal_flash_ex.c ****   uint32_t acr;
 1551              		.loc 1 503 1 is_stmt 1 view -0
 1552              		.cfi_startproc
 1553              		@ args = 0, pretend = 0, frame = 0
 1554              		@ frame_needed = 0, uses_anonymous_args = 0
 503:Drivers/STM32G0xx_HAL_Driver/Src/stm32g0xx_hal_flash_ex.c ****   uint32_t acr;
 1555              		.loc 1 503 1 is_stmt 0 view .LVU349
 1556 0000 10B5     		push	{r4, lr}
 1557              	.LCFI12:
 1558              		.cfi_def_cfa_offset 8
 1559              		.cfi_offset 4, -8
 1560              		.cfi_offset 14, -4
 1561 0002 0400     		movs	r4, r0
 504:Drivers/STM32G0xx_HAL_Driver/Src/stm32g0xx_hal_flash_ex.c ****   assert_param(IS_FLASH_EMPTY_CHECK(FlashEmpty));
 1562              		.loc 1 504 3 is_stmt 1 view .LVU350
 505:Drivers/STM32G0xx_HAL_Driver/Src/stm32g0xx_hal_flash_ex.c **** 
 1563              		.loc 1 505 3 view .LVU351
 1564 0004 8023     		movs	r3, #128
 1565 0006 5B02     		lsls	r3, r3, #9
 1566 0008 9842     		cmp	r0, r3
 1567 000a 01D0     		beq	.L116
 505:Drivers/STM32G0xx_HAL_Driver/Src/stm32g0xx_hal_flash_ex.c **** 
 1568              		.loc 1 505 3 is_stmt 0 discriminator 1 view .LVU352
 1569 000c 0028     		cmp	r0, #0
 1570 000e 06D1     		bne	.L117
 1571              	.LVL132:
 1572              	.L116:
 507:Drivers/STM32G0xx_HAL_Driver/Src/stm32g0xx_hal_flash_ex.c ****   FLASH->ACR = (acr | FlashEmpty);
 1573              		.loc 1 507 3 is_stmt 1 view .LVU353
 507:Drivers/STM32G0xx_HAL_Driver/Src/stm32g0xx_hal_flash_ex.c ****   FLASH->ACR = (acr | FlashEmpty);
 1574              		.loc 1 507 15 is_stmt 0 view .LVU354
 1575 0010 064B     		ldr	r3, .L118
 1576 0012 1868     		ldr	r0, [r3]
 507:Drivers/STM32G0xx_HAL_Driver/Src/stm32g0xx_hal_flash_ex.c ****   FLASH->ACR = (acr | FlashEmpty);
 1577              		.loc 1 507 7 view .LVU355
 1578 0014 064A     		ldr	r2, .L118+4
 1579 0016 1040     		ands	r0, r2
 1580              	.LVL133:
 508:Drivers/STM32G0xx_HAL_Driver/Src/stm32g0xx_hal_flash_ex.c **** }
 1581              		.loc 1 508 3 is_stmt 1 view .LVU356
 508:Drivers/STM32G0xx_HAL_Driver/Src/stm32g0xx_hal_flash_ex.c **** }
 1582              		.loc 1 508 21 is_stmt 0 view .LVU357
 1583 0018 0443     		orrs	r4, r0
 1584              	.LVL134:
 508:Drivers/STM32G0xx_HAL_Driver/Src/stm32g0xx_hal_flash_ex.c **** }
 1585              		.loc 1 508 14 view .LVU358
 1586 001a 1C60     		str	r4, [r3]
 509:Drivers/STM32G0xx_HAL_Driver/Src/stm32g0xx_hal_flash_ex.c **** 
 1587              		.loc 1 509 1 view .LVU359
 1588              		@ sp needed
 1589 001c 10BD     		pop	{r4, pc}
 1590              	.LVL135:
 1591              	.L117:
 505:Drivers/STM32G0xx_HAL_Driver/Src/stm32g0xx_hal_flash_ex.c **** 
 1592              		.loc 1 505 3 discriminator 2 view .LVU360
ARM GAS  /tmp/ccXI1us5.s 			page 56


 1593 001e FA21     		movs	r1, #250
 1594 0020 FF31     		adds	r1, r1, #255
 1595 0022 0448     		ldr	r0, .L118+8
 1596              	.LVL136:
 505:Drivers/STM32G0xx_HAL_Driver/Src/stm32g0xx_hal_flash_ex.c **** 
 1597              		.loc 1 505 3 discriminator 2 view .LVU361
 1598 0024 FFF7FEFF 		bl	assert_failed
 1599              	.LVL137:
 1600 0028 F2E7     		b	.L116
 1601              	.L119:
 1602 002a C046     		.align	2
 1603              	.L118:
 1604 002c 00200240 		.word	1073881088
 1605 0030 FFFFFEFF 		.word	-65537
 1606 0034 00000000 		.word	.LC0
 1607              		.cfi_endproc
 1608              	.LFE334:
 1610              		.section	.text.HAL_FLASHEx_EnableSecMemProtection,"ax",%progbits
 1611              		.align	1
 1612              		.global	HAL_FLASHEx_EnableSecMemProtection
 1613              		.syntax unified
 1614              		.code	16
 1615              		.thumb_func
 1617              	HAL_FLASHEx_EnableSecMemProtection:
 1618              	.LVL138:
 1619              	.LFB335:
 525:Drivers/STM32G0xx_HAL_Driver/Src/stm32g0xx_hal_flash_ex.c **** #if defined(FLASH_DBANK_SUPPORT)
 1620              		.loc 1 525 1 is_stmt 1 view -0
 1621              		.cfi_startproc
 1622              		@ args = 0, pretend = 0, frame = 0
 1623              		@ frame_needed = 0, uses_anonymous_args = 0
 1624              		@ link register save eliminated.
 539:Drivers/STM32G0xx_HAL_Driver/Src/stm32g0xx_hal_flash_ex.c **** #endif /* FLASH_DBANK_SUPPORT */
 1625              		.loc 1 539 3 view .LVU363
 542:Drivers/STM32G0xx_HAL_Driver/Src/stm32g0xx_hal_flash_ex.c ****   }
 1626              		.loc 1 542 5 view .LVU364
 542:Drivers/STM32G0xx_HAL_Driver/Src/stm32g0xx_hal_flash_ex.c ****   }
 1627              		.loc 1 542 15 is_stmt 0 view .LVU365
 1628 0000 034A     		ldr	r2, .L121
 1629 0002 5169     		ldr	r1, [r2, #20]
 1630 0004 8023     		movs	r3, #128
 1631 0006 5B05     		lsls	r3, r3, #21
 1632 0008 0B43     		orrs	r3, r1
 1633 000a 5361     		str	r3, [r2, #20]
 544:Drivers/STM32G0xx_HAL_Driver/Src/stm32g0xx_hal_flash_ex.c **** #endif /* FLASH_SECURABLE_MEMORY_SUPPORT */
 1634              		.loc 1 544 1 view .LVU366
 1635              		@ sp needed
 1636 000c 7047     		bx	lr
 1637              	.L122:
 1638 000e C046     		.align	2
 1639              	.L121:
 1640 0010 00200240 		.word	1073881088
 1641              		.cfi_endproc
 1642              	.LFE335:
 1644              		.section	.text.FLASH_PageErase,"ax",%progbits
 1645              		.align	1
 1646              		.global	FLASH_PageErase
ARM GAS  /tmp/ccXI1us5.s 			page 57


 1647              		.syntax unified
 1648              		.code	16
 1649              		.thumb_func
 1651              	FLASH_PageErase:
 1652              	.LVL139:
 1653              	.LFB337:
 589:Drivers/STM32G0xx_HAL_Driver/Src/stm32g0xx_hal_flash_ex.c ****   uint32_t tmp;
 1654              		.loc 1 589 1 is_stmt 1 view -0
 1655              		.cfi_startproc
 1656              		@ args = 0, pretend = 0, frame = 0
 1657              		@ frame_needed = 0, uses_anonymous_args = 0
 589:Drivers/STM32G0xx_HAL_Driver/Src/stm32g0xx_hal_flash_ex.c ****   uint32_t tmp;
 1658              		.loc 1 589 1 is_stmt 0 view .LVU368
 1659 0000 10B5     		push	{r4, lr}
 1660              	.LCFI13:
 1661              		.cfi_def_cfa_offset 8
 1662              		.cfi_offset 4, -8
 1663              		.cfi_offset 14, -4
 1664 0002 0C00     		movs	r4, r1
 590:Drivers/STM32G0xx_HAL_Driver/Src/stm32g0xx_hal_flash_ex.c **** 
 1665              		.loc 1 590 3 is_stmt 1 view .LVU369
 593:Drivers/STM32G0xx_HAL_Driver/Src/stm32g0xx_hal_flash_ex.c ****   assert_param(IS_FLASH_PAGE(Page));
 1666              		.loc 1 593 3 view .LVU370
 1667 0004 0428     		cmp	r0, #4
 1668 0006 12D1     		bne	.L126
 1669              	.LVL140:
 1670              	.L124:
 594:Drivers/STM32G0xx_HAL_Driver/Src/stm32g0xx_hal_flash_ex.c **** 
 1671              		.loc 1 594 3 view .LVU371
 1672 0008 0E4B     		ldr	r3, .L128
 1673 000a 1B68     		ldr	r3, [r3]
 1674 000c 9B02     		lsls	r3, r3, #10
 1675 000e FF22     		movs	r2, #255
 1676 0010 9202     		lsls	r2, r2, #10
 1677 0012 1340     		ands	r3, r2
 1678 0014 DB0A     		lsrs	r3, r3, #11
 1679 0016 A342     		cmp	r3, r4
 1680 0018 0ED9     		bls	.L127
 1681              	.L125:
 597:Drivers/STM32G0xx_HAL_Driver/Src/stm32g0xx_hal_flash_ex.c **** 
 1682              		.loc 1 597 3 view .LVU372
 597:Drivers/STM32G0xx_HAL_Driver/Src/stm32g0xx_hal_flash_ex.c **** 
 1683              		.loc 1 597 15 is_stmt 0 view .LVU373
 1684 001a 0B4B     		ldr	r3, .L128+4
 1685 001c 5969     		ldr	r1, [r3, #20]
 597:Drivers/STM32G0xx_HAL_Driver/Src/stm32g0xx_hal_flash_ex.c **** 
 1686              		.loc 1 597 7 view .LVU374
 1687 001e 0B4A     		ldr	r2, .L128+8
 1688 0020 1140     		ands	r1, r2
 1689              	.LVL141:
 611:Drivers/STM32G0xx_HAL_Driver/Src/stm32g0xx_hal_flash_ex.c **** #endif /* FLASH_DBANK_SUPPORT */
 1690              		.loc 1 611 3 is_stmt 1 view .LVU375
 615:Drivers/STM32G0xx_HAL_Driver/Src/stm32g0xx_hal_flash_ex.c **** }
 1691              		.loc 1 615 3 view .LVU376
 615:Drivers/STM32G0xx_HAL_Driver/Src/stm32g0xx_hal_flash_ex.c **** }
 1692              		.loc 1 615 45 is_stmt 0 view .LVU377
 1693 0022 E400     		lsls	r4, r4, #3
ARM GAS  /tmp/ccXI1us5.s 			page 58


 1694              	.LVL142:
 615:Drivers/STM32G0xx_HAL_Driver/Src/stm32g0xx_hal_flash_ex.c **** }
 1695              		.loc 1 615 20 view .LVU378
 1696 0024 0C43     		orrs	r4, r1
 1697 0026 0A49     		ldr	r1, .L128+12
 1698              	.LVL143:
 615:Drivers/STM32G0xx_HAL_Driver/Src/stm32g0xx_hal_flash_ex.c **** }
 1699              		.loc 1 615 20 view .LVU379
 1700 0028 0C43     		orrs	r4, r1
 615:Drivers/STM32G0xx_HAL_Driver/Src/stm32g0xx_hal_flash_ex.c **** }
 1701              		.loc 1 615 13 view .LVU380
 1702 002a 5C61     		str	r4, [r3, #20]
 616:Drivers/STM32G0xx_HAL_Driver/Src/stm32g0xx_hal_flash_ex.c **** 
 1703              		.loc 1 616 1 view .LVU381
 1704              		@ sp needed
 1705 002c 10BD     		pop	{r4, pc}
 1706              	.LVL144:
 1707              	.L126:
 593:Drivers/STM32G0xx_HAL_Driver/Src/stm32g0xx_hal_flash_ex.c ****   assert_param(IS_FLASH_PAGE(Page));
 1708              		.loc 1 593 3 discriminator 1 view .LVU382
 1709 002e 0949     		ldr	r1, .L128+16
 1710              	.LVL145:
 593:Drivers/STM32G0xx_HAL_Driver/Src/stm32g0xx_hal_flash_ex.c ****   assert_param(IS_FLASH_PAGE(Page));
 1711              		.loc 1 593 3 discriminator 1 view .LVU383
 1712 0030 0948     		ldr	r0, .L128+20
 1713              	.LVL146:
 593:Drivers/STM32G0xx_HAL_Driver/Src/stm32g0xx_hal_flash_ex.c ****   assert_param(IS_FLASH_PAGE(Page));
 1714              		.loc 1 593 3 discriminator 1 view .LVU384
 1715 0032 FFF7FEFF 		bl	assert_failed
 1716              	.LVL147:
 1717 0036 E7E7     		b	.L124
 1718              	.L127:
 594:Drivers/STM32G0xx_HAL_Driver/Src/stm32g0xx_hal_flash_ex.c **** 
 1719              		.loc 1 594 3 discriminator 1 view .LVU385
 1720 0038 0849     		ldr	r1, .L128+24
 1721 003a 0748     		ldr	r0, .L128+20
 1722 003c FFF7FEFF 		bl	assert_failed
 1723              	.LVL148:
 1724 0040 EBE7     		b	.L125
 1725              	.L129:
 1726 0042 C046     		.align	2
 1727              	.L128:
 1728 0044 E075FF1F 		.word	536835552
 1729 0048 00200240 		.word	1073881088
 1730 004c 07E0FFFF 		.word	-8185
 1731 0050 02000100 		.word	65538
 1732 0054 51020000 		.word	593
 1733 0058 00000000 		.word	.LC0
 1734 005c 52020000 		.word	594
 1735              		.cfi_endproc
 1736              	.LFE337:
 1738              		.section	.text.HAL_FLASHEx_Erase,"ax",%progbits
 1739              		.align	1
 1740              		.global	HAL_FLASHEx_Erase
 1741              		.syntax unified
 1742              		.code	16
 1743              		.thumb_func
ARM GAS  /tmp/ccXI1us5.s 			page 59


 1745              	HAL_FLASHEx_Erase:
 1746              	.LVL149:
 1747              	.LFB327:
 155:Drivers/STM32G0xx_HAL_Driver/Src/stm32g0xx_hal_flash_ex.c ****   HAL_StatusTypeDef status;
 1748              		.loc 1 155 1 is_stmt 1 view -0
 1749              		.cfi_startproc
 1750              		@ args = 0, pretend = 0, frame = 0
 1751              		@ frame_needed = 0, uses_anonymous_args = 0
 155:Drivers/STM32G0xx_HAL_Driver/Src/stm32g0xx_hal_flash_ex.c ****   HAL_StatusTypeDef status;
 1752              		.loc 1 155 1 is_stmt 0 view .LVU387
 1753 0000 70B5     		push	{r4, r5, r6, lr}
 1754              	.LCFI14:
 1755              		.cfi_def_cfa_offset 16
 1756              		.cfi_offset 4, -16
 1757              		.cfi_offset 5, -12
 1758              		.cfi_offset 6, -8
 1759              		.cfi_offset 14, -4
 1760 0002 0400     		movs	r4, r0
 1761 0004 0E00     		movs	r6, r1
 156:Drivers/STM32G0xx_HAL_Driver/Src/stm32g0xx_hal_flash_ex.c ****   uint32_t index;
 1762              		.loc 1 156 3 is_stmt 1 view .LVU388
 157:Drivers/STM32G0xx_HAL_Driver/Src/stm32g0xx_hal_flash_ex.c **** 
 1763              		.loc 1 157 3 view .LVU389
 160:Drivers/STM32G0xx_HAL_Driver/Src/stm32g0xx_hal_flash_ex.c **** 
 1764              		.loc 1 160 3 view .LVU390
 1765 0006 0368     		ldr	r3, [r0]
 1766 0008 022B     		cmp	r3, #2
 1767 000a 01D0     		beq	.L131
 160:Drivers/STM32G0xx_HAL_Driver/Src/stm32g0xx_hal_flash_ex.c **** 
 1768              		.loc 1 160 3 is_stmt 0 discriminator 1 view .LVU391
 1769 000c 042B     		cmp	r3, #4
 1770 000e 29D1     		bne	.L140
 1771              	.LVL150:
 1772              	.L131:
 163:Drivers/STM32G0xx_HAL_Driver/Src/stm32g0xx_hal_flash_ex.c **** 
 1773              		.loc 1 163 3 is_stmt 1 view .LVU392
 163:Drivers/STM32G0xx_HAL_Driver/Src/stm32g0xx_hal_flash_ex.c **** 
 1774              		.loc 1 163 3 view .LVU393
 1775 0010 214B     		ldr	r3, .L143
 1776 0012 1B78     		ldrb	r3, [r3]
 1777 0014 012B     		cmp	r3, #1
 1778 0016 3CD0     		beq	.L139
 163:Drivers/STM32G0xx_HAL_Driver/Src/stm32g0xx_hal_flash_ex.c **** 
 1779              		.loc 1 163 3 discriminator 2 view .LVU394
 1780 0018 1F4B     		ldr	r3, .L143
 1781 001a 0122     		movs	r2, #1
 1782 001c 1A70     		strb	r2, [r3]
 163:Drivers/STM32G0xx_HAL_Driver/Src/stm32g0xx_hal_flash_ex.c **** 
 1783              		.loc 1 163 3 discriminator 2 view .LVU395
 166:Drivers/STM32G0xx_HAL_Driver/Src/stm32g0xx_hal_flash_ex.c **** 
 1784              		.loc 1 166 3 discriminator 2 view .LVU396
 166:Drivers/STM32G0xx_HAL_Driver/Src/stm32g0xx_hal_flash_ex.c **** 
 1785              		.loc 1 166 20 is_stmt 0 discriminator 2 view .LVU397
 1786 001e 0022     		movs	r2, #0
 1787 0020 5A60     		str	r2, [r3, #4]
 169:Drivers/STM32G0xx_HAL_Driver/Src/stm32g0xx_hal_flash_ex.c **** 
 1788              		.loc 1 169 3 is_stmt 1 discriminator 2 view .LVU398
ARM GAS  /tmp/ccXI1us5.s 			page 60


 169:Drivers/STM32G0xx_HAL_Driver/Src/stm32g0xx_hal_flash_ex.c **** 
 1789              		.loc 1 169 12 is_stmt 0 discriminator 2 view .LVU399
 1790 0022 FA20     		movs	r0, #250
 1791 0024 8000     		lsls	r0, r0, #2
 1792 0026 FFF7FEFF 		bl	FLASH_WaitForLastOperation
 1793              	.LVL151:
 171:Drivers/STM32G0xx_HAL_Driver/Src/stm32g0xx_hal_flash_ex.c ****   {
 1794              		.loc 1 171 3 is_stmt 1 discriminator 2 view .LVU400
 171:Drivers/STM32G0xx_HAL_Driver/Src/stm32g0xx_hal_flash_ex.c ****   {
 1795              		.loc 1 171 6 is_stmt 0 discriminator 2 view .LVU401
 1796 002a 0028     		cmp	r0, #0
 1797 002c 2DD1     		bne	.L133
 175:Drivers/STM32G0xx_HAL_Driver/Src/stm32g0xx_hal_flash_ex.c **** #endif /* FLASH_DBANK_SUPPORT */
 1798              		.loc 1 175 5 is_stmt 1 view .LVU402
 175:Drivers/STM32G0xx_HAL_Driver/Src/stm32g0xx_hal_flash_ex.c **** #endif /* FLASH_DBANK_SUPPORT */
 1799              		.loc 1 175 23 is_stmt 0 view .LVU403
 1800 002e 0423     		movs	r3, #4
 1801 0030 6360     		str	r3, [r4, #4]
 178:Drivers/STM32G0xx_HAL_Driver/Src/stm32g0xx_hal_flash_ex.c ****     {
 1802              		.loc 1 178 5 is_stmt 1 view .LVU404
 178:Drivers/STM32G0xx_HAL_Driver/Src/stm32g0xx_hal_flash_ex.c ****     {
 1803              		.loc 1 178 8 is_stmt 0 view .LVU405
 1804 0032 2368     		ldr	r3, [r4]
 1805 0034 042B     		cmp	r3, #4
 1806 0036 1AD0     		beq	.L141
 189:Drivers/STM32G0xx_HAL_Driver/Src/stm32g0xx_hal_flash_ex.c **** 
 1807              		.loc 1 189 7 is_stmt 1 view .LVU406
 189:Drivers/STM32G0xx_HAL_Driver/Src/stm32g0xx_hal_flash_ex.c **** 
 1808              		.loc 1 189 18 is_stmt 0 view .LVU407
 1809 0038 0123     		movs	r3, #1
 1810 003a 5B42     		rsbs	r3, r3, #0
 1811 003c 3360     		str	r3, [r6]
 191:Drivers/STM32G0xx_HAL_Driver/Src/stm32g0xx_hal_flash_ex.c ****       {
 1812              		.loc 1 191 7 is_stmt 1 view .LVU408
 191:Drivers/STM32G0xx_HAL_Driver/Src/stm32g0xx_hal_flash_ex.c ****       {
 1813              		.loc 1 191 18 is_stmt 0 view .LVU409
 1814 003e A568     		ldr	r5, [r4, #8]
 1815              	.LVL152:
 1816              	.L135:
 191:Drivers/STM32G0xx_HAL_Driver/Src/stm32g0xx_hal_flash_ex.c ****       {
 1817              		.loc 1 191 38 is_stmt 1 discriminator 1 view .LVU410
 191:Drivers/STM32G0xx_HAL_Driver/Src/stm32g0xx_hal_flash_ex.c ****       {
 1818              		.loc 1 191 64 is_stmt 0 discriminator 1 view .LVU411
 1819 0040 A368     		ldr	r3, [r4, #8]
 1820 0042 E268     		ldr	r2, [r4, #12]
 1821 0044 9446     		mov	ip, r2
 1822 0046 6344     		add	r3, r3, ip
 191:Drivers/STM32G0xx_HAL_Driver/Src/stm32g0xx_hal_flash_ex.c ****       {
 1823              		.loc 1 191 7 discriminator 1 view .LVU412
 1824 0048 AB42     		cmp	r3, r5
 1825 004a 19D9     		bls	.L137
 194:Drivers/STM32G0xx_HAL_Driver/Src/stm32g0xx_hal_flash_ex.c **** 
 1826              		.loc 1 194 9 is_stmt 1 view .LVU413
 1827 004c 2900     		movs	r1, r5
 1828 004e 6068     		ldr	r0, [r4, #4]
 1829              	.LVL153:
 194:Drivers/STM32G0xx_HAL_Driver/Src/stm32g0xx_hal_flash_ex.c **** 
ARM GAS  /tmp/ccXI1us5.s 			page 61


 1830              		.loc 1 194 9 is_stmt 0 view .LVU414
 1831 0050 FFF7FEFF 		bl	FLASH_PageErase
 1832              	.LVL154:
 197:Drivers/STM32G0xx_HAL_Driver/Src/stm32g0xx_hal_flash_ex.c **** 
 1833              		.loc 1 197 9 is_stmt 1 view .LVU415
 197:Drivers/STM32G0xx_HAL_Driver/Src/stm32g0xx_hal_flash_ex.c **** 
 1834              		.loc 1 197 18 is_stmt 0 view .LVU416
 1835 0054 FA20     		movs	r0, #250
 1836 0056 8000     		lsls	r0, r0, #2
 1837 0058 FFF7FEFF 		bl	FLASH_WaitForLastOperation
 1838              	.LVL155:
 199:Drivers/STM32G0xx_HAL_Driver/Src/stm32g0xx_hal_flash_ex.c ****         {
 1839              		.loc 1 199 9 is_stmt 1 view .LVU417
 199:Drivers/STM32G0xx_HAL_Driver/Src/stm32g0xx_hal_flash_ex.c ****         {
 1840              		.loc 1 199 12 is_stmt 0 view .LVU418
 1841 005c 0028     		cmp	r0, #0
 1842 005e 0ED1     		bne	.L142
 191:Drivers/STM32G0xx_HAL_Driver/Src/stm32g0xx_hal_flash_ex.c ****       {
 1843              		.loc 1 191 88 is_stmt 1 discriminator 2 view .LVU419
 191:Drivers/STM32G0xx_HAL_Driver/Src/stm32g0xx_hal_flash_ex.c ****       {
 1844              		.loc 1 191 93 is_stmt 0 discriminator 2 view .LVU420
 1845 0060 0135     		adds	r5, r5, #1
 1846              	.LVL156:
 191:Drivers/STM32G0xx_HAL_Driver/Src/stm32g0xx_hal_flash_ex.c ****       {
 1847              		.loc 1 191 93 discriminator 2 view .LVU421
 1848 0062 EDE7     		b	.L135
 1849              	.LVL157:
 1850              	.L140:
 160:Drivers/STM32G0xx_HAL_Driver/Src/stm32g0xx_hal_flash_ex.c **** 
 1851              		.loc 1 160 3 discriminator 2 view .LVU422
 1852 0064 A021     		movs	r1, #160
 1853              	.LVL158:
 160:Drivers/STM32G0xx_HAL_Driver/Src/stm32g0xx_hal_flash_ex.c **** 
 1854              		.loc 1 160 3 discriminator 2 view .LVU423
 1855 0066 0D48     		ldr	r0, .L143+4
 1856              	.LVL159:
 160:Drivers/STM32G0xx_HAL_Driver/Src/stm32g0xx_hal_flash_ex.c **** 
 1857              		.loc 1 160 3 discriminator 2 view .LVU424
 1858 0068 FFF7FEFF 		bl	assert_failed
 1859              	.LVL160:
 1860 006c D0E7     		b	.L131
 1861              	.LVL161:
 1862              	.L141:
 181:Drivers/STM32G0xx_HAL_Driver/Src/stm32g0xx_hal_flash_ex.c **** 
 1863              		.loc 1 181 7 is_stmt 1 view .LVU425
 1864 006e 0430     		adds	r0, r0, #4
 1865              	.LVL162:
 181:Drivers/STM32G0xx_HAL_Driver/Src/stm32g0xx_hal_flash_ex.c **** 
 1866              		.loc 1 181 7 is_stmt 0 view .LVU426
 1867 0070 FFF7FEFF 		bl	FLASH_MassErase
 1868              	.LVL163:
 184:Drivers/STM32G0xx_HAL_Driver/Src/stm32g0xx_hal_flash_ex.c ****     }
 1869              		.loc 1 184 7 is_stmt 1 view .LVU427
 184:Drivers/STM32G0xx_HAL_Driver/Src/stm32g0xx_hal_flash_ex.c ****     }
 1870              		.loc 1 184 16 is_stmt 0 view .LVU428
 1871 0074 FA20     		movs	r0, #250
 1872 0076 8000     		lsls	r0, r0, #2
ARM GAS  /tmp/ccXI1us5.s 			page 62


 1873 0078 FFF7FEFF 		bl	FLASH_WaitForLastOperation
 1874              	.LVL164:
 184:Drivers/STM32G0xx_HAL_Driver/Src/stm32g0xx_hal_flash_ex.c ****     }
 1875              		.loc 1 184 16 view .LVU429
 1876 007c 05E0     		b	.L133
 1877              	.LVL165:
 1878              	.L142:
 202:Drivers/STM32G0xx_HAL_Driver/Src/stm32g0xx_hal_flash_ex.c ****           break;
 1879              		.loc 1 202 11 is_stmt 1 view .LVU430
 202:Drivers/STM32G0xx_HAL_Driver/Src/stm32g0xx_hal_flash_ex.c ****           break;
 1880              		.loc 1 202 22 is_stmt 0 view .LVU431
 1881 007e 3560     		str	r5, [r6]
 203:Drivers/STM32G0xx_HAL_Driver/Src/stm32g0xx_hal_flash_ex.c ****         }
 1882              		.loc 1 203 11 is_stmt 1 view .LVU432
 1883              	.LVL166:
 1884              	.L137:
 208:Drivers/STM32G0xx_HAL_Driver/Src/stm32g0xx_hal_flash_ex.c ****     }
 1885              		.loc 1 208 7 view .LVU433
 1886 0080 074A     		ldr	r2, .L143+8
 1887 0082 5369     		ldr	r3, [r2, #20]
 1888 0084 0221     		movs	r1, #2
 1889 0086 8B43     		bics	r3, r1
 1890 0088 5361     		str	r3, [r2, #20]
 1891              	.LVL167:
 1892              	.L133:
 213:Drivers/STM32G0xx_HAL_Driver/Src/stm32g0xx_hal_flash_ex.c **** 
 1893              		.loc 1 213 3 view .LVU434
 213:Drivers/STM32G0xx_HAL_Driver/Src/stm32g0xx_hal_flash_ex.c **** 
 1894              		.loc 1 213 3 view .LVU435
 1895 008a 034B     		ldr	r3, .L143
 1896 008c 0022     		movs	r2, #0
 1897 008e 1A70     		strb	r2, [r3]
 213:Drivers/STM32G0xx_HAL_Driver/Src/stm32g0xx_hal_flash_ex.c **** 
 1898              		.loc 1 213 3 view .LVU436
 216:Drivers/STM32G0xx_HAL_Driver/Src/stm32g0xx_hal_flash_ex.c **** }
 1899              		.loc 1 216 3 view .LVU437
 1900              	.LVL168:
 1901              	.L132:
 217:Drivers/STM32G0xx_HAL_Driver/Src/stm32g0xx_hal_flash_ex.c **** 
 1902              		.loc 1 217 1 is_stmt 0 view .LVU438
 1903              		@ sp needed
 1904              	.LVL169:
 1905              	.LVL170:
 217:Drivers/STM32G0xx_HAL_Driver/Src/stm32g0xx_hal_flash_ex.c **** 
 1906              		.loc 1 217 1 view .LVU439
 1907 0090 70BD     		pop	{r4, r5, r6, pc}
 1908              	.LVL171:
 1909              	.L139:
 163:Drivers/STM32G0xx_HAL_Driver/Src/stm32g0xx_hal_flash_ex.c **** 
 1910              		.loc 1 163 3 view .LVU440
 1911 0092 0220     		movs	r0, #2
 1912 0094 FCE7     		b	.L132
 1913              	.L144:
 1914 0096 C046     		.align	2
 1915              	.L143:
 1916 0098 00000000 		.word	pFlash
 1917 009c 00000000 		.word	.LC0
ARM GAS  /tmp/ccXI1us5.s 			page 63


 1918 00a0 00200240 		.word	1073881088
 1919              		.cfi_endproc
 1920              	.LFE327:
 1922              		.section	.text.HAL_FLASHEx_Erase_IT,"ax",%progbits
 1923              		.align	1
 1924              		.global	HAL_FLASHEx_Erase_IT
 1925              		.syntax unified
 1926              		.code	16
 1927              		.thumb_func
 1929              	HAL_FLASHEx_Erase_IT:
 1930              	.LVL172:
 1931              	.LFB328:
 227:Drivers/STM32G0xx_HAL_Driver/Src/stm32g0xx_hal_flash_ex.c ****   HAL_StatusTypeDef status;
 1932              		.loc 1 227 1 is_stmt 1 view -0
 1933              		.cfi_startproc
 1934              		@ args = 0, pretend = 0, frame = 0
 1935              		@ frame_needed = 0, uses_anonymous_args = 0
 227:Drivers/STM32G0xx_HAL_Driver/Src/stm32g0xx_hal_flash_ex.c ****   HAL_StatusTypeDef status;
 1936              		.loc 1 227 1 is_stmt 0 view .LVU442
 1937 0000 70B5     		push	{r4, r5, r6, lr}
 1938              	.LCFI15:
 1939              		.cfi_def_cfa_offset 16
 1940              		.cfi_offset 4, -16
 1941              		.cfi_offset 5, -12
 1942              		.cfi_offset 6, -8
 1943              		.cfi_offset 14, -4
 1944 0002 0400     		movs	r4, r0
 228:Drivers/STM32G0xx_HAL_Driver/Src/stm32g0xx_hal_flash_ex.c **** 
 1945              		.loc 1 228 3 is_stmt 1 view .LVU443
 231:Drivers/STM32G0xx_HAL_Driver/Src/stm32g0xx_hal_flash_ex.c **** 
 1946              		.loc 1 231 3 view .LVU444
 1947 0004 0368     		ldr	r3, [r0]
 1948 0006 022B     		cmp	r3, #2
 1949 0008 01D0     		beq	.L146
 231:Drivers/STM32G0xx_HAL_Driver/Src/stm32g0xx_hal_flash_ex.c **** 
 1950              		.loc 1 231 3 is_stmt 0 discriminator 1 view .LVU445
 1951 000a 042B     		cmp	r3, #4
 1952 000c 15D1     		bne	.L151
 1953              	.LVL173:
 1954              	.L146:
 234:Drivers/STM32G0xx_HAL_Driver/Src/stm32g0xx_hal_flash_ex.c **** 
 1955              		.loc 1 234 3 is_stmt 1 view .LVU446
 234:Drivers/STM32G0xx_HAL_Driver/Src/stm32g0xx_hal_flash_ex.c **** 
 1956              		.loc 1 234 3 view .LVU447
 1957 000e 1D4B     		ldr	r3, .L153
 1958 0010 1B78     		ldrb	r3, [r3]
 1959 0012 012B     		cmp	r3, #1
 1960 0014 33D0     		beq	.L150
 234:Drivers/STM32G0xx_HAL_Driver/Src/stm32g0xx_hal_flash_ex.c **** 
 1961              		.loc 1 234 3 discriminator 2 view .LVU448
 1962 0016 1B4B     		ldr	r3, .L153
 1963 0018 0122     		movs	r2, #1
 1964 001a 1A70     		strb	r2, [r3]
 234:Drivers/STM32G0xx_HAL_Driver/Src/stm32g0xx_hal_flash_ex.c **** 
 1965              		.loc 1 234 3 discriminator 2 view .LVU449
 237:Drivers/STM32G0xx_HAL_Driver/Src/stm32g0xx_hal_flash_ex.c **** 
 1966              		.loc 1 237 3 discriminator 2 view .LVU450
ARM GAS  /tmp/ccXI1us5.s 			page 64


 237:Drivers/STM32G0xx_HAL_Driver/Src/stm32g0xx_hal_flash_ex.c **** 
 1967              		.loc 1 237 20 is_stmt 0 discriminator 2 view .LVU451
 1968 001c 0022     		movs	r2, #0
 1969 001e 5A60     		str	r2, [r3, #4]
 240:Drivers/STM32G0xx_HAL_Driver/Src/stm32g0xx_hal_flash_ex.c **** 
 1970              		.loc 1 240 3 is_stmt 1 discriminator 2 view .LVU452
 240:Drivers/STM32G0xx_HAL_Driver/Src/stm32g0xx_hal_flash_ex.c **** 
 1971              		.loc 1 240 27 is_stmt 0 discriminator 2 view .LVU453
 1972 0020 2268     		ldr	r2, [r4]
 1973 0022 9A60     		str	r2, [r3, #8]
 243:Drivers/STM32G0xx_HAL_Driver/Src/stm32g0xx_hal_flash_ex.c **** 
 1974              		.loc 1 243 3 is_stmt 1 discriminator 2 view .LVU454
 243:Drivers/STM32G0xx_HAL_Driver/Src/stm32g0xx_hal_flash_ex.c **** 
 1975              		.loc 1 243 12 is_stmt 0 discriminator 2 view .LVU455
 1976 0024 FA20     		movs	r0, #250
 1977 0026 8000     		lsls	r0, r0, #2
 1978 0028 FFF7FEFF 		bl	FLASH_WaitForLastOperation
 1979              	.LVL174:
 1980 002c 051E     		subs	r5, r0, #0
 1981              	.LVL175:
 245:Drivers/STM32G0xx_HAL_Driver/Src/stm32g0xx_hal_flash_ex.c ****   {
 1982              		.loc 1 245 3 is_stmt 1 discriminator 2 view .LVU456
 245:Drivers/STM32G0xx_HAL_Driver/Src/stm32g0xx_hal_flash_ex.c ****   {
 1983              		.loc 1 245 6 is_stmt 0 discriminator 2 view .LVU457
 1984 002e 09D0     		beq	.L148
 248:Drivers/STM32G0xx_HAL_Driver/Src/stm32g0xx_hal_flash_ex.c ****   }
 1985              		.loc 1 248 5 is_stmt 1 view .LVU458
 248:Drivers/STM32G0xx_HAL_Driver/Src/stm32g0xx_hal_flash_ex.c ****   }
 1986              		.loc 1 248 5 view .LVU459
 1987 0030 144B     		ldr	r3, .L153
 1988 0032 0022     		movs	r2, #0
 1989 0034 1A70     		strb	r2, [r3]
 248:Drivers/STM32G0xx_HAL_Driver/Src/stm32g0xx_hal_flash_ex.c ****   }
 1990              		.loc 1 248 5 view .LVU460
 1991              	.LVL176:
 1992              	.L147:
 283:Drivers/STM32G0xx_HAL_Driver/Src/stm32g0xx_hal_flash_ex.c **** 
 1993              		.loc 1 283 1 is_stmt 0 view .LVU461
 1994 0036 2800     		movs	r0, r5
 1995              		@ sp needed
 1996              	.LVL177:
 283:Drivers/STM32G0xx_HAL_Driver/Src/stm32g0xx_hal_flash_ex.c **** 
 1997              		.loc 1 283 1 view .LVU462
 1998 0038 70BD     		pop	{r4, r5, r6, pc}
 1999              	.LVL178:
 2000              	.L151:
 231:Drivers/STM32G0xx_HAL_Driver/Src/stm32g0xx_hal_flash_ex.c **** 
 2001              		.loc 1 231 3 discriminator 2 view .LVU463
 2002 003a E721     		movs	r1, #231
 2003 003c 1248     		ldr	r0, .L153+4
 2004              	.LVL179:
 231:Drivers/STM32G0xx_HAL_Driver/Src/stm32g0xx_hal_flash_ex.c **** 
 2005              		.loc 1 231 3 discriminator 2 view .LVU464
 2006 003e FFF7FEFF 		bl	assert_failed
 2007              	.LVL180:
 2008 0042 E4E7     		b	.L146
 2009              	.LVL181:
ARM GAS  /tmp/ccXI1us5.s 			page 65


 2010              	.L148:
 254:Drivers/STM32G0xx_HAL_Driver/Src/stm32g0xx_hal_flash_ex.c **** #endif /* FLASH_DBANK_SUPPORT */
 2011              		.loc 1 254 5 is_stmt 1 view .LVU465
 254:Drivers/STM32G0xx_HAL_Driver/Src/stm32g0xx_hal_flash_ex.c **** #endif /* FLASH_DBANK_SUPPORT */
 2012              		.loc 1 254 23 is_stmt 0 view .LVU466
 2013 0044 0423     		movs	r3, #4
 2014 0046 6360     		str	r3, [r4, #4]
 257:Drivers/STM32G0xx_HAL_Driver/Src/stm32g0xx_hal_flash_ex.c **** 
 2015              		.loc 1 257 5 is_stmt 1 view .LVU467
 257:Drivers/STM32G0xx_HAL_Driver/Src/stm32g0xx_hal_flash_ex.c **** 
 2016              		.loc 1 257 18 is_stmt 0 view .LVU468
 2017 0048 0E4A     		ldr	r2, .L153
 2018 004a 1361     		str	r3, [r2, #16]
 260:Drivers/STM32G0xx_HAL_Driver/Src/stm32g0xx_hal_flash_ex.c **** 
 2019              		.loc 1 260 5 is_stmt 1 view .LVU469
 260:Drivers/STM32G0xx_HAL_Driver/Src/stm32g0xx_hal_flash_ex.c **** 
 2020              		.loc 1 260 15 is_stmt 0 view .LVU470
 2021 004c 0F4A     		ldr	r2, .L153+8
 2022 004e 5169     		ldr	r1, [r2, #20]
 2023 0050 C023     		movs	r3, #192
 2024 0052 9B04     		lsls	r3, r3, #18
 2025 0054 0B43     		orrs	r3, r1
 2026 0056 5361     		str	r3, [r2, #20]
 262:Drivers/STM32G0xx_HAL_Driver/Src/stm32g0xx_hal_flash_ex.c ****     {
 2027              		.loc 1 262 5 is_stmt 1 view .LVU471
 262:Drivers/STM32G0xx_HAL_Driver/Src/stm32g0xx_hal_flash_ex.c ****     {
 2028              		.loc 1 262 8 is_stmt 0 view .LVU472
 2029 0058 2368     		ldr	r3, [r4]
 2030 005a 042B     		cmp	r3, #4
 2031 005c 08D0     		beq	.L152
 273:Drivers/STM32G0xx_HAL_Driver/Src/stm32g0xx_hal_flash_ex.c ****       pFlash.Page = pEraseInit->Page;
 2032              		.loc 1 273 7 is_stmt 1 view .LVU473
 273:Drivers/STM32G0xx_HAL_Driver/Src/stm32g0xx_hal_flash_ex.c ****       pFlash.Page = pEraseInit->Page;
 2033              		.loc 1 273 29 is_stmt 0 view .LVU474
 2034 005e 094B     		ldr	r3, .L153
 2035 0060 E268     		ldr	r2, [r4, #12]
 2036 0062 9A61     		str	r2, [r3, #24]
 274:Drivers/STM32G0xx_HAL_Driver/Src/stm32g0xx_hal_flash_ex.c **** 
 2037              		.loc 1 274 7 is_stmt 1 view .LVU475
 274:Drivers/STM32G0xx_HAL_Driver/Src/stm32g0xx_hal_flash_ex.c **** 
 2038              		.loc 1 274 31 is_stmt 0 view .LVU476
 2039 0064 A168     		ldr	r1, [r4, #8]
 274:Drivers/STM32G0xx_HAL_Driver/Src/stm32g0xx_hal_flash_ex.c **** 
 2040              		.loc 1 274 19 view .LVU477
 2041 0066 5961     		str	r1, [r3, #20]
 277:Drivers/STM32G0xx_HAL_Driver/Src/stm32g0xx_hal_flash_ex.c ****     }
 2042              		.loc 1 277 7 is_stmt 1 view .LVU478
 2043 0068 6068     		ldr	r0, [r4, #4]
 2044              	.LVL182:
 277:Drivers/STM32G0xx_HAL_Driver/Src/stm32g0xx_hal_flash_ex.c ****     }
 2045              		.loc 1 277 7 is_stmt 0 view .LVU479
 2046 006a FFF7FEFF 		bl	FLASH_PageErase
 2047              	.LVL183:
 2048 006e E2E7     		b	.L147
 2049              	.LVL184:
 2050              	.L152:
 265:Drivers/STM32G0xx_HAL_Driver/Src/stm32g0xx_hal_flash_ex.c **** 
ARM GAS  /tmp/ccXI1us5.s 			page 66


 2051              		.loc 1 265 7 is_stmt 1 view .LVU480
 265:Drivers/STM32G0xx_HAL_Driver/Src/stm32g0xx_hal_flash_ex.c **** 
 2052              		.loc 1 265 19 is_stmt 0 view .LVU481
 2053 0070 044B     		ldr	r3, .L153
 2054 0072 0022     		movs	r2, #0
 2055 0074 5A61     		str	r2, [r3, #20]
 268:Drivers/STM32G0xx_HAL_Driver/Src/stm32g0xx_hal_flash_ex.c ****     }
 2056              		.loc 1 268 7 is_stmt 1 view .LVU482
 2057 0076 6068     		ldr	r0, [r4, #4]
 2058              	.LVL185:
 268:Drivers/STM32G0xx_HAL_Driver/Src/stm32g0xx_hal_flash_ex.c ****     }
 2059              		.loc 1 268 7 is_stmt 0 view .LVU483
 2060 0078 FFF7FEFF 		bl	FLASH_MassErase
 2061              	.LVL186:
 2062 007c DBE7     		b	.L147
 2063              	.LVL187:
 2064              	.L150:
 234:Drivers/STM32G0xx_HAL_Driver/Src/stm32g0xx_hal_flash_ex.c **** 
 2065              		.loc 1 234 3 view .LVU484
 2066 007e 0225     		movs	r5, #2
 2067 0080 D9E7     		b	.L147
 2068              	.L154:
 2069 0082 C046     		.align	2
 2070              	.L153:
 2071 0084 00000000 		.word	pFlash
 2072 0088 00000000 		.word	.LC0
 2073 008c 00200240 		.word	1073881088
 2074              		.cfi_endproc
 2075              	.LFE328:
 2077              		.section	.text.FLASH_FlushCaches,"ax",%progbits
 2078              		.align	1
 2079              		.global	FLASH_FlushCaches
 2080              		.syntax unified
 2081              		.code	16
 2082              		.thumb_func
 2084              	FLASH_FlushCaches:
 2085              	.LFB338:
 623:Drivers/STM32G0xx_HAL_Driver/Src/stm32g0xx_hal_flash_ex.c ****   /* Flush instruction cache  */
 2086              		.loc 1 623 1 is_stmt 1 view -0
 2087              		.cfi_startproc
 2088              		@ args = 0, pretend = 0, frame = 0
 2089              		@ frame_needed = 0, uses_anonymous_args = 0
 2090              		@ link register save eliminated.
 625:Drivers/STM32G0xx_HAL_Driver/Src/stm32g0xx_hal_flash_ex.c ****   {
 2091              		.loc 1 625 3 view .LVU486
 625:Drivers/STM32G0xx_HAL_Driver/Src/stm32g0xx_hal_flash_ex.c ****   {
 2092              		.loc 1 625 7 is_stmt 0 view .LVU487
 2093 0000 0B4B     		ldr	r3, .L157
 2094 0002 1B68     		ldr	r3, [r3]
 625:Drivers/STM32G0xx_HAL_Driver/Src/stm32g0xx_hal_flash_ex.c ****   {
 2095              		.loc 1 625 6 view .LVU488
 2096 0004 9B05     		lsls	r3, r3, #22
 2097 0006 12D5     		bpl	.L155
 628:Drivers/STM32G0xx_HAL_Driver/Src/stm32g0xx_hal_flash_ex.c ****     /* Reset instruction cache */
 2098              		.loc 1 628 5 is_stmt 1 view .LVU489
 2099 0008 094B     		ldr	r3, .L157
 2100 000a 1A68     		ldr	r2, [r3]
ARM GAS  /tmp/ccXI1us5.s 			page 67


 2101 000c 0949     		ldr	r1, .L157+4
 2102 000e 0A40     		ands	r2, r1
 2103 0010 1A60     		str	r2, [r3]
 630:Drivers/STM32G0xx_HAL_Driver/Src/stm32g0xx_hal_flash_ex.c ****     /* Enable instruction cache */
 2104              		.loc 1 630 5 view .LVU490
 630:Drivers/STM32G0xx_HAL_Driver/Src/stm32g0xx_hal_flash_ex.c ****     /* Enable instruction cache */
 2105              		.loc 1 630 5 view .LVU491
 2106 0012 1968     		ldr	r1, [r3]
 2107 0014 8022     		movs	r2, #128
 2108 0016 1201     		lsls	r2, r2, #4
 2109 0018 0A43     		orrs	r2, r1
 2110 001a 1A60     		str	r2, [r3]
 630:Drivers/STM32G0xx_HAL_Driver/Src/stm32g0xx_hal_flash_ex.c ****     /* Enable instruction cache */
 2111              		.loc 1 630 5 view .LVU492
 2112 001c 1A68     		ldr	r2, [r3]
 2113 001e 0649     		ldr	r1, .L157+8
 2114 0020 0A40     		ands	r2, r1
 2115 0022 1A60     		str	r2, [r3]
 630:Drivers/STM32G0xx_HAL_Driver/Src/stm32g0xx_hal_flash_ex.c ****     /* Enable instruction cache */
 2116              		.loc 1 630 5 view .LVU493
 632:Drivers/STM32G0xx_HAL_Driver/Src/stm32g0xx_hal_flash_ex.c ****   }
 2117              		.loc 1 632 5 view .LVU494
 2118 0024 1968     		ldr	r1, [r3]
 2119 0026 8022     		movs	r2, #128
 2120 0028 9200     		lsls	r2, r2, #2
 2121 002a 0A43     		orrs	r2, r1
 2122 002c 1A60     		str	r2, [r3]
 2123              	.L155:
 634:Drivers/STM32G0xx_HAL_Driver/Src/stm32g0xx_hal_flash_ex.c **** 
 2124              		.loc 1 634 1 is_stmt 0 view .LVU495
 2125              		@ sp needed
 2126 002e 7047     		bx	lr
 2127              	.L158:
 2128              		.align	2
 2129              	.L157:
 2130 0030 00200240 		.word	1073881088
 2131 0034 FFFDFFFF 		.word	-513
 2132 0038 FFF7FFFF 		.word	-2049
 2133              		.cfi_endproc
 2134              	.LFE338:
 2136              		.text
 2137              	.Letext0:
 2138              		.file 2 "/home/yiyu/gcc-arm-none-eabi-10.3-2021.10/arm-none-eabi/include/machine/_default_types.h"
 2139              		.file 3 "/home/yiyu/gcc-arm-none-eabi-10.3-2021.10/arm-none-eabi/include/sys/_stdint.h"
 2140              		.file 4 "Drivers/CMSIS/Device/ST/STM32G0xx/Include/stm32g071xx.h"
 2141              		.file 5 "Drivers/STM32G0xx_HAL_Driver/Inc/stm32g0xx_hal_def.h"
 2142              		.file 6 "Drivers/STM32G0xx_HAL_Driver/Inc/stm32g0xx_hal_flash.h"
 2143              		.file 7 "Drivers/STM32G0xx_HAL_Driver/Inc/stm32g0xx_ll_dma.h"
 2144              		.file 8 "Core/Inc/stm32g0xx_hal_conf.h"
ARM GAS  /tmp/ccXI1us5.s 			page 68


DEFINED SYMBOLS
                            *ABS*:0000000000000000 stm32g0xx_hal_flash_ex.c
     /tmp/ccXI1us5.s:18     .text.FLASH_OB_GetRDP:0000000000000000 $t
     /tmp/ccXI1us5.s:23     .text.FLASH_OB_GetRDP:0000000000000000 FLASH_OB_GetRDP
     /tmp/ccXI1us5.s:56     .text.FLASH_OB_GetRDP:0000000000000014 $d
     /tmp/ccXI1us5.s:61     .text.FLASH_OB_GetUser:0000000000000000 $t
     /tmp/ccXI1us5.s:66     .text.FLASH_OB_GetUser:0000000000000000 FLASH_OB_GetUser
     /tmp/ccXI1us5.s:88     .text.FLASH_OB_GetUser:000000000000000c $d
     /tmp/ccXI1us5.s:94     .text.FLASH_OB_GetPCROP1A:0000000000000000 $t
     /tmp/ccXI1us5.s:99     .text.FLASH_OB_GetPCROP1A:0000000000000000 FLASH_OB_GetPCROP1A
     /tmp/ccXI1us5.s:177    .text.FLASH_OB_GetPCROP1A:000000000000003c $d
     /tmp/ccXI1us5.s:183    .text.FLASH_OB_GetPCROP1B:0000000000000000 $t
     /tmp/ccXI1us5.s:188    .text.FLASH_OB_GetPCROP1B:0000000000000000 FLASH_OB_GetPCROP1B
     /tmp/ccXI1us5.s:252    .text.FLASH_OB_GetPCROP1B:000000000000002c $d
     /tmp/ccXI1us5.s:258    .text.FLASH_OB_GetSecMem:0000000000000000 $t
     /tmp/ccXI1us5.s:263    .text.FLASH_OB_GetSecMem:0000000000000000 FLASH_OB_GetSecMem
     /tmp/ccXI1us5.s:303    .text.FLASH_OB_GetSecMem:0000000000000018 $d
     /tmp/ccXI1us5.s:308    .rodata.FLASH_MassErase.str1.4:0000000000000000 $d
     /tmp/ccXI1us5.s:313    .text.FLASH_MassErase:0000000000000000 $t
     /tmp/ccXI1us5.s:318    .text.FLASH_MassErase:0000000000000000 FLASH_MassErase
     /tmp/ccXI1us5.s:364    .text.FLASH_MassErase:0000000000000024 $d
     /tmp/ccXI1us5.s:371    .text.FLASH_OB_WRPConfig:0000000000000000 $t
     /tmp/ccXI1us5.s:376    .text.FLASH_OB_WRPConfig:0000000000000000 FLASH_OB_WRPConfig
     /tmp/ccXI1us5.s:484    .text.FLASH_OB_WRPConfig:0000000000000068 $d
     /tmp/ccXI1us5.s:494    .text.FLASH_OB_OptrConfig:0000000000000000 $t
     /tmp/ccXI1us5.s:499    .text.FLASH_OB_OptrConfig:0000000000000000 FLASH_OB_OptrConfig
     /tmp/ccXI1us5.s:596    .text.FLASH_OB_OptrConfig:0000000000000054 $d
     /tmp/ccXI1us5.s:607    .text.FLASH_OB_PCROP1AConfig:0000000000000000 $t
     /tmp/ccXI1us5.s:612    .text.FLASH_OB_PCROP1AConfig:0000000000000000 FLASH_OB_PCROP1AConfig
     /tmp/ccXI1us5.s:769    .text.FLASH_OB_PCROP1AConfig:0000000000000098 $d
     /tmp/ccXI1us5.s:781    .text.FLASH_OB_PCROP1BConfig:0000000000000000 $t
     /tmp/ccXI1us5.s:786    .text.FLASH_OB_PCROP1BConfig:0000000000000000 FLASH_OB_PCROP1BConfig
     /tmp/ccXI1us5.s:893    .text.FLASH_OB_PCROP1BConfig:000000000000006c $d
     /tmp/ccXI1us5.s:902    .text.FLASH_OB_SecMemConfig:0000000000000000 $t
     /tmp/ccXI1us5.s:907    .text.FLASH_OB_SecMemConfig:0000000000000000 FLASH_OB_SecMemConfig
     /tmp/ccXI1us5.s:991    .text.FLASH_OB_SecMemConfig:000000000000004c $d
     /tmp/ccXI1us5.s:1001   .text.FLASH_OB_GetWRP:0000000000000000 $t
     /tmp/ccXI1us5.s:1006   .text.FLASH_OB_GetWRP:0000000000000000 FLASH_OB_GetWRP
     /tmp/ccXI1us5.s:1093   .text.FLASH_OB_GetWRP:0000000000000048 $d
     /tmp/ccXI1us5.s:1099   .text.HAL_FLASHEx_OBProgram:0000000000000000 $t
     /tmp/ccXI1us5.s:1105   .text.HAL_FLASHEx_OBProgram:0000000000000000 HAL_FLASHEx_OBProgram
     /tmp/ccXI1us5.s:1344   .text.HAL_FLASHEx_OBProgram:00000000000000fc $d
     /tmp/ccXI1us5.s:1354   .text.HAL_FLASHEx_OBGetConfig:0000000000000000 $t
     /tmp/ccXI1us5.s:1360   .text.HAL_FLASHEx_OBGetConfig:0000000000000000 HAL_FLASHEx_OBGetConfig
     /tmp/ccXI1us5.s:1441   .text.HAL_FLASHEx_OBGetConfig:0000000000000058 $d
     /tmp/ccXI1us5.s:1446   .text.HAL_FLASHEx_EnableDebugger:0000000000000000 $t
     /tmp/ccXI1us5.s:1452   .text.HAL_FLASHEx_EnableDebugger:0000000000000000 HAL_FLASHEx_EnableDebugger
     /tmp/ccXI1us5.s:1473   .text.HAL_FLASHEx_EnableDebugger:0000000000000010 $d
     /tmp/ccXI1us5.s:1478   .text.HAL_FLASHEx_DisableDebugger:0000000000000000 $t
     /tmp/ccXI1us5.s:1484   .text.HAL_FLASHEx_DisableDebugger:0000000000000000 HAL_FLASHEx_DisableDebugger
     /tmp/ccXI1us5.s:1504   .text.HAL_FLASHEx_DisableDebugger:000000000000000c $d
     /tmp/ccXI1us5.s:1510   .text.HAL_FLASHEx_FlashEmptyCheck:0000000000000000 $t
     /tmp/ccXI1us5.s:1516   .text.HAL_FLASHEx_FlashEmptyCheck:0000000000000000 HAL_FLASHEx_FlashEmptyCheck
     /tmp/ccXI1us5.s:1537   .text.HAL_FLASHEx_FlashEmptyCheck:000000000000000c $d
     /tmp/ccXI1us5.s:1542   .text.HAL_FLASHEx_ForceFlashEmpty:0000000000000000 $t
     /tmp/ccXI1us5.s:1548   .text.HAL_FLASHEx_ForceFlashEmpty:0000000000000000 HAL_FLASHEx_ForceFlashEmpty
     /tmp/ccXI1us5.s:1604   .text.HAL_FLASHEx_ForceFlashEmpty:000000000000002c $d
ARM GAS  /tmp/ccXI1us5.s 			page 69


     /tmp/ccXI1us5.s:1611   .text.HAL_FLASHEx_EnableSecMemProtection:0000000000000000 $t
     /tmp/ccXI1us5.s:1617   .text.HAL_FLASHEx_EnableSecMemProtection:0000000000000000 HAL_FLASHEx_EnableSecMemProtection
     /tmp/ccXI1us5.s:1640   .text.HAL_FLASHEx_EnableSecMemProtection:0000000000000010 $d
     /tmp/ccXI1us5.s:1645   .text.FLASH_PageErase:0000000000000000 $t
     /tmp/ccXI1us5.s:1651   .text.FLASH_PageErase:0000000000000000 FLASH_PageErase
     /tmp/ccXI1us5.s:1728   .text.FLASH_PageErase:0000000000000044 $d
     /tmp/ccXI1us5.s:1739   .text.HAL_FLASHEx_Erase:0000000000000000 $t
     /tmp/ccXI1us5.s:1745   .text.HAL_FLASHEx_Erase:0000000000000000 HAL_FLASHEx_Erase
     /tmp/ccXI1us5.s:1916   .text.HAL_FLASHEx_Erase:0000000000000098 $d
     /tmp/ccXI1us5.s:1923   .text.HAL_FLASHEx_Erase_IT:0000000000000000 $t
     /tmp/ccXI1us5.s:1929   .text.HAL_FLASHEx_Erase_IT:0000000000000000 HAL_FLASHEx_Erase_IT
     /tmp/ccXI1us5.s:2071   .text.HAL_FLASHEx_Erase_IT:0000000000000084 $d
     /tmp/ccXI1us5.s:2078   .text.FLASH_FlushCaches:0000000000000000 $t
     /tmp/ccXI1us5.s:2084   .text.FLASH_FlushCaches:0000000000000000 FLASH_FlushCaches
     /tmp/ccXI1us5.s:2130   .text.FLASH_FlushCaches:0000000000000030 $d

UNDEFINED SYMBOLS
assert_failed
FLASH_WaitForLastOperation
pFlash
