ARM GAS  /tmp/cc0Fkdnx.s 			page 1


   1              		.cpu cortex-m0plus
   2              		.arch armv6s-m
   3              		.fpu softvfp
   4              		.eabi_attribute 20, 1
   5              		.eabi_attribute 21, 1
   6              		.eabi_attribute 23, 3
   7              		.eabi_attribute 24, 1
   8              		.eabi_attribute 25, 1
   9              		.eabi_attribute 26, 1
  10              		.eabi_attribute 30, 1
  11              		.eabi_attribute 34, 0
  12              		.eabi_attribute 18, 4
  13              		.file	"stm32g0xx_hal.c"
  14              		.text
  15              	.Ltext0:
  16              		.cfi_sections	.debug_frame
  17              		.section	.text.HAL_MspInit,"ax",%progbits
  18              		.align	1
  19              		.weak	HAL_MspInit
  20              		.syntax unified
  21              		.code	16
  22              		.thumb_func
  24              	HAL_MspInit:
  25              	.LFB329:
  26              		.file 1 "Drivers/STM32G0xx_HAL_Driver/Src/stm32g0xx_hal.c"
   1:Drivers/STM32G0xx_HAL_Driver/Src/stm32g0xx_hal.c **** /**
   2:Drivers/STM32G0xx_HAL_Driver/Src/stm32g0xx_hal.c ****   ******************************************************************************
   3:Drivers/STM32G0xx_HAL_Driver/Src/stm32g0xx_hal.c ****   * @file    stm32g0xx_hal.c
   4:Drivers/STM32G0xx_HAL_Driver/Src/stm32g0xx_hal.c ****   * @author  MCD Application Team
   5:Drivers/STM32G0xx_HAL_Driver/Src/stm32g0xx_hal.c ****   * @brief   HAL module driver.
   6:Drivers/STM32G0xx_HAL_Driver/Src/stm32g0xx_hal.c ****   *          This is the common part of the HAL initialization
   7:Drivers/STM32G0xx_HAL_Driver/Src/stm32g0xx_hal.c ****   *
   8:Drivers/STM32G0xx_HAL_Driver/Src/stm32g0xx_hal.c ****   ******************************************************************************
   9:Drivers/STM32G0xx_HAL_Driver/Src/stm32g0xx_hal.c ****   * @attention
  10:Drivers/STM32G0xx_HAL_Driver/Src/stm32g0xx_hal.c ****   *
  11:Drivers/STM32G0xx_HAL_Driver/Src/stm32g0xx_hal.c ****   * Copyright (c) 2018 STMicroelectronics. 
  12:Drivers/STM32G0xx_HAL_Driver/Src/stm32g0xx_hal.c ****   * All rights reserved.
  13:Drivers/STM32G0xx_HAL_Driver/Src/stm32g0xx_hal.c ****   *
  14:Drivers/STM32G0xx_HAL_Driver/Src/stm32g0xx_hal.c ****   * This software is licensed under terms that can be found in the LICENSE file
  15:Drivers/STM32G0xx_HAL_Driver/Src/stm32g0xx_hal.c ****   * in the root directory of this software component.
  16:Drivers/STM32G0xx_HAL_Driver/Src/stm32g0xx_hal.c ****   * If no LICENSE file comes with this software, it is provided AS-IS.
  17:Drivers/STM32G0xx_HAL_Driver/Src/stm32g0xx_hal.c ****   *
  18:Drivers/STM32G0xx_HAL_Driver/Src/stm32g0xx_hal.c ****   ******************************************************************************
  19:Drivers/STM32G0xx_HAL_Driver/Src/stm32g0xx_hal.c ****   @verbatim
  20:Drivers/STM32G0xx_HAL_Driver/Src/stm32g0xx_hal.c ****   ==============================================================================
  21:Drivers/STM32G0xx_HAL_Driver/Src/stm32g0xx_hal.c ****                      ##### How to use this driver #####
  22:Drivers/STM32G0xx_HAL_Driver/Src/stm32g0xx_hal.c ****   ==============================================================================
  23:Drivers/STM32G0xx_HAL_Driver/Src/stm32g0xx_hal.c ****     [..]
  24:Drivers/STM32G0xx_HAL_Driver/Src/stm32g0xx_hal.c ****     The common HAL driver contains a set of generic and common APIs that can be
  25:Drivers/STM32G0xx_HAL_Driver/Src/stm32g0xx_hal.c ****     used by the PPP peripheral drivers and the user to start using the HAL.
  26:Drivers/STM32G0xx_HAL_Driver/Src/stm32g0xx_hal.c ****     [..]
  27:Drivers/STM32G0xx_HAL_Driver/Src/stm32g0xx_hal.c ****     The HAL contains two APIs categories:
  28:Drivers/STM32G0xx_HAL_Driver/Src/stm32g0xx_hal.c ****          (+) Common HAL APIs
  29:Drivers/STM32G0xx_HAL_Driver/Src/stm32g0xx_hal.c ****          (+) Services HAL APIs
  30:Drivers/STM32G0xx_HAL_Driver/Src/stm32g0xx_hal.c **** 
  31:Drivers/STM32G0xx_HAL_Driver/Src/stm32g0xx_hal.c ****   @endverbatim
  32:Drivers/STM32G0xx_HAL_Driver/Src/stm32g0xx_hal.c ****   ******************************************************************************
ARM GAS  /tmp/cc0Fkdnx.s 			page 2


  33:Drivers/STM32G0xx_HAL_Driver/Src/stm32g0xx_hal.c ****   */
  34:Drivers/STM32G0xx_HAL_Driver/Src/stm32g0xx_hal.c **** 
  35:Drivers/STM32G0xx_HAL_Driver/Src/stm32g0xx_hal.c **** /* Includes ------------------------------------------------------------------*/
  36:Drivers/STM32G0xx_HAL_Driver/Src/stm32g0xx_hal.c **** #include "stm32g0xx_hal.h"
  37:Drivers/STM32G0xx_HAL_Driver/Src/stm32g0xx_hal.c **** 
  38:Drivers/STM32G0xx_HAL_Driver/Src/stm32g0xx_hal.c **** /** @addtogroup STM32G0xx_HAL_Driver
  39:Drivers/STM32G0xx_HAL_Driver/Src/stm32g0xx_hal.c ****   * @{
  40:Drivers/STM32G0xx_HAL_Driver/Src/stm32g0xx_hal.c ****   */
  41:Drivers/STM32G0xx_HAL_Driver/Src/stm32g0xx_hal.c **** 
  42:Drivers/STM32G0xx_HAL_Driver/Src/stm32g0xx_hal.c **** /** @addtogroup HAL
  43:Drivers/STM32G0xx_HAL_Driver/Src/stm32g0xx_hal.c ****   * @brief HAL module driver
  44:Drivers/STM32G0xx_HAL_Driver/Src/stm32g0xx_hal.c ****   * @{
  45:Drivers/STM32G0xx_HAL_Driver/Src/stm32g0xx_hal.c ****   */
  46:Drivers/STM32G0xx_HAL_Driver/Src/stm32g0xx_hal.c **** 
  47:Drivers/STM32G0xx_HAL_Driver/Src/stm32g0xx_hal.c **** #ifdef HAL_MODULE_ENABLED
  48:Drivers/STM32G0xx_HAL_Driver/Src/stm32g0xx_hal.c **** 
  49:Drivers/STM32G0xx_HAL_Driver/Src/stm32g0xx_hal.c **** /* Private typedef -----------------------------------------------------------*/
  50:Drivers/STM32G0xx_HAL_Driver/Src/stm32g0xx_hal.c **** /* Private define ------------------------------------------------------------*/
  51:Drivers/STM32G0xx_HAL_Driver/Src/stm32g0xx_hal.c **** 
  52:Drivers/STM32G0xx_HAL_Driver/Src/stm32g0xx_hal.c **** /** @defgroup HAL_Private_Constants HAL Private Constants
  53:Drivers/STM32G0xx_HAL_Driver/Src/stm32g0xx_hal.c ****   * @{
  54:Drivers/STM32G0xx_HAL_Driver/Src/stm32g0xx_hal.c ****   */
  55:Drivers/STM32G0xx_HAL_Driver/Src/stm32g0xx_hal.c **** /**
  56:Drivers/STM32G0xx_HAL_Driver/Src/stm32g0xx_hal.c ****   * @brief STM32G0xx HAL Driver version number
  57:Drivers/STM32G0xx_HAL_Driver/Src/stm32g0xx_hal.c ****   */
  58:Drivers/STM32G0xx_HAL_Driver/Src/stm32g0xx_hal.c **** #define __STM32G0xx_HAL_VERSION_MAIN   (0x01U) /*!< [31:24] main version */
  59:Drivers/STM32G0xx_HAL_Driver/Src/stm32g0xx_hal.c **** #define __STM32G0xx_HAL_VERSION_SUB1   (0x04U) /*!< [23:16] sub1 version */
  60:Drivers/STM32G0xx_HAL_Driver/Src/stm32g0xx_hal.c **** #define __STM32G0xx_HAL_VERSION_SUB2   (0x06U) /*!< [15:8]  sub2 version */
  61:Drivers/STM32G0xx_HAL_Driver/Src/stm32g0xx_hal.c **** #define __STM32G0xx_HAL_VERSION_RC     (0x00U) /*!< [7:0]  release candidate */
  62:Drivers/STM32G0xx_HAL_Driver/Src/stm32g0xx_hal.c **** #define __STM32G0xx_HAL_VERSION         ((__STM32G0xx_HAL_VERSION_MAIN << 24U)\
  63:Drivers/STM32G0xx_HAL_Driver/Src/stm32g0xx_hal.c ****                                         |(__STM32G0xx_HAL_VERSION_SUB1 << 16U)\
  64:Drivers/STM32G0xx_HAL_Driver/Src/stm32g0xx_hal.c ****                                         |(__STM32G0xx_HAL_VERSION_SUB2 << 8U )\
  65:Drivers/STM32G0xx_HAL_Driver/Src/stm32g0xx_hal.c ****                                         |(__STM32G0xx_HAL_VERSION_RC))
  66:Drivers/STM32G0xx_HAL_Driver/Src/stm32g0xx_hal.c **** 
  67:Drivers/STM32G0xx_HAL_Driver/Src/stm32g0xx_hal.c **** #if defined(VREFBUF)
  68:Drivers/STM32G0xx_HAL_Driver/Src/stm32g0xx_hal.c **** #define VREFBUF_TIMEOUT_VALUE     10U   /*!<  10 ms */
  69:Drivers/STM32G0xx_HAL_Driver/Src/stm32g0xx_hal.c **** #endif /* VREFBUF */
  70:Drivers/STM32G0xx_HAL_Driver/Src/stm32g0xx_hal.c **** 
  71:Drivers/STM32G0xx_HAL_Driver/Src/stm32g0xx_hal.c **** /**
  72:Drivers/STM32G0xx_HAL_Driver/Src/stm32g0xx_hal.c ****   * @}
  73:Drivers/STM32G0xx_HAL_Driver/Src/stm32g0xx_hal.c ****   */
  74:Drivers/STM32G0xx_HAL_Driver/Src/stm32g0xx_hal.c **** 
  75:Drivers/STM32G0xx_HAL_Driver/Src/stm32g0xx_hal.c **** /* Private macro -------------------------------------------------------------*/
  76:Drivers/STM32G0xx_HAL_Driver/Src/stm32g0xx_hal.c **** /* Exported variables ---------------------------------------------------------*/
  77:Drivers/STM32G0xx_HAL_Driver/Src/stm32g0xx_hal.c **** /** @defgroup HAL_Exported_Variables HAL Exported Variables
  78:Drivers/STM32G0xx_HAL_Driver/Src/stm32g0xx_hal.c ****   * @{
  79:Drivers/STM32G0xx_HAL_Driver/Src/stm32g0xx_hal.c ****   */
  80:Drivers/STM32G0xx_HAL_Driver/Src/stm32g0xx_hal.c **** __IO uint32_t uwTick;
  81:Drivers/STM32G0xx_HAL_Driver/Src/stm32g0xx_hal.c **** uint32_t uwTickPrio = (1UL << __NVIC_PRIO_BITS); /* Invalid PRIO */
  82:Drivers/STM32G0xx_HAL_Driver/Src/stm32g0xx_hal.c **** HAL_TickFreqTypeDef uwTickFreq = HAL_TICK_FREQ_DEFAULT;  /* 1KHz */
  83:Drivers/STM32G0xx_HAL_Driver/Src/stm32g0xx_hal.c **** /**
  84:Drivers/STM32G0xx_HAL_Driver/Src/stm32g0xx_hal.c ****   * @}
  85:Drivers/STM32G0xx_HAL_Driver/Src/stm32g0xx_hal.c ****   */
  86:Drivers/STM32G0xx_HAL_Driver/Src/stm32g0xx_hal.c **** 
  87:Drivers/STM32G0xx_HAL_Driver/Src/stm32g0xx_hal.c **** /* Private function prototypes -----------------------------------------------*/
  88:Drivers/STM32G0xx_HAL_Driver/Src/stm32g0xx_hal.c **** /* Exported functions --------------------------------------------------------*/
  89:Drivers/STM32G0xx_HAL_Driver/Src/stm32g0xx_hal.c **** 
ARM GAS  /tmp/cc0Fkdnx.s 			page 3


  90:Drivers/STM32G0xx_HAL_Driver/Src/stm32g0xx_hal.c **** /** @addtogroup HAL_Exported_Functions
  91:Drivers/STM32G0xx_HAL_Driver/Src/stm32g0xx_hal.c ****   * @{
  92:Drivers/STM32G0xx_HAL_Driver/Src/stm32g0xx_hal.c ****   */
  93:Drivers/STM32G0xx_HAL_Driver/Src/stm32g0xx_hal.c **** 
  94:Drivers/STM32G0xx_HAL_Driver/Src/stm32g0xx_hal.c **** /** @addtogroup HAL_Exported_Functions_Group1
  95:Drivers/STM32G0xx_HAL_Driver/Src/stm32g0xx_hal.c ****  *  @brief    HAL Initialization and Configuration functions
  96:Drivers/STM32G0xx_HAL_Driver/Src/stm32g0xx_hal.c ****  *
  97:Drivers/STM32G0xx_HAL_Driver/Src/stm32g0xx_hal.c **** @verbatim
  98:Drivers/STM32G0xx_HAL_Driver/Src/stm32g0xx_hal.c ****  ===============================================================================
  99:Drivers/STM32G0xx_HAL_Driver/Src/stm32g0xx_hal.c ****            ##### HAL Initialization and Configuration functions #####
 100:Drivers/STM32G0xx_HAL_Driver/Src/stm32g0xx_hal.c ****  ===============================================================================
 101:Drivers/STM32G0xx_HAL_Driver/Src/stm32g0xx_hal.c ****     [..]  This section provides functions allowing to:
 102:Drivers/STM32G0xx_HAL_Driver/Src/stm32g0xx_hal.c ****       (+) Initialize the Flash interface the NVIC allocation and initial time base
 103:Drivers/STM32G0xx_HAL_Driver/Src/stm32g0xx_hal.c ****           clock configuration.
 104:Drivers/STM32G0xx_HAL_Driver/Src/stm32g0xx_hal.c ****       (+) De-initialize common part of the HAL.
 105:Drivers/STM32G0xx_HAL_Driver/Src/stm32g0xx_hal.c ****       (+) Configure the time base source to have 1ms time base with a dedicated
 106:Drivers/STM32G0xx_HAL_Driver/Src/stm32g0xx_hal.c ****           Tick interrupt priority.
 107:Drivers/STM32G0xx_HAL_Driver/Src/stm32g0xx_hal.c ****         (++) SysTick timer is used by default as source of time base, but user
 108:Drivers/STM32G0xx_HAL_Driver/Src/stm32g0xx_hal.c ****              can eventually implement his proper time base source (a general purpose
 109:Drivers/STM32G0xx_HAL_Driver/Src/stm32g0xx_hal.c ****              timer for example or other time source), keeping in mind that Time base
 110:Drivers/STM32G0xx_HAL_Driver/Src/stm32g0xx_hal.c ****              duration should be kept 1ms since PPP_TIMEOUT_VALUEs are defined and
 111:Drivers/STM32G0xx_HAL_Driver/Src/stm32g0xx_hal.c ****              handled in milliseconds basis.
 112:Drivers/STM32G0xx_HAL_Driver/Src/stm32g0xx_hal.c ****         (++) Time base configuration function (HAL_InitTick ()) is called automatically
 113:Drivers/STM32G0xx_HAL_Driver/Src/stm32g0xx_hal.c ****              at the beginning of the program after reset by HAL_Init() or at any time
 114:Drivers/STM32G0xx_HAL_Driver/Src/stm32g0xx_hal.c ****              when clock is configured, by HAL_RCC_ClockConfig().
 115:Drivers/STM32G0xx_HAL_Driver/Src/stm32g0xx_hal.c ****         (++) Source of time base is configured  to generate interrupts at regular
 116:Drivers/STM32G0xx_HAL_Driver/Src/stm32g0xx_hal.c ****              time intervals. Care must be taken if HAL_Delay() is called from a
 117:Drivers/STM32G0xx_HAL_Driver/Src/stm32g0xx_hal.c ****              peripheral ISR process, the Tick interrupt line must have higher priority
 118:Drivers/STM32G0xx_HAL_Driver/Src/stm32g0xx_hal.c ****             (numerically lower) than the peripheral interrupt. Otherwise the caller
 119:Drivers/STM32G0xx_HAL_Driver/Src/stm32g0xx_hal.c ****             ISR process will be blocked.
 120:Drivers/STM32G0xx_HAL_Driver/Src/stm32g0xx_hal.c ****        (++) functions affecting time base configurations are declared as __weak
 121:Drivers/STM32G0xx_HAL_Driver/Src/stm32g0xx_hal.c ****              to make  override possible  in case of other  implementations in user file.
 122:Drivers/STM32G0xx_HAL_Driver/Src/stm32g0xx_hal.c **** @endverbatim
 123:Drivers/STM32G0xx_HAL_Driver/Src/stm32g0xx_hal.c ****   * @{
 124:Drivers/STM32G0xx_HAL_Driver/Src/stm32g0xx_hal.c ****   */
 125:Drivers/STM32G0xx_HAL_Driver/Src/stm32g0xx_hal.c **** 
 126:Drivers/STM32G0xx_HAL_Driver/Src/stm32g0xx_hal.c **** /**
 127:Drivers/STM32G0xx_HAL_Driver/Src/stm32g0xx_hal.c ****   * @brief  Configure the Flash prefetch and the Instruction cache,
 128:Drivers/STM32G0xx_HAL_Driver/Src/stm32g0xx_hal.c ****   *         the time base source, NVIC and any required global low level hardware
 129:Drivers/STM32G0xx_HAL_Driver/Src/stm32g0xx_hal.c ****   *         by calling the HAL_MspInit() callback function to be optionally defined in user file
 130:Drivers/STM32G0xx_HAL_Driver/Src/stm32g0xx_hal.c ****   *         stm32g0xx_hal_msp.c.
 131:Drivers/STM32G0xx_HAL_Driver/Src/stm32g0xx_hal.c ****   *
 132:Drivers/STM32G0xx_HAL_Driver/Src/stm32g0xx_hal.c ****   * @note   HAL_Init() function is called at the beginning of program after reset and before
 133:Drivers/STM32G0xx_HAL_Driver/Src/stm32g0xx_hal.c ****   *         the clock configuration.
 134:Drivers/STM32G0xx_HAL_Driver/Src/stm32g0xx_hal.c ****   *
 135:Drivers/STM32G0xx_HAL_Driver/Src/stm32g0xx_hal.c ****   * @note   In the default implementation the System Timer (Systick) is used as source of time base
 136:Drivers/STM32G0xx_HAL_Driver/Src/stm32g0xx_hal.c ****   *         The Systick configuration is based on HSI clock, as HSI is the clock
 137:Drivers/STM32G0xx_HAL_Driver/Src/stm32g0xx_hal.c ****   *         used after a system Reset.
 138:Drivers/STM32G0xx_HAL_Driver/Src/stm32g0xx_hal.c ****   *         Once done, time base tick starts incrementing: the tick variable counter is incremented
 139:Drivers/STM32G0xx_HAL_Driver/Src/stm32g0xx_hal.c ****   *         each 1ms in the SysTick_Handler() interrupt handler.
 140:Drivers/STM32G0xx_HAL_Driver/Src/stm32g0xx_hal.c ****   *
 141:Drivers/STM32G0xx_HAL_Driver/Src/stm32g0xx_hal.c ****   * @retval HAL status
 142:Drivers/STM32G0xx_HAL_Driver/Src/stm32g0xx_hal.c ****   */
 143:Drivers/STM32G0xx_HAL_Driver/Src/stm32g0xx_hal.c **** HAL_StatusTypeDef HAL_Init(void)
 144:Drivers/STM32G0xx_HAL_Driver/Src/stm32g0xx_hal.c **** {
 145:Drivers/STM32G0xx_HAL_Driver/Src/stm32g0xx_hal.c ****   HAL_StatusTypeDef  status = HAL_OK;
 146:Drivers/STM32G0xx_HAL_Driver/Src/stm32g0xx_hal.c **** 
ARM GAS  /tmp/cc0Fkdnx.s 			page 4


 147:Drivers/STM32G0xx_HAL_Driver/Src/stm32g0xx_hal.c ****   /* Configure Flash prefetch, Instruction cache             */
 148:Drivers/STM32G0xx_HAL_Driver/Src/stm32g0xx_hal.c ****   /* Default configuration at reset is:                      */
 149:Drivers/STM32G0xx_HAL_Driver/Src/stm32g0xx_hal.c ****   /* - Prefetch disabled                                     */
 150:Drivers/STM32G0xx_HAL_Driver/Src/stm32g0xx_hal.c ****   /* - Instruction cache enabled                             */
 151:Drivers/STM32G0xx_HAL_Driver/Src/stm32g0xx_hal.c **** 
 152:Drivers/STM32G0xx_HAL_Driver/Src/stm32g0xx_hal.c **** #if (INSTRUCTION_CACHE_ENABLE == 0U)
 153:Drivers/STM32G0xx_HAL_Driver/Src/stm32g0xx_hal.c ****   __HAL_FLASH_INSTRUCTION_CACHE_DISABLE();
 154:Drivers/STM32G0xx_HAL_Driver/Src/stm32g0xx_hal.c **** #endif /* INSTRUCTION_CACHE_ENABLE */
 155:Drivers/STM32G0xx_HAL_Driver/Src/stm32g0xx_hal.c **** 
 156:Drivers/STM32G0xx_HAL_Driver/Src/stm32g0xx_hal.c **** #if (PREFETCH_ENABLE != 0U)
 157:Drivers/STM32G0xx_HAL_Driver/Src/stm32g0xx_hal.c ****   __HAL_FLASH_PREFETCH_BUFFER_ENABLE();
 158:Drivers/STM32G0xx_HAL_Driver/Src/stm32g0xx_hal.c **** #endif /* PREFETCH_ENABLE */
 159:Drivers/STM32G0xx_HAL_Driver/Src/stm32g0xx_hal.c **** 
 160:Drivers/STM32G0xx_HAL_Driver/Src/stm32g0xx_hal.c ****   /* Use SysTick as time base source and configure 1ms tick (default clock after Reset is HSI) */
 161:Drivers/STM32G0xx_HAL_Driver/Src/stm32g0xx_hal.c ****   if (HAL_InitTick(TICK_INT_PRIORITY) != HAL_OK)
 162:Drivers/STM32G0xx_HAL_Driver/Src/stm32g0xx_hal.c ****   {
 163:Drivers/STM32G0xx_HAL_Driver/Src/stm32g0xx_hal.c ****     status = HAL_ERROR;
 164:Drivers/STM32G0xx_HAL_Driver/Src/stm32g0xx_hal.c ****   }
 165:Drivers/STM32G0xx_HAL_Driver/Src/stm32g0xx_hal.c ****   else
 166:Drivers/STM32G0xx_HAL_Driver/Src/stm32g0xx_hal.c ****   {
 167:Drivers/STM32G0xx_HAL_Driver/Src/stm32g0xx_hal.c ****   /* Init the low level hardware */
 168:Drivers/STM32G0xx_HAL_Driver/Src/stm32g0xx_hal.c ****   HAL_MspInit();
 169:Drivers/STM32G0xx_HAL_Driver/Src/stm32g0xx_hal.c ****   }
 170:Drivers/STM32G0xx_HAL_Driver/Src/stm32g0xx_hal.c **** 
 171:Drivers/STM32G0xx_HAL_Driver/Src/stm32g0xx_hal.c ****   /* Return function status */
 172:Drivers/STM32G0xx_HAL_Driver/Src/stm32g0xx_hal.c ****   return status;
 173:Drivers/STM32G0xx_HAL_Driver/Src/stm32g0xx_hal.c **** }
 174:Drivers/STM32G0xx_HAL_Driver/Src/stm32g0xx_hal.c **** 
 175:Drivers/STM32G0xx_HAL_Driver/Src/stm32g0xx_hal.c **** /**
 176:Drivers/STM32G0xx_HAL_Driver/Src/stm32g0xx_hal.c ****   * @brief  This function de-Initializes common part of the HAL and stops the source of time base.
 177:Drivers/STM32G0xx_HAL_Driver/Src/stm32g0xx_hal.c ****   * @note   This function is optional.
 178:Drivers/STM32G0xx_HAL_Driver/Src/stm32g0xx_hal.c ****   * @retval HAL status
 179:Drivers/STM32G0xx_HAL_Driver/Src/stm32g0xx_hal.c ****   */
 180:Drivers/STM32G0xx_HAL_Driver/Src/stm32g0xx_hal.c **** HAL_StatusTypeDef HAL_DeInit(void)
 181:Drivers/STM32G0xx_HAL_Driver/Src/stm32g0xx_hal.c **** {
 182:Drivers/STM32G0xx_HAL_Driver/Src/stm32g0xx_hal.c ****   /* Reset of all peripherals */
 183:Drivers/STM32G0xx_HAL_Driver/Src/stm32g0xx_hal.c ****   __HAL_RCC_APB1_FORCE_RESET();
 184:Drivers/STM32G0xx_HAL_Driver/Src/stm32g0xx_hal.c ****   __HAL_RCC_APB1_RELEASE_RESET();
 185:Drivers/STM32G0xx_HAL_Driver/Src/stm32g0xx_hal.c **** 
 186:Drivers/STM32G0xx_HAL_Driver/Src/stm32g0xx_hal.c ****   __HAL_RCC_APB2_FORCE_RESET();
 187:Drivers/STM32G0xx_HAL_Driver/Src/stm32g0xx_hal.c ****   __HAL_RCC_APB2_RELEASE_RESET();
 188:Drivers/STM32G0xx_HAL_Driver/Src/stm32g0xx_hal.c **** 
 189:Drivers/STM32G0xx_HAL_Driver/Src/stm32g0xx_hal.c ****   __HAL_RCC_AHB_FORCE_RESET();
 190:Drivers/STM32G0xx_HAL_Driver/Src/stm32g0xx_hal.c ****   __HAL_RCC_AHB_RELEASE_RESET();
 191:Drivers/STM32G0xx_HAL_Driver/Src/stm32g0xx_hal.c **** 
 192:Drivers/STM32G0xx_HAL_Driver/Src/stm32g0xx_hal.c ****   __HAL_RCC_IOP_FORCE_RESET();
 193:Drivers/STM32G0xx_HAL_Driver/Src/stm32g0xx_hal.c ****   __HAL_RCC_IOP_RELEASE_RESET();
 194:Drivers/STM32G0xx_HAL_Driver/Src/stm32g0xx_hal.c **** 
 195:Drivers/STM32G0xx_HAL_Driver/Src/stm32g0xx_hal.c ****   /* De-Init the low level hardware */
 196:Drivers/STM32G0xx_HAL_Driver/Src/stm32g0xx_hal.c ****   HAL_MspDeInit();
 197:Drivers/STM32G0xx_HAL_Driver/Src/stm32g0xx_hal.c **** 
 198:Drivers/STM32G0xx_HAL_Driver/Src/stm32g0xx_hal.c ****   /* Return function status */
 199:Drivers/STM32G0xx_HAL_Driver/Src/stm32g0xx_hal.c ****   return HAL_OK;
 200:Drivers/STM32G0xx_HAL_Driver/Src/stm32g0xx_hal.c **** }
 201:Drivers/STM32G0xx_HAL_Driver/Src/stm32g0xx_hal.c **** 
 202:Drivers/STM32G0xx_HAL_Driver/Src/stm32g0xx_hal.c **** /**
 203:Drivers/STM32G0xx_HAL_Driver/Src/stm32g0xx_hal.c ****   * @brief  Initialize the MSP.
ARM GAS  /tmp/cc0Fkdnx.s 			page 5


 204:Drivers/STM32G0xx_HAL_Driver/Src/stm32g0xx_hal.c ****   * @retval None
 205:Drivers/STM32G0xx_HAL_Driver/Src/stm32g0xx_hal.c ****   */
 206:Drivers/STM32G0xx_HAL_Driver/Src/stm32g0xx_hal.c **** __weak void HAL_MspInit(void)
 207:Drivers/STM32G0xx_HAL_Driver/Src/stm32g0xx_hal.c **** {
  27              		.loc 1 207 1 view -0
  28              		.cfi_startproc
  29              		@ args = 0, pretend = 0, frame = 0
  30              		@ frame_needed = 0, uses_anonymous_args = 0
  31              		@ link register save eliminated.
 208:Drivers/STM32G0xx_HAL_Driver/Src/stm32g0xx_hal.c ****   /* NOTE : This function should not be modified, when the callback is needed,
 209:Drivers/STM32G0xx_HAL_Driver/Src/stm32g0xx_hal.c ****             the HAL_MspInit could be implemented in the user file
 210:Drivers/STM32G0xx_HAL_Driver/Src/stm32g0xx_hal.c ****    */
 211:Drivers/STM32G0xx_HAL_Driver/Src/stm32g0xx_hal.c **** }
  32              		.loc 1 211 1 view .LVU1
  33              		@ sp needed
  34 0000 7047     		bx	lr
  35              		.cfi_endproc
  36              	.LFE329:
  38              		.section	.text.HAL_MspDeInit,"ax",%progbits
  39              		.align	1
  40              		.weak	HAL_MspDeInit
  41              		.syntax unified
  42              		.code	16
  43              		.thumb_func
  45              	HAL_MspDeInit:
  46              	.LFB330:
 212:Drivers/STM32G0xx_HAL_Driver/Src/stm32g0xx_hal.c **** 
 213:Drivers/STM32G0xx_HAL_Driver/Src/stm32g0xx_hal.c **** /**
 214:Drivers/STM32G0xx_HAL_Driver/Src/stm32g0xx_hal.c ****   * @brief  DeInitializes the MSP.
 215:Drivers/STM32G0xx_HAL_Driver/Src/stm32g0xx_hal.c ****   * @retval None
 216:Drivers/STM32G0xx_HAL_Driver/Src/stm32g0xx_hal.c ****   */
 217:Drivers/STM32G0xx_HAL_Driver/Src/stm32g0xx_hal.c **** __weak void HAL_MspDeInit(void)
 218:Drivers/STM32G0xx_HAL_Driver/Src/stm32g0xx_hal.c **** {
  47              		.loc 1 218 1 view -0
  48              		.cfi_startproc
  49              		@ args = 0, pretend = 0, frame = 0
  50              		@ frame_needed = 0, uses_anonymous_args = 0
  51              		@ link register save eliminated.
 219:Drivers/STM32G0xx_HAL_Driver/Src/stm32g0xx_hal.c ****   /* NOTE : This function should not be modified, when the callback is needed,
 220:Drivers/STM32G0xx_HAL_Driver/Src/stm32g0xx_hal.c ****             the HAL_MspDeInit could be implemented in the user file
 221:Drivers/STM32G0xx_HAL_Driver/Src/stm32g0xx_hal.c ****    */
 222:Drivers/STM32G0xx_HAL_Driver/Src/stm32g0xx_hal.c **** }
  52              		.loc 1 222 1 view .LVU3
  53              		@ sp needed
  54 0000 7047     		bx	lr
  55              		.cfi_endproc
  56              	.LFE330:
  58              		.section	.text.HAL_DeInit,"ax",%progbits
  59              		.align	1
  60              		.global	HAL_DeInit
  61              		.syntax unified
  62              		.code	16
  63              		.thumb_func
  65              	HAL_DeInit:
  66              	.LFB328:
 181:Drivers/STM32G0xx_HAL_Driver/Src/stm32g0xx_hal.c ****   /* Reset of all peripherals */
  67              		.loc 1 181 1 view -0
ARM GAS  /tmp/cc0Fkdnx.s 			page 6


  68              		.cfi_startproc
  69              		@ args = 0, pretend = 0, frame = 0
  70              		@ frame_needed = 0, uses_anonymous_args = 0
  71 0000 10B5     		push	{r4, lr}
  72              	.LCFI0:
  73              		.cfi_def_cfa_offset 8
  74              		.cfi_offset 4, -8
  75              		.cfi_offset 14, -4
 183:Drivers/STM32G0xx_HAL_Driver/Src/stm32g0xx_hal.c ****   __HAL_RCC_APB1_RELEASE_RESET();
  76              		.loc 1 183 3 view .LVU5
  77 0002 084B     		ldr	r3, .L4
  78 0004 0121     		movs	r1, #1
  79 0006 4942     		rsbs	r1, r1, #0
  80 0008 D962     		str	r1, [r3, #44]
 184:Drivers/STM32G0xx_HAL_Driver/Src/stm32g0xx_hal.c **** 
  81              		.loc 1 184 3 view .LVU6
  82 000a 0022     		movs	r2, #0
  83 000c DA62     		str	r2, [r3, #44]
 186:Drivers/STM32G0xx_HAL_Driver/Src/stm32g0xx_hal.c ****   __HAL_RCC_APB2_RELEASE_RESET();
  84              		.loc 1 186 3 view .LVU7
  85 000e 1963     		str	r1, [r3, #48]
 187:Drivers/STM32G0xx_HAL_Driver/Src/stm32g0xx_hal.c **** 
  86              		.loc 1 187 3 view .LVU8
  87 0010 1A63     		str	r2, [r3, #48]
 189:Drivers/STM32G0xx_HAL_Driver/Src/stm32g0xx_hal.c ****   __HAL_RCC_AHB_RELEASE_RESET();
  88              		.loc 1 189 3 view .LVU9
  89 0012 9962     		str	r1, [r3, #40]
 190:Drivers/STM32G0xx_HAL_Driver/Src/stm32g0xx_hal.c **** 
  90              		.loc 1 190 3 view .LVU10
  91 0014 9A62     		str	r2, [r3, #40]
 192:Drivers/STM32G0xx_HAL_Driver/Src/stm32g0xx_hal.c ****   __HAL_RCC_IOP_RELEASE_RESET();
  92              		.loc 1 192 3 view .LVU11
  93 0016 5962     		str	r1, [r3, #36]
 193:Drivers/STM32G0xx_HAL_Driver/Src/stm32g0xx_hal.c **** 
  94              		.loc 1 193 3 view .LVU12
  95 0018 5A62     		str	r2, [r3, #36]
 196:Drivers/STM32G0xx_HAL_Driver/Src/stm32g0xx_hal.c **** 
  96              		.loc 1 196 3 view .LVU13
  97 001a FFF7FEFF 		bl	HAL_MspDeInit
  98              	.LVL0:
 199:Drivers/STM32G0xx_HAL_Driver/Src/stm32g0xx_hal.c **** }
  99              		.loc 1 199 3 view .LVU14
 200:Drivers/STM32G0xx_HAL_Driver/Src/stm32g0xx_hal.c **** 
 100              		.loc 1 200 1 is_stmt 0 view .LVU15
 101 001e 0020     		movs	r0, #0
 102              		@ sp needed
 103 0020 10BD     		pop	{r4, pc}
 104              	.L5:
 105 0022 C046     		.align	2
 106              	.L4:
 107 0024 00100240 		.word	1073876992
 108              		.cfi_endproc
 109              	.LFE328:
 111              		.global	__aeabi_uidiv
 112              		.section	.text.HAL_InitTick,"ax",%progbits
 113              		.align	1
 114              		.weak	HAL_InitTick
ARM GAS  /tmp/cc0Fkdnx.s 			page 7


 115              		.syntax unified
 116              		.code	16
 117              		.thumb_func
 119              	HAL_InitTick:
 120              	.LVL1:
 121              	.LFB331:
 223:Drivers/STM32G0xx_HAL_Driver/Src/stm32g0xx_hal.c **** 
 224:Drivers/STM32G0xx_HAL_Driver/Src/stm32g0xx_hal.c **** /**
 225:Drivers/STM32G0xx_HAL_Driver/Src/stm32g0xx_hal.c ****   * @brief This function configures the source of the time base:
 226:Drivers/STM32G0xx_HAL_Driver/Src/stm32g0xx_hal.c ****   *        The time source is configured  to have 1ms time base with a dedicated
 227:Drivers/STM32G0xx_HAL_Driver/Src/stm32g0xx_hal.c ****   *        Tick interrupt priority.
 228:Drivers/STM32G0xx_HAL_Driver/Src/stm32g0xx_hal.c ****   * @note This function is called  automatically at the beginning of program after
 229:Drivers/STM32G0xx_HAL_Driver/Src/stm32g0xx_hal.c ****   *       reset by HAL_Init() or at any time when clock is reconfigured  by HAL_RCC_ClockConfig().
 230:Drivers/STM32G0xx_HAL_Driver/Src/stm32g0xx_hal.c ****   * @note In the default implementation, SysTick timer is the source of time base.
 231:Drivers/STM32G0xx_HAL_Driver/Src/stm32g0xx_hal.c ****   *       It is used to generate interrupts at regular time intervals.
 232:Drivers/STM32G0xx_HAL_Driver/Src/stm32g0xx_hal.c ****   *       Care must be taken if HAL_Delay() is called from a peripheral ISR process,
 233:Drivers/STM32G0xx_HAL_Driver/Src/stm32g0xx_hal.c ****   *       The SysTick interrupt must have higher priority (numerically lower)
 234:Drivers/STM32G0xx_HAL_Driver/Src/stm32g0xx_hal.c ****   *       than the peripheral interrupt. Otherwise the caller ISR process will be blocked.
 235:Drivers/STM32G0xx_HAL_Driver/Src/stm32g0xx_hal.c ****   *       The function is declared as __weak  to be overwritten  in case of other
 236:Drivers/STM32G0xx_HAL_Driver/Src/stm32g0xx_hal.c ****   *       implementation  in user file.
 237:Drivers/STM32G0xx_HAL_Driver/Src/stm32g0xx_hal.c ****   * @param TickPriority Tick interrupt priority.
 238:Drivers/STM32G0xx_HAL_Driver/Src/stm32g0xx_hal.c ****   * @retval HAL status
 239:Drivers/STM32G0xx_HAL_Driver/Src/stm32g0xx_hal.c ****   */
 240:Drivers/STM32G0xx_HAL_Driver/Src/stm32g0xx_hal.c **** __weak HAL_StatusTypeDef HAL_InitTick(uint32_t TickPriority)
 241:Drivers/STM32G0xx_HAL_Driver/Src/stm32g0xx_hal.c **** {
 122              		.loc 1 241 1 is_stmt 1 view -0
 123              		.cfi_startproc
 124              		@ args = 0, pretend = 0, frame = 0
 125              		@ frame_needed = 0, uses_anonymous_args = 0
 126              		.loc 1 241 1 is_stmt 0 view .LVU17
 127 0000 10B5     		push	{r4, lr}
 128              	.LCFI1:
 129              		.cfi_def_cfa_offset 8
 130              		.cfi_offset 4, -8
 131              		.cfi_offset 14, -4
 132 0002 0400     		movs	r4, r0
 242:Drivers/STM32G0xx_HAL_Driver/Src/stm32g0xx_hal.c ****   HAL_StatusTypeDef  status = HAL_OK;
 133              		.loc 1 242 3 is_stmt 1 view .LVU18
 134              	.LVL2:
 243:Drivers/STM32G0xx_HAL_Driver/Src/stm32g0xx_hal.c **** 
 244:Drivers/STM32G0xx_HAL_Driver/Src/stm32g0xx_hal.c ****   /* Check uwTickFreq for MisraC 2012 (even if uwTickFreq is a enum type that doesn't take the valu
 245:Drivers/STM32G0xx_HAL_Driver/Src/stm32g0xx_hal.c ****   if ((uint32_t)uwTickFreq != 0U)
 135              		.loc 1 245 3 view .LVU19
 136              		.loc 1 245 28 is_stmt 0 view .LVU20
 137 0004 114B     		ldr	r3, .L13
 138 0006 1978     		ldrb	r1, [r3]
 139              		.loc 1 245 6 view .LVU21
 140 0008 0029     		cmp	r1, #0
 141 000a 01D1     		bne	.L11
 246:Drivers/STM32G0xx_HAL_Driver/Src/stm32g0xx_hal.c ****   {
 247:Drivers/STM32G0xx_HAL_Driver/Src/stm32g0xx_hal.c ****     /*Configure the SysTick to have interrupt in 1ms time basis*/
 248:Drivers/STM32G0xx_HAL_Driver/Src/stm32g0xx_hal.c ****     if (HAL_SYSTICK_Config(SystemCoreClock / (1000U /(uint32_t)uwTickFreq)) == 0U)
 249:Drivers/STM32G0xx_HAL_Driver/Src/stm32g0xx_hal.c ****     {
 250:Drivers/STM32G0xx_HAL_Driver/Src/stm32g0xx_hal.c ****       /* Configure the SysTick IRQ priority */
 251:Drivers/STM32G0xx_HAL_Driver/Src/stm32g0xx_hal.c ****       if (TickPriority < (1UL << __NVIC_PRIO_BITS))
 252:Drivers/STM32G0xx_HAL_Driver/Src/stm32g0xx_hal.c ****       {
 253:Drivers/STM32G0xx_HAL_Driver/Src/stm32g0xx_hal.c ****         HAL_NVIC_SetPriority(SysTick_IRQn, TickPriority, 0U);
ARM GAS  /tmp/cc0Fkdnx.s 			page 8


 254:Drivers/STM32G0xx_HAL_Driver/Src/stm32g0xx_hal.c ****         uwTickPrio = TickPriority;
 255:Drivers/STM32G0xx_HAL_Driver/Src/stm32g0xx_hal.c ****       }
 256:Drivers/STM32G0xx_HAL_Driver/Src/stm32g0xx_hal.c ****       else
 257:Drivers/STM32G0xx_HAL_Driver/Src/stm32g0xx_hal.c ****       {
 258:Drivers/STM32G0xx_HAL_Driver/Src/stm32g0xx_hal.c ****         status = HAL_ERROR;
 259:Drivers/STM32G0xx_HAL_Driver/Src/stm32g0xx_hal.c ****       }
 260:Drivers/STM32G0xx_HAL_Driver/Src/stm32g0xx_hal.c ****     }
 261:Drivers/STM32G0xx_HAL_Driver/Src/stm32g0xx_hal.c ****     else
 262:Drivers/STM32G0xx_HAL_Driver/Src/stm32g0xx_hal.c ****     {
 263:Drivers/STM32G0xx_HAL_Driver/Src/stm32g0xx_hal.c ****       status = HAL_ERROR;
 264:Drivers/STM32G0xx_HAL_Driver/Src/stm32g0xx_hal.c ****     }
 265:Drivers/STM32G0xx_HAL_Driver/Src/stm32g0xx_hal.c ****   }
 266:Drivers/STM32G0xx_HAL_Driver/Src/stm32g0xx_hal.c ****   else
 267:Drivers/STM32G0xx_HAL_Driver/Src/stm32g0xx_hal.c ****   {
 268:Drivers/STM32G0xx_HAL_Driver/Src/stm32g0xx_hal.c ****     status = HAL_ERROR;
 142              		.loc 1 268 12 view .LVU22
 143 000c 0120     		movs	r0, #1
 144              	.LVL3:
 145              	.L7:
 269:Drivers/STM32G0xx_HAL_Driver/Src/stm32g0xx_hal.c ****   }
 270:Drivers/STM32G0xx_HAL_Driver/Src/stm32g0xx_hal.c **** 
 271:Drivers/STM32G0xx_HAL_Driver/Src/stm32g0xx_hal.c ****   /* Return function status */
 272:Drivers/STM32G0xx_HAL_Driver/Src/stm32g0xx_hal.c ****   return status;
 146              		.loc 1 272 3 is_stmt 1 view .LVU23
 273:Drivers/STM32G0xx_HAL_Driver/Src/stm32g0xx_hal.c **** }
 147              		.loc 1 273 1 is_stmt 0 view .LVU24
 148              		@ sp needed
 149              	.LVL4:
 150              		.loc 1 273 1 view .LVU25
 151 000e 10BD     		pop	{r4, pc}
 152              	.LVL5:
 153              	.L11:
 248:Drivers/STM32G0xx_HAL_Driver/Src/stm32g0xx_hal.c ****     {
 154              		.loc 1 248 5 is_stmt 1 view .LVU26
 248:Drivers/STM32G0xx_HAL_Driver/Src/stm32g0xx_hal.c ****     {
 155              		.loc 1 248 53 is_stmt 0 view .LVU27
 156 0010 FA20     		movs	r0, #250
 157              	.LVL6:
 248:Drivers/STM32G0xx_HAL_Driver/Src/stm32g0xx_hal.c ****     {
 158              		.loc 1 248 53 view .LVU28
 159 0012 8000     		lsls	r0, r0, #2
 160 0014 FFF7FEFF 		bl	__aeabi_uidiv
 161              	.LVL7:
 162 0018 0100     		movs	r1, r0
 248:Drivers/STM32G0xx_HAL_Driver/Src/stm32g0xx_hal.c ****     {
 163              		.loc 1 248 9 view .LVU29
 164 001a 0D4B     		ldr	r3, .L13+4
 165 001c 1868     		ldr	r0, [r3]
 166 001e FFF7FEFF 		bl	__aeabi_uidiv
 167              	.LVL8:
 168 0022 FFF7FEFF 		bl	HAL_SYSTICK_Config
 169              	.LVL9:
 248:Drivers/STM32G0xx_HAL_Driver/Src/stm32g0xx_hal.c ****     {
 170              		.loc 1 248 8 view .LVU30
 171 0026 0028     		cmp	r0, #0
 172 0028 0DD1     		bne	.L9
 251:Drivers/STM32G0xx_HAL_Driver/Src/stm32g0xx_hal.c ****       {
ARM GAS  /tmp/cc0Fkdnx.s 			page 9


 173              		.loc 1 251 7 is_stmt 1 view .LVU31
 251:Drivers/STM32G0xx_HAL_Driver/Src/stm32g0xx_hal.c ****       {
 174              		.loc 1 251 10 is_stmt 0 view .LVU32
 175 002a 032C     		cmp	r4, #3
 176 002c 01D9     		bls	.L12
 258:Drivers/STM32G0xx_HAL_Driver/Src/stm32g0xx_hal.c ****       }
 177              		.loc 1 258 16 view .LVU33
 178 002e 0120     		movs	r0, #1
 179 0030 EDE7     		b	.L7
 180              	.L12:
 253:Drivers/STM32G0xx_HAL_Driver/Src/stm32g0xx_hal.c ****         uwTickPrio = TickPriority;
 181              		.loc 1 253 9 is_stmt 1 view .LVU34
 182 0032 0130     		adds	r0, r0, #1
 183 0034 0022     		movs	r2, #0
 184 0036 2100     		movs	r1, r4
 185 0038 4042     		rsbs	r0, r0, #0
 186 003a FFF7FEFF 		bl	HAL_NVIC_SetPriority
 187              	.LVL10:
 254:Drivers/STM32G0xx_HAL_Driver/Src/stm32g0xx_hal.c ****       }
 188              		.loc 1 254 9 view .LVU35
 254:Drivers/STM32G0xx_HAL_Driver/Src/stm32g0xx_hal.c ****       }
 189              		.loc 1 254 20 is_stmt 0 view .LVU36
 190 003e 054B     		ldr	r3, .L13+8
 191 0040 1C60     		str	r4, [r3]
 242:Drivers/STM32G0xx_HAL_Driver/Src/stm32g0xx_hal.c **** 
 192              		.loc 1 242 22 view .LVU37
 193 0042 0020     		movs	r0, #0
 194 0044 E3E7     		b	.L7
 195              	.L9:
 263:Drivers/STM32G0xx_HAL_Driver/Src/stm32g0xx_hal.c ****     }
 196              		.loc 1 263 14 view .LVU38
 197 0046 0120     		movs	r0, #1
 198 0048 E1E7     		b	.L7
 199              	.L14:
 200 004a C046     		.align	2
 201              	.L13:
 202 004c 00000000 		.word	.LANCHOR0
 203 0050 00000000 		.word	SystemCoreClock
 204 0054 00000000 		.word	.LANCHOR1
 205              		.cfi_endproc
 206              	.LFE331:
 208              		.section	.text.HAL_Init,"ax",%progbits
 209              		.align	1
 210              		.global	HAL_Init
 211              		.syntax unified
 212              		.code	16
 213              		.thumb_func
 215              	HAL_Init:
 216              	.LFB327:
 144:Drivers/STM32G0xx_HAL_Driver/Src/stm32g0xx_hal.c ****   HAL_StatusTypeDef  status = HAL_OK;
 217              		.loc 1 144 1 is_stmt 1 view -0
 218              		.cfi_startproc
 219              		@ args = 0, pretend = 0, frame = 0
 220              		@ frame_needed = 0, uses_anonymous_args = 0
 221 0000 10B5     		push	{r4, lr}
 222              	.LCFI2:
 223              		.cfi_def_cfa_offset 8
ARM GAS  /tmp/cc0Fkdnx.s 			page 10


 224              		.cfi_offset 4, -8
 225              		.cfi_offset 14, -4
 145:Drivers/STM32G0xx_HAL_Driver/Src/stm32g0xx_hal.c **** 
 226              		.loc 1 145 3 view .LVU40
 227              	.LVL11:
 157:Drivers/STM32G0xx_HAL_Driver/Src/stm32g0xx_hal.c **** #endif /* PREFETCH_ENABLE */
 228              		.loc 1 157 3 view .LVU41
 229 0002 084A     		ldr	r2, .L19
 230 0004 1168     		ldr	r1, [r2]
 231 0006 8023     		movs	r3, #128
 232 0008 5B00     		lsls	r3, r3, #1
 233 000a 0B43     		orrs	r3, r1
 234 000c 1360     		str	r3, [r2]
 161:Drivers/STM32G0xx_HAL_Driver/Src/stm32g0xx_hal.c ****   {
 235              		.loc 1 161 3 view .LVU42
 161:Drivers/STM32G0xx_HAL_Driver/Src/stm32g0xx_hal.c ****   {
 236              		.loc 1 161 7 is_stmt 0 view .LVU43
 237 000e 0320     		movs	r0, #3
 238 0010 FFF7FEFF 		bl	HAL_InitTick
 239              	.LVL12:
 240 0014 041E     		subs	r4, r0, #0
 161:Drivers/STM32G0xx_HAL_Driver/Src/stm32g0xx_hal.c ****   {
 241              		.loc 1 161 6 view .LVU44
 242 0016 02D0     		beq	.L18
 163:Drivers/STM32G0xx_HAL_Driver/Src/stm32g0xx_hal.c ****   }
 243              		.loc 1 163 12 view .LVU45
 244 0018 0124     		movs	r4, #1
 245              	.L16:
 246              	.LVL13:
 172:Drivers/STM32G0xx_HAL_Driver/Src/stm32g0xx_hal.c **** }
 247              		.loc 1 172 3 is_stmt 1 view .LVU46
 173:Drivers/STM32G0xx_HAL_Driver/Src/stm32g0xx_hal.c **** 
 248              		.loc 1 173 1 is_stmt 0 view .LVU47
 249 001a 2000     		movs	r0, r4
 250              		@ sp needed
 251              	.LVL14:
 173:Drivers/STM32G0xx_HAL_Driver/Src/stm32g0xx_hal.c **** 
 252              		.loc 1 173 1 view .LVU48
 253 001c 10BD     		pop	{r4, pc}
 254              	.LVL15:
 255              	.L18:
 168:Drivers/STM32G0xx_HAL_Driver/Src/stm32g0xx_hal.c ****   }
 256              		.loc 1 168 3 is_stmt 1 view .LVU49
 257 001e FFF7FEFF 		bl	HAL_MspInit
 258              	.LVL16:
 259 0022 FAE7     		b	.L16
 260              	.L20:
 261              		.align	2
 262              	.L19:
 263 0024 00200240 		.word	1073881088
 264              		.cfi_endproc
 265              	.LFE327:
 267              		.section	.text.HAL_IncTick,"ax",%progbits
 268              		.align	1
 269              		.weak	HAL_IncTick
 270              		.syntax unified
 271              		.code	16
ARM GAS  /tmp/cc0Fkdnx.s 			page 11


 272              		.thumb_func
 274              	HAL_IncTick:
 275              	.LFB332:
 274:Drivers/STM32G0xx_HAL_Driver/Src/stm32g0xx_hal.c **** 
 275:Drivers/STM32G0xx_HAL_Driver/Src/stm32g0xx_hal.c **** /**
 276:Drivers/STM32G0xx_HAL_Driver/Src/stm32g0xx_hal.c ****   * @}
 277:Drivers/STM32G0xx_HAL_Driver/Src/stm32g0xx_hal.c ****   */
 278:Drivers/STM32G0xx_HAL_Driver/Src/stm32g0xx_hal.c **** 
 279:Drivers/STM32G0xx_HAL_Driver/Src/stm32g0xx_hal.c **** /** @addtogroup HAL_Exported_Functions_Group2
 280:Drivers/STM32G0xx_HAL_Driver/Src/stm32g0xx_hal.c ****  *  @brief    HAL Control functions
 281:Drivers/STM32G0xx_HAL_Driver/Src/stm32g0xx_hal.c ****  *
 282:Drivers/STM32G0xx_HAL_Driver/Src/stm32g0xx_hal.c **** @verbatim
 283:Drivers/STM32G0xx_HAL_Driver/Src/stm32g0xx_hal.c ****  ===============================================================================
 284:Drivers/STM32G0xx_HAL_Driver/Src/stm32g0xx_hal.c ****                       ##### HAL Control functions #####
 285:Drivers/STM32G0xx_HAL_Driver/Src/stm32g0xx_hal.c ****  ===============================================================================
 286:Drivers/STM32G0xx_HAL_Driver/Src/stm32g0xx_hal.c ****     [..]  This section provides functions allowing to:
 287:Drivers/STM32G0xx_HAL_Driver/Src/stm32g0xx_hal.c ****       (+) Provide a tick value in millisecond
 288:Drivers/STM32G0xx_HAL_Driver/Src/stm32g0xx_hal.c ****       (+) Provide a blocking delay in millisecond
 289:Drivers/STM32G0xx_HAL_Driver/Src/stm32g0xx_hal.c ****       (+) Suspend the time base source interrupt
 290:Drivers/STM32G0xx_HAL_Driver/Src/stm32g0xx_hal.c ****       (+) Resume the time base source interrupt
 291:Drivers/STM32G0xx_HAL_Driver/Src/stm32g0xx_hal.c ****       (+) Get the HAL API driver version
 292:Drivers/STM32G0xx_HAL_Driver/Src/stm32g0xx_hal.c ****       (+) Get the device identifier
 293:Drivers/STM32G0xx_HAL_Driver/Src/stm32g0xx_hal.c ****       (+) Get the device revision identifier
 294:Drivers/STM32G0xx_HAL_Driver/Src/stm32g0xx_hal.c **** 
 295:Drivers/STM32G0xx_HAL_Driver/Src/stm32g0xx_hal.c **** @endverbatim
 296:Drivers/STM32G0xx_HAL_Driver/Src/stm32g0xx_hal.c ****   * @{
 297:Drivers/STM32G0xx_HAL_Driver/Src/stm32g0xx_hal.c ****   */
 298:Drivers/STM32G0xx_HAL_Driver/Src/stm32g0xx_hal.c **** 
 299:Drivers/STM32G0xx_HAL_Driver/Src/stm32g0xx_hal.c **** /**
 300:Drivers/STM32G0xx_HAL_Driver/Src/stm32g0xx_hal.c ****   * @brief This function is called to increment  a global variable "uwTick"
 301:Drivers/STM32G0xx_HAL_Driver/Src/stm32g0xx_hal.c ****   *        used as application time base.
 302:Drivers/STM32G0xx_HAL_Driver/Src/stm32g0xx_hal.c ****   * @note In the default implementation, this variable is incremented each 1ms
 303:Drivers/STM32G0xx_HAL_Driver/Src/stm32g0xx_hal.c ****   *       in SysTick ISR.
 304:Drivers/STM32G0xx_HAL_Driver/Src/stm32g0xx_hal.c ****   * @note This function is declared as __weak to be overwritten in case of other
 305:Drivers/STM32G0xx_HAL_Driver/Src/stm32g0xx_hal.c ****   *      implementations in user file.
 306:Drivers/STM32G0xx_HAL_Driver/Src/stm32g0xx_hal.c ****   * @retval None
 307:Drivers/STM32G0xx_HAL_Driver/Src/stm32g0xx_hal.c ****   */
 308:Drivers/STM32G0xx_HAL_Driver/Src/stm32g0xx_hal.c **** __weak void HAL_IncTick(void)
 309:Drivers/STM32G0xx_HAL_Driver/Src/stm32g0xx_hal.c **** {
 276              		.loc 1 309 1 view -0
 277              		.cfi_startproc
 278              		@ args = 0, pretend = 0, frame = 0
 279              		@ frame_needed = 0, uses_anonymous_args = 0
 280              		@ link register save eliminated.
 310:Drivers/STM32G0xx_HAL_Driver/Src/stm32g0xx_hal.c ****   uwTick += (uint32_t)uwTickFreq;
 281              		.loc 1 310 3 view .LVU51
 282              		.loc 1 310 13 is_stmt 0 view .LVU52
 283 0000 034B     		ldr	r3, .L22
 284 0002 1B78     		ldrb	r3, [r3]
 285              		.loc 1 310 10 view .LVU53
 286 0004 034A     		ldr	r2, .L22+4
 287 0006 1168     		ldr	r1, [r2]
 288 0008 5B18     		adds	r3, r3, r1
 289 000a 1360     		str	r3, [r2]
 311:Drivers/STM32G0xx_HAL_Driver/Src/stm32g0xx_hal.c **** }
 290              		.loc 1 311 1 view .LVU54
 291              		@ sp needed
ARM GAS  /tmp/cc0Fkdnx.s 			page 12


 292 000c 7047     		bx	lr
 293              	.L23:
 294 000e C046     		.align	2
 295              	.L22:
 296 0010 00000000 		.word	.LANCHOR0
 297 0014 00000000 		.word	.LANCHOR2
 298              		.cfi_endproc
 299              	.LFE332:
 301              		.section	.text.HAL_GetTick,"ax",%progbits
 302              		.align	1
 303              		.weak	HAL_GetTick
 304              		.syntax unified
 305              		.code	16
 306              		.thumb_func
 308              	HAL_GetTick:
 309              	.LFB333:
 312:Drivers/STM32G0xx_HAL_Driver/Src/stm32g0xx_hal.c **** 
 313:Drivers/STM32G0xx_HAL_Driver/Src/stm32g0xx_hal.c **** /**
 314:Drivers/STM32G0xx_HAL_Driver/Src/stm32g0xx_hal.c ****   * @brief Provides a tick value in millisecond.
 315:Drivers/STM32G0xx_HAL_Driver/Src/stm32g0xx_hal.c ****   * @note This function is declared as __weak to be overwritten in case of other
 316:Drivers/STM32G0xx_HAL_Driver/Src/stm32g0xx_hal.c ****   *       implementations in user file.
 317:Drivers/STM32G0xx_HAL_Driver/Src/stm32g0xx_hal.c ****   * @retval tick value
 318:Drivers/STM32G0xx_HAL_Driver/Src/stm32g0xx_hal.c ****   */
 319:Drivers/STM32G0xx_HAL_Driver/Src/stm32g0xx_hal.c **** __weak uint32_t HAL_GetTick(void)
 320:Drivers/STM32G0xx_HAL_Driver/Src/stm32g0xx_hal.c **** {
 310              		.loc 1 320 1 is_stmt 1 view -0
 311              		.cfi_startproc
 312              		@ args = 0, pretend = 0, frame = 0
 313              		@ frame_needed = 0, uses_anonymous_args = 0
 314              		@ link register save eliminated.
 321:Drivers/STM32G0xx_HAL_Driver/Src/stm32g0xx_hal.c ****   return uwTick;
 315              		.loc 1 321 3 view .LVU56
 316              		.loc 1 321 10 is_stmt 0 view .LVU57
 317 0000 014B     		ldr	r3, .L25
 318 0002 1868     		ldr	r0, [r3]
 322:Drivers/STM32G0xx_HAL_Driver/Src/stm32g0xx_hal.c **** }
 319              		.loc 1 322 1 view .LVU58
 320              		@ sp needed
 321 0004 7047     		bx	lr
 322              	.L26:
 323 0006 C046     		.align	2
 324              	.L25:
 325 0008 00000000 		.word	.LANCHOR2
 326              		.cfi_endproc
 327              	.LFE333:
 329              		.section	.text.HAL_GetTickPrio,"ax",%progbits
 330              		.align	1
 331              		.global	HAL_GetTickPrio
 332              		.syntax unified
 333              		.code	16
 334              		.thumb_func
 336              	HAL_GetTickPrio:
 337              	.LFB334:
 323:Drivers/STM32G0xx_HAL_Driver/Src/stm32g0xx_hal.c **** 
 324:Drivers/STM32G0xx_HAL_Driver/Src/stm32g0xx_hal.c **** /**
 325:Drivers/STM32G0xx_HAL_Driver/Src/stm32g0xx_hal.c ****   * @brief This function returns a tick priority.
 326:Drivers/STM32G0xx_HAL_Driver/Src/stm32g0xx_hal.c ****   * @retval tick priority
ARM GAS  /tmp/cc0Fkdnx.s 			page 13


 327:Drivers/STM32G0xx_HAL_Driver/Src/stm32g0xx_hal.c ****   */
 328:Drivers/STM32G0xx_HAL_Driver/Src/stm32g0xx_hal.c **** uint32_t HAL_GetTickPrio(void)
 329:Drivers/STM32G0xx_HAL_Driver/Src/stm32g0xx_hal.c **** {
 338              		.loc 1 329 1 is_stmt 1 view -0
 339              		.cfi_startproc
 340              		@ args = 0, pretend = 0, frame = 0
 341              		@ frame_needed = 0, uses_anonymous_args = 0
 342              		@ link register save eliminated.
 330:Drivers/STM32G0xx_HAL_Driver/Src/stm32g0xx_hal.c ****   return uwTickPrio;
 343              		.loc 1 330 3 view .LVU60
 344              		.loc 1 330 10 is_stmt 0 view .LVU61
 345 0000 014B     		ldr	r3, .L28
 346 0002 1868     		ldr	r0, [r3]
 331:Drivers/STM32G0xx_HAL_Driver/Src/stm32g0xx_hal.c **** }
 347              		.loc 1 331 1 view .LVU62
 348              		@ sp needed
 349 0004 7047     		bx	lr
 350              	.L29:
 351 0006 C046     		.align	2
 352              	.L28:
 353 0008 00000000 		.word	.LANCHOR1
 354              		.cfi_endproc
 355              	.LFE334:
 357              		.section	.rodata.HAL_SetTickFreq.str1.4,"aMS",%progbits,1
 358              		.align	2
 359              	.LC7:
 360 0000 44726976 		.ascii	"Drivers/STM32G0xx_HAL_Driver/Src/stm32g0xx_hal.c\000"
 360      6572732F 
 360      53544D33 
 360      32473078 
 360      785F4841 
 361              		.section	.text.HAL_SetTickFreq,"ax",%progbits
 362              		.align	1
 363              		.global	HAL_SetTickFreq
 364              		.syntax unified
 365              		.code	16
 366              		.thumb_func
 368              	HAL_SetTickFreq:
 369              	.LVL17:
 370              	.LFB335:
 332:Drivers/STM32G0xx_HAL_Driver/Src/stm32g0xx_hal.c **** 
 333:Drivers/STM32G0xx_HAL_Driver/Src/stm32g0xx_hal.c **** /**
 334:Drivers/STM32G0xx_HAL_Driver/Src/stm32g0xx_hal.c ****   * @brief Set new tick Freq.
 335:Drivers/STM32G0xx_HAL_Driver/Src/stm32g0xx_hal.c ****   * @retval status
 336:Drivers/STM32G0xx_HAL_Driver/Src/stm32g0xx_hal.c ****   */
 337:Drivers/STM32G0xx_HAL_Driver/Src/stm32g0xx_hal.c **** HAL_StatusTypeDef HAL_SetTickFreq(HAL_TickFreqTypeDef Freq)
 338:Drivers/STM32G0xx_HAL_Driver/Src/stm32g0xx_hal.c **** {
 371              		.loc 1 338 1 is_stmt 1 view -0
 372              		.cfi_startproc
 373              		@ args = 0, pretend = 0, frame = 0
 374              		@ frame_needed = 0, uses_anonymous_args = 0
 375              		.loc 1 338 1 is_stmt 0 view .LVU64
 376 0000 70B5     		push	{r4, r5, r6, lr}
 377              	.LCFI3:
 378              		.cfi_def_cfa_offset 16
 379              		.cfi_offset 4, -16
 380              		.cfi_offset 5, -12
ARM GAS  /tmp/cc0Fkdnx.s 			page 14


 381              		.cfi_offset 6, -8
 382              		.cfi_offset 14, -4
 383 0002 0400     		movs	r4, r0
 339:Drivers/STM32G0xx_HAL_Driver/Src/stm32g0xx_hal.c ****   HAL_StatusTypeDef status  = HAL_OK;
 384              		.loc 1 339 3 is_stmt 1 view .LVU65
 385              	.LVL18:
 340:Drivers/STM32G0xx_HAL_Driver/Src/stm32g0xx_hal.c ****   HAL_TickFreqTypeDef prevTickFreq;
 386              		.loc 1 340 3 view .LVU66
 341:Drivers/STM32G0xx_HAL_Driver/Src/stm32g0xx_hal.c ****   assert_param(IS_TICKFREQ(Freq));
 387              		.loc 1 341 3 view .LVU67
 388 0004 6428     		cmp	r0, #100
 389 0006 03D0     		beq	.L31
 390              		.loc 1 341 3 is_stmt 0 discriminator 1 view .LVU68
 391 0008 0A28     		cmp	r0, #10
 392 000a 01D0     		beq	.L31
 393              		.loc 1 341 3 discriminator 2 view .LVU69
 394 000c 0128     		cmp	r0, #1
 395 000e 05D1     		bne	.L34
 396              	.LVL19:
 397              	.L31:
 342:Drivers/STM32G0xx_HAL_Driver/Src/stm32g0xx_hal.c **** 
 343:Drivers/STM32G0xx_HAL_Driver/Src/stm32g0xx_hal.c ****   if (uwTickFreq != Freq)
 398              		.loc 1 343 3 is_stmt 1 view .LVU70
 399              		.loc 1 343 18 is_stmt 0 view .LVU71
 400 0010 0A4B     		ldr	r3, .L36
 401 0012 1D78     		ldrb	r5, [r3]
 402              		.loc 1 343 6 view .LVU72
 403 0014 A542     		cmp	r5, r4
 404 0016 07D1     		bne	.L35
 339:Drivers/STM32G0xx_HAL_Driver/Src/stm32g0xx_hal.c ****   HAL_TickFreqTypeDef prevTickFreq;
 405              		.loc 1 339 21 view .LVU73
 406 0018 0020     		movs	r0, #0
 407              	.LVL20:
 408              	.L32:
 344:Drivers/STM32G0xx_HAL_Driver/Src/stm32g0xx_hal.c ****   {
 345:Drivers/STM32G0xx_HAL_Driver/Src/stm32g0xx_hal.c ****     /* Back up uwTickFreq frequency */
 346:Drivers/STM32G0xx_HAL_Driver/Src/stm32g0xx_hal.c ****     prevTickFreq = uwTickFreq;
 347:Drivers/STM32G0xx_HAL_Driver/Src/stm32g0xx_hal.c **** 
 348:Drivers/STM32G0xx_HAL_Driver/Src/stm32g0xx_hal.c ****     /* Update uwTickFreq global variable used by HAL_InitTick() */
 349:Drivers/STM32G0xx_HAL_Driver/Src/stm32g0xx_hal.c ****     uwTickFreq = Freq;
 350:Drivers/STM32G0xx_HAL_Driver/Src/stm32g0xx_hal.c **** 
 351:Drivers/STM32G0xx_HAL_Driver/Src/stm32g0xx_hal.c ****     /* Apply the new tick Freq  */
 352:Drivers/STM32G0xx_HAL_Driver/Src/stm32g0xx_hal.c ****     status = HAL_InitTick(uwTickPrio);
 353:Drivers/STM32G0xx_HAL_Driver/Src/stm32g0xx_hal.c ****     if (status != HAL_OK)
 354:Drivers/STM32G0xx_HAL_Driver/Src/stm32g0xx_hal.c ****     {
 355:Drivers/STM32G0xx_HAL_Driver/Src/stm32g0xx_hal.c ****       /* Restore previous tick frequency */
 356:Drivers/STM32G0xx_HAL_Driver/Src/stm32g0xx_hal.c ****       uwTickFreq = prevTickFreq;
 357:Drivers/STM32G0xx_HAL_Driver/Src/stm32g0xx_hal.c ****     }
 358:Drivers/STM32G0xx_HAL_Driver/Src/stm32g0xx_hal.c ****   }
 359:Drivers/STM32G0xx_HAL_Driver/Src/stm32g0xx_hal.c **** 
 360:Drivers/STM32G0xx_HAL_Driver/Src/stm32g0xx_hal.c ****   return status;
 409              		.loc 1 360 3 is_stmt 1 view .LVU74
 361:Drivers/STM32G0xx_HAL_Driver/Src/stm32g0xx_hal.c **** }
 410              		.loc 1 361 1 is_stmt 0 view .LVU75
 411              		@ sp needed
 412 001a 70BD     		pop	{r4, r5, r6, pc}
 413              	.LVL21:
ARM GAS  /tmp/cc0Fkdnx.s 			page 15


 414              	.L34:
 341:Drivers/STM32G0xx_HAL_Driver/Src/stm32g0xx_hal.c **** 
 415              		.loc 1 341 3 discriminator 3 view .LVU76
 416 001c 5621     		movs	r1, #86
 417 001e FF31     		adds	r1, r1, #255
 418 0020 0748     		ldr	r0, .L36+4
 419              	.LVL22:
 341:Drivers/STM32G0xx_HAL_Driver/Src/stm32g0xx_hal.c **** 
 420              		.loc 1 341 3 discriminator 3 view .LVU77
 421 0022 FFF7FEFF 		bl	assert_failed
 422              	.LVL23:
 423 0026 F3E7     		b	.L31
 424              	.L35:
 346:Drivers/STM32G0xx_HAL_Driver/Src/stm32g0xx_hal.c **** 
 425              		.loc 1 346 5 is_stmt 1 view .LVU78
 426              	.LVL24:
 349:Drivers/STM32G0xx_HAL_Driver/Src/stm32g0xx_hal.c **** 
 427              		.loc 1 349 5 view .LVU79
 349:Drivers/STM32G0xx_HAL_Driver/Src/stm32g0xx_hal.c **** 
 428              		.loc 1 349 16 is_stmt 0 view .LVU80
 429 0028 1C70     		strb	r4, [r3]
 352:Drivers/STM32G0xx_HAL_Driver/Src/stm32g0xx_hal.c ****     if (status != HAL_OK)
 430              		.loc 1 352 5 is_stmt 1 view .LVU81
 352:Drivers/STM32G0xx_HAL_Driver/Src/stm32g0xx_hal.c ****     if (status != HAL_OK)
 431              		.loc 1 352 14 is_stmt 0 view .LVU82
 432 002a 064B     		ldr	r3, .L36+8
 433 002c 1868     		ldr	r0, [r3]
 434 002e FFF7FEFF 		bl	HAL_InitTick
 435              	.LVL25:
 353:Drivers/STM32G0xx_HAL_Driver/Src/stm32g0xx_hal.c ****     {
 436              		.loc 1 353 5 is_stmt 1 view .LVU83
 353:Drivers/STM32G0xx_HAL_Driver/Src/stm32g0xx_hal.c ****     {
 437              		.loc 1 353 8 is_stmt 0 view .LVU84
 438 0032 0028     		cmp	r0, #0
 439 0034 F1D0     		beq	.L32
 356:Drivers/STM32G0xx_HAL_Driver/Src/stm32g0xx_hal.c ****     }
 440              		.loc 1 356 7 is_stmt 1 view .LVU85
 356:Drivers/STM32G0xx_HAL_Driver/Src/stm32g0xx_hal.c ****     }
 441              		.loc 1 356 18 is_stmt 0 view .LVU86
 442 0036 014B     		ldr	r3, .L36
 443 0038 1D70     		strb	r5, [r3]
 444 003a EEE7     		b	.L32
 445              	.L37:
 446              		.align	2
 447              	.L36:
 448 003c 00000000 		.word	.LANCHOR0
 449 0040 00000000 		.word	.LC7
 450 0044 00000000 		.word	.LANCHOR1
 451              		.cfi_endproc
 452              	.LFE335:
 454              		.section	.text.HAL_GetTickFreq,"ax",%progbits
 455              		.align	1
 456              		.global	HAL_GetTickFreq
 457              		.syntax unified
 458              		.code	16
 459              		.thumb_func
 461              	HAL_GetTickFreq:
ARM GAS  /tmp/cc0Fkdnx.s 			page 16


 462              	.LFB336:
 362:Drivers/STM32G0xx_HAL_Driver/Src/stm32g0xx_hal.c **** 
 363:Drivers/STM32G0xx_HAL_Driver/Src/stm32g0xx_hal.c **** /**
 364:Drivers/STM32G0xx_HAL_Driver/Src/stm32g0xx_hal.c ****   * @brief return tick frequency.
 365:Drivers/STM32G0xx_HAL_Driver/Src/stm32g0xx_hal.c ****   * @retval Tick frequency.
 366:Drivers/STM32G0xx_HAL_Driver/Src/stm32g0xx_hal.c ****   *         Value of @ref HAL_TickFreqTypeDef.
 367:Drivers/STM32G0xx_HAL_Driver/Src/stm32g0xx_hal.c ****   */
 368:Drivers/STM32G0xx_HAL_Driver/Src/stm32g0xx_hal.c **** HAL_TickFreqTypeDef HAL_GetTickFreq(void)
 369:Drivers/STM32G0xx_HAL_Driver/Src/stm32g0xx_hal.c **** {
 463              		.loc 1 369 1 is_stmt 1 view -0
 464              		.cfi_startproc
 465              		@ args = 0, pretend = 0, frame = 0
 466              		@ frame_needed = 0, uses_anonymous_args = 0
 467              		@ link register save eliminated.
 370:Drivers/STM32G0xx_HAL_Driver/Src/stm32g0xx_hal.c ****   return uwTickFreq;
 468              		.loc 1 370 3 view .LVU88
 469              		.loc 1 370 10 is_stmt 0 view .LVU89
 470 0000 014B     		ldr	r3, .L39
 471 0002 1878     		ldrb	r0, [r3]
 371:Drivers/STM32G0xx_HAL_Driver/Src/stm32g0xx_hal.c **** }
 472              		.loc 1 371 1 view .LVU90
 473              		@ sp needed
 474 0004 7047     		bx	lr
 475              	.L40:
 476 0006 C046     		.align	2
 477              	.L39:
 478 0008 00000000 		.word	.LANCHOR0
 479              		.cfi_endproc
 480              	.LFE336:
 482              		.section	.text.HAL_Delay,"ax",%progbits
 483              		.align	1
 484              		.weak	HAL_Delay
 485              		.syntax unified
 486              		.code	16
 487              		.thumb_func
 489              	HAL_Delay:
 490              	.LVL26:
 491              	.LFB337:
 372:Drivers/STM32G0xx_HAL_Driver/Src/stm32g0xx_hal.c **** 
 373:Drivers/STM32G0xx_HAL_Driver/Src/stm32g0xx_hal.c **** /**
 374:Drivers/STM32G0xx_HAL_Driver/Src/stm32g0xx_hal.c ****   * @brief This function provides minimum delay (in milliseconds) based
 375:Drivers/STM32G0xx_HAL_Driver/Src/stm32g0xx_hal.c ****   *        on variable incremented.
 376:Drivers/STM32G0xx_HAL_Driver/Src/stm32g0xx_hal.c ****   * @note In the default implementation , SysTick timer is the source of time base.
 377:Drivers/STM32G0xx_HAL_Driver/Src/stm32g0xx_hal.c ****   *       It is used to generate interrupts at regular time intervals where uwTick
 378:Drivers/STM32G0xx_HAL_Driver/Src/stm32g0xx_hal.c ****   *       is incremented.
 379:Drivers/STM32G0xx_HAL_Driver/Src/stm32g0xx_hal.c ****   * @note This function is declared as __weak to be overwritten in case of other
 380:Drivers/STM32G0xx_HAL_Driver/Src/stm32g0xx_hal.c ****   *       implementations in user file.
 381:Drivers/STM32G0xx_HAL_Driver/Src/stm32g0xx_hal.c ****   * @param Delay  specifies the delay time length, in milliseconds.
 382:Drivers/STM32G0xx_HAL_Driver/Src/stm32g0xx_hal.c ****   * @retval None
 383:Drivers/STM32G0xx_HAL_Driver/Src/stm32g0xx_hal.c ****   */
 384:Drivers/STM32G0xx_HAL_Driver/Src/stm32g0xx_hal.c **** __weak void HAL_Delay(uint32_t Delay)
 385:Drivers/STM32G0xx_HAL_Driver/Src/stm32g0xx_hal.c **** {
 492              		.loc 1 385 1 is_stmt 1 view -0
 493              		.cfi_startproc
 494              		@ args = 0, pretend = 0, frame = 0
 495              		@ frame_needed = 0, uses_anonymous_args = 0
 496              		.loc 1 385 1 is_stmt 0 view .LVU92
ARM GAS  /tmp/cc0Fkdnx.s 			page 17


 497 0000 70B5     		push	{r4, r5, r6, lr}
 498              	.LCFI4:
 499              		.cfi_def_cfa_offset 16
 500              		.cfi_offset 4, -16
 501              		.cfi_offset 5, -12
 502              		.cfi_offset 6, -8
 503              		.cfi_offset 14, -4
 504 0002 0400     		movs	r4, r0
 386:Drivers/STM32G0xx_HAL_Driver/Src/stm32g0xx_hal.c ****   uint32_t tickstart = HAL_GetTick();
 505              		.loc 1 386 3 is_stmt 1 view .LVU93
 506              		.loc 1 386 24 is_stmt 0 view .LVU94
 507 0004 FFF7FEFF 		bl	HAL_GetTick
 508              	.LVL27:
 509              		.loc 1 386 24 view .LVU95
 510 0008 0500     		movs	r5, r0
 511              	.LVL28:
 387:Drivers/STM32G0xx_HAL_Driver/Src/stm32g0xx_hal.c ****   uint32_t wait = Delay;
 512              		.loc 1 387 3 is_stmt 1 view .LVU96
 388:Drivers/STM32G0xx_HAL_Driver/Src/stm32g0xx_hal.c **** 
 389:Drivers/STM32G0xx_HAL_Driver/Src/stm32g0xx_hal.c ****   /* Add a freq to guarantee minimum wait */
 390:Drivers/STM32G0xx_HAL_Driver/Src/stm32g0xx_hal.c ****   if (wait < HAL_MAX_DELAY)
 513              		.loc 1 390 3 view .LVU97
 514              		.loc 1 390 6 is_stmt 0 view .LVU98
 515 000a 631C     		adds	r3, r4, #1
 516 000c 02D0     		beq	.L43
 391:Drivers/STM32G0xx_HAL_Driver/Src/stm32g0xx_hal.c ****   {
 392:Drivers/STM32G0xx_HAL_Driver/Src/stm32g0xx_hal.c ****     wait += (uint32_t)(uwTickFreq);
 517              		.loc 1 392 5 is_stmt 1 view .LVU99
 518              		.loc 1 392 13 is_stmt 0 view .LVU100
 519 000e 044B     		ldr	r3, .L44
 520 0010 1B78     		ldrb	r3, [r3]
 521              		.loc 1 392 10 view .LVU101
 522 0012 E418     		adds	r4, r4, r3
 523              	.LVL29:
 524              	.L43:
 393:Drivers/STM32G0xx_HAL_Driver/Src/stm32g0xx_hal.c ****   }
 394:Drivers/STM32G0xx_HAL_Driver/Src/stm32g0xx_hal.c **** 
 395:Drivers/STM32G0xx_HAL_Driver/Src/stm32g0xx_hal.c ****   while ((HAL_GetTick() - tickstart) < wait)
 396:Drivers/STM32G0xx_HAL_Driver/Src/stm32g0xx_hal.c ****   {
 397:Drivers/STM32G0xx_HAL_Driver/Src/stm32g0xx_hal.c ****   }
 525              		.loc 1 397 3 is_stmt 1 discriminator 1 view .LVU102
 395:Drivers/STM32G0xx_HAL_Driver/Src/stm32g0xx_hal.c ****   {
 526              		.loc 1 395 9 discriminator 1 view .LVU103
 395:Drivers/STM32G0xx_HAL_Driver/Src/stm32g0xx_hal.c ****   {
 527              		.loc 1 395 11 is_stmt 0 discriminator 1 view .LVU104
 528 0014 FFF7FEFF 		bl	HAL_GetTick
 529              	.LVL30:
 395:Drivers/STM32G0xx_HAL_Driver/Src/stm32g0xx_hal.c ****   {
 530              		.loc 1 395 25 discriminator 1 view .LVU105
 531 0018 401B     		subs	r0, r0, r5
 395:Drivers/STM32G0xx_HAL_Driver/Src/stm32g0xx_hal.c ****   {
 532              		.loc 1 395 9 discriminator 1 view .LVU106
 533 001a A042     		cmp	r0, r4
 534 001c FAD3     		bcc	.L43
 398:Drivers/STM32G0xx_HAL_Driver/Src/stm32g0xx_hal.c **** }
 535              		.loc 1 398 1 view .LVU107
 536              		@ sp needed
ARM GAS  /tmp/cc0Fkdnx.s 			page 18


 537              	.LVL31:
 538              	.LVL32:
 539              		.loc 1 398 1 view .LVU108
 540 001e 70BD     		pop	{r4, r5, r6, pc}
 541              	.L45:
 542              		.align	2
 543              	.L44:
 544 0020 00000000 		.word	.LANCHOR0
 545              		.cfi_endproc
 546              	.LFE337:
 548              		.section	.text.HAL_SuspendTick,"ax",%progbits
 549              		.align	1
 550              		.weak	HAL_SuspendTick
 551              		.syntax unified
 552              		.code	16
 553              		.thumb_func
 555              	HAL_SuspendTick:
 556              	.LFB338:
 399:Drivers/STM32G0xx_HAL_Driver/Src/stm32g0xx_hal.c **** 
 400:Drivers/STM32G0xx_HAL_Driver/Src/stm32g0xx_hal.c **** /**
 401:Drivers/STM32G0xx_HAL_Driver/Src/stm32g0xx_hal.c ****   * @brief Suspend Tick increment.
 402:Drivers/STM32G0xx_HAL_Driver/Src/stm32g0xx_hal.c ****   * @note In the default implementation , SysTick timer is the source of time base. It is
 403:Drivers/STM32G0xx_HAL_Driver/Src/stm32g0xx_hal.c ****   *       used to generate interrupts at regular time intervals. Once HAL_SuspendTick()
 404:Drivers/STM32G0xx_HAL_Driver/Src/stm32g0xx_hal.c ****   *       is called, the SysTick interrupt will be disabled and so Tick increment
 405:Drivers/STM32G0xx_HAL_Driver/Src/stm32g0xx_hal.c ****   *       is suspended.
 406:Drivers/STM32G0xx_HAL_Driver/Src/stm32g0xx_hal.c ****   * @note This function is declared as __weak to be overwritten in case of other
 407:Drivers/STM32G0xx_HAL_Driver/Src/stm32g0xx_hal.c ****   *       implementations in user file.
 408:Drivers/STM32G0xx_HAL_Driver/Src/stm32g0xx_hal.c ****   * @retval None
 409:Drivers/STM32G0xx_HAL_Driver/Src/stm32g0xx_hal.c ****   */
 410:Drivers/STM32G0xx_HAL_Driver/Src/stm32g0xx_hal.c **** __weak void HAL_SuspendTick(void)
 411:Drivers/STM32G0xx_HAL_Driver/Src/stm32g0xx_hal.c **** {
 557              		.loc 1 411 1 is_stmt 1 view -0
 558              		.cfi_startproc
 559              		@ args = 0, pretend = 0, frame = 0
 560              		@ frame_needed = 0, uses_anonymous_args = 0
 561              		@ link register save eliminated.
 412:Drivers/STM32G0xx_HAL_Driver/Src/stm32g0xx_hal.c ****   /* Disable SysTick Interrupt */
 413:Drivers/STM32G0xx_HAL_Driver/Src/stm32g0xx_hal.c ****   CLEAR_BIT(SysTick->CTRL,SysTick_CTRL_TICKINT_Msk);
 562              		.loc 1 413 3 view .LVU110
 563 0000 024A     		ldr	r2, .L47
 564 0002 1368     		ldr	r3, [r2]
 565 0004 0221     		movs	r1, #2
 566 0006 8B43     		bics	r3, r1
 567 0008 1360     		str	r3, [r2]
 414:Drivers/STM32G0xx_HAL_Driver/Src/stm32g0xx_hal.c **** }
 568              		.loc 1 414 1 is_stmt 0 view .LVU111
 569              		@ sp needed
 570 000a 7047     		bx	lr
 571              	.L48:
 572              		.align	2
 573              	.L47:
 574 000c 10E000E0 		.word	-536813552
 575              		.cfi_endproc
 576              	.LFE338:
 578              		.section	.text.HAL_ResumeTick,"ax",%progbits
 579              		.align	1
 580              		.weak	HAL_ResumeTick
ARM GAS  /tmp/cc0Fkdnx.s 			page 19


 581              		.syntax unified
 582              		.code	16
 583              		.thumb_func
 585              	HAL_ResumeTick:
 586              	.LFB339:
 415:Drivers/STM32G0xx_HAL_Driver/Src/stm32g0xx_hal.c **** 
 416:Drivers/STM32G0xx_HAL_Driver/Src/stm32g0xx_hal.c **** /**
 417:Drivers/STM32G0xx_HAL_Driver/Src/stm32g0xx_hal.c ****   * @brief Resume Tick increment.
 418:Drivers/STM32G0xx_HAL_Driver/Src/stm32g0xx_hal.c ****   * @note In the default implementation , SysTick timer is the source of time base. It is
 419:Drivers/STM32G0xx_HAL_Driver/Src/stm32g0xx_hal.c ****   *       used to generate interrupts at regular time intervals. Once HAL_ResumeTick()
 420:Drivers/STM32G0xx_HAL_Driver/Src/stm32g0xx_hal.c ****   *       is called, the SysTick interrupt will be enabled and so Tick increment
 421:Drivers/STM32G0xx_HAL_Driver/Src/stm32g0xx_hal.c ****   *       is resumed.
 422:Drivers/STM32G0xx_HAL_Driver/Src/stm32g0xx_hal.c ****   * @note This function is declared as __weak to be overwritten in case of other
 423:Drivers/STM32G0xx_HAL_Driver/Src/stm32g0xx_hal.c ****   *       implementations in user file.
 424:Drivers/STM32G0xx_HAL_Driver/Src/stm32g0xx_hal.c ****   * @retval None
 425:Drivers/STM32G0xx_HAL_Driver/Src/stm32g0xx_hal.c ****   */
 426:Drivers/STM32G0xx_HAL_Driver/Src/stm32g0xx_hal.c **** __weak void HAL_ResumeTick(void)
 427:Drivers/STM32G0xx_HAL_Driver/Src/stm32g0xx_hal.c **** {
 587              		.loc 1 427 1 is_stmt 1 view -0
 588              		.cfi_startproc
 589              		@ args = 0, pretend = 0, frame = 0
 590              		@ frame_needed = 0, uses_anonymous_args = 0
 591              		@ link register save eliminated.
 428:Drivers/STM32G0xx_HAL_Driver/Src/stm32g0xx_hal.c ****   /* Enable SysTick Interrupt */
 429:Drivers/STM32G0xx_HAL_Driver/Src/stm32g0xx_hal.c ****   SET_BIT(SysTick->CTRL, SysTick_CTRL_TICKINT_Msk);
 592              		.loc 1 429 3 view .LVU113
 593 0000 024A     		ldr	r2, .L50
 594 0002 1368     		ldr	r3, [r2]
 595 0004 0221     		movs	r1, #2
 596 0006 0B43     		orrs	r3, r1
 597 0008 1360     		str	r3, [r2]
 430:Drivers/STM32G0xx_HAL_Driver/Src/stm32g0xx_hal.c **** }
 598              		.loc 1 430 1 is_stmt 0 view .LVU114
 599              		@ sp needed
 600 000a 7047     		bx	lr
 601              	.L51:
 602              		.align	2
 603              	.L50:
 604 000c 10E000E0 		.word	-536813552
 605              		.cfi_endproc
 606              	.LFE339:
 608              		.section	.text.HAL_GetHalVersion,"ax",%progbits
 609              		.align	1
 610              		.global	HAL_GetHalVersion
 611              		.syntax unified
 612              		.code	16
 613              		.thumb_func
 615              	HAL_GetHalVersion:
 616              	.LFB340:
 431:Drivers/STM32G0xx_HAL_Driver/Src/stm32g0xx_hal.c **** 
 432:Drivers/STM32G0xx_HAL_Driver/Src/stm32g0xx_hal.c **** /**
 433:Drivers/STM32G0xx_HAL_Driver/Src/stm32g0xx_hal.c ****   * @brief  Returns the HAL revision
 434:Drivers/STM32G0xx_HAL_Driver/Src/stm32g0xx_hal.c ****   * @retval version : 0xXYZR (8bits for each decimal, R for RC)
 435:Drivers/STM32G0xx_HAL_Driver/Src/stm32g0xx_hal.c ****   */
 436:Drivers/STM32G0xx_HAL_Driver/Src/stm32g0xx_hal.c **** uint32_t HAL_GetHalVersion(void)
 437:Drivers/STM32G0xx_HAL_Driver/Src/stm32g0xx_hal.c **** {
 617              		.loc 1 437 1 is_stmt 1 view -0
ARM GAS  /tmp/cc0Fkdnx.s 			page 20


 618              		.cfi_startproc
 619              		@ args = 0, pretend = 0, frame = 0
 620              		@ frame_needed = 0, uses_anonymous_args = 0
 621              		@ link register save eliminated.
 438:Drivers/STM32G0xx_HAL_Driver/Src/stm32g0xx_hal.c ****   return __STM32G0xx_HAL_VERSION;
 622              		.loc 1 438 3 view .LVU116
 439:Drivers/STM32G0xx_HAL_Driver/Src/stm32g0xx_hal.c **** }
 623              		.loc 1 439 1 is_stmt 0 view .LVU117
 624 0000 0048     		ldr	r0, .L53
 625              		@ sp needed
 626 0002 7047     		bx	lr
 627              	.L54:
 628              		.align	2
 629              	.L53:
 630 0004 00060401 		.word	17040896
 631              		.cfi_endproc
 632              	.LFE340:
 634              		.section	.text.HAL_GetREVID,"ax",%progbits
 635              		.align	1
 636              		.global	HAL_GetREVID
 637              		.syntax unified
 638              		.code	16
 639              		.thumb_func
 641              	HAL_GetREVID:
 642              	.LFB341:
 440:Drivers/STM32G0xx_HAL_Driver/Src/stm32g0xx_hal.c **** 
 441:Drivers/STM32G0xx_HAL_Driver/Src/stm32g0xx_hal.c **** /**
 442:Drivers/STM32G0xx_HAL_Driver/Src/stm32g0xx_hal.c ****   * @brief  Returns the device revision identifier.
 443:Drivers/STM32G0xx_HAL_Driver/Src/stm32g0xx_hal.c ****   * @retval Device revision identifier
 444:Drivers/STM32G0xx_HAL_Driver/Src/stm32g0xx_hal.c ****   */
 445:Drivers/STM32G0xx_HAL_Driver/Src/stm32g0xx_hal.c **** uint32_t HAL_GetREVID(void)
 446:Drivers/STM32G0xx_HAL_Driver/Src/stm32g0xx_hal.c **** {
 643              		.loc 1 446 1 is_stmt 1 view -0
 644              		.cfi_startproc
 645              		@ args = 0, pretend = 0, frame = 0
 646              		@ frame_needed = 0, uses_anonymous_args = 0
 647              		@ link register save eliminated.
 447:Drivers/STM32G0xx_HAL_Driver/Src/stm32g0xx_hal.c ****   return ((DBG->IDCODE & DBG_IDCODE_REV_ID) >> 16U);
 648              		.loc 1 447 3 view .LVU119
 649              		.loc 1 447 15 is_stmt 0 view .LVU120
 650 0000 014B     		ldr	r3, .L56
 651 0002 1868     		ldr	r0, [r3]
 652              		.loc 1 447 45 view .LVU121
 653 0004 000C     		lsrs	r0, r0, #16
 448:Drivers/STM32G0xx_HAL_Driver/Src/stm32g0xx_hal.c **** }
 654              		.loc 1 448 1 view .LVU122
 655              		@ sp needed
 656 0006 7047     		bx	lr
 657              	.L57:
 658              		.align	2
 659              	.L56:
 660 0008 00580140 		.word	1073829888
 661              		.cfi_endproc
 662              	.LFE341:
 664              		.section	.text.HAL_GetDEVID,"ax",%progbits
 665              		.align	1
 666              		.global	HAL_GetDEVID
ARM GAS  /tmp/cc0Fkdnx.s 			page 21


 667              		.syntax unified
 668              		.code	16
 669              		.thumb_func
 671              	HAL_GetDEVID:
 672              	.LFB342:
 449:Drivers/STM32G0xx_HAL_Driver/Src/stm32g0xx_hal.c **** 
 450:Drivers/STM32G0xx_HAL_Driver/Src/stm32g0xx_hal.c **** /**
 451:Drivers/STM32G0xx_HAL_Driver/Src/stm32g0xx_hal.c ****   * @brief  Returns the device identifier.
 452:Drivers/STM32G0xx_HAL_Driver/Src/stm32g0xx_hal.c ****   * @retval Device identifier
 453:Drivers/STM32G0xx_HAL_Driver/Src/stm32g0xx_hal.c ****   */
 454:Drivers/STM32G0xx_HAL_Driver/Src/stm32g0xx_hal.c **** uint32_t HAL_GetDEVID(void)
 455:Drivers/STM32G0xx_HAL_Driver/Src/stm32g0xx_hal.c **** {
 673              		.loc 1 455 1 is_stmt 1 view -0
 674              		.cfi_startproc
 675              		@ args = 0, pretend = 0, frame = 0
 676              		@ frame_needed = 0, uses_anonymous_args = 0
 677              		@ link register save eliminated.
 456:Drivers/STM32G0xx_HAL_Driver/Src/stm32g0xx_hal.c ****   return ((DBG->IDCODE) & DBG_IDCODE_DEV_ID);
 678              		.loc 1 456 3 view .LVU124
 679              		.loc 1 456 15 is_stmt 0 view .LVU125
 680 0000 024B     		ldr	r3, .L59
 681 0002 1868     		ldr	r0, [r3]
 682              		.loc 1 456 25 view .LVU126
 683 0004 0005     		lsls	r0, r0, #20
 684 0006 000D     		lsrs	r0, r0, #20
 457:Drivers/STM32G0xx_HAL_Driver/Src/stm32g0xx_hal.c **** }
 685              		.loc 1 457 1 view .LVU127
 686              		@ sp needed
 687 0008 7047     		bx	lr
 688              	.L60:
 689 000a C046     		.align	2
 690              	.L59:
 691 000c 00580140 		.word	1073829888
 692              		.cfi_endproc
 693              	.LFE342:
 695              		.section	.text.HAL_GetUIDw0,"ax",%progbits
 696              		.align	1
 697              		.global	HAL_GetUIDw0
 698              		.syntax unified
 699              		.code	16
 700              		.thumb_func
 702              	HAL_GetUIDw0:
 703              	.LFB343:
 458:Drivers/STM32G0xx_HAL_Driver/Src/stm32g0xx_hal.c **** 
 459:Drivers/STM32G0xx_HAL_Driver/Src/stm32g0xx_hal.c **** /**
 460:Drivers/STM32G0xx_HAL_Driver/Src/stm32g0xx_hal.c ****   * @brief  Returns first word of the unique device identifier (UID based on 96 bits)
 461:Drivers/STM32G0xx_HAL_Driver/Src/stm32g0xx_hal.c ****   * @retval Device identifier
 462:Drivers/STM32G0xx_HAL_Driver/Src/stm32g0xx_hal.c ****   */
 463:Drivers/STM32G0xx_HAL_Driver/Src/stm32g0xx_hal.c **** uint32_t HAL_GetUIDw0(void)
 464:Drivers/STM32G0xx_HAL_Driver/Src/stm32g0xx_hal.c **** {
 704              		.loc 1 464 1 is_stmt 1 view -0
 705              		.cfi_startproc
 706              		@ args = 0, pretend = 0, frame = 0
 707              		@ frame_needed = 0, uses_anonymous_args = 0
 708              		@ link register save eliminated.
 465:Drivers/STM32G0xx_HAL_Driver/Src/stm32g0xx_hal.c ****   return (READ_REG(*((uint32_t *)UID_BASE)));
 709              		.loc 1 465 3 view .LVU129
ARM GAS  /tmp/cc0Fkdnx.s 			page 22


 710              		.loc 1 465 11 is_stmt 0 view .LVU130
 711 0000 014B     		ldr	r3, .L62
 712 0002 1868     		ldr	r0, [r3]
 466:Drivers/STM32G0xx_HAL_Driver/Src/stm32g0xx_hal.c **** }
 713              		.loc 1 466 1 view .LVU131
 714              		@ sp needed
 715 0004 7047     		bx	lr
 716              	.L63:
 717 0006 C046     		.align	2
 718              	.L62:
 719 0008 9075FF1F 		.word	536835472
 720              		.cfi_endproc
 721              	.LFE343:
 723              		.section	.text.HAL_GetUIDw1,"ax",%progbits
 724              		.align	1
 725              		.global	HAL_GetUIDw1
 726              		.syntax unified
 727              		.code	16
 728              		.thumb_func
 730              	HAL_GetUIDw1:
 731              	.LFB344:
 467:Drivers/STM32G0xx_HAL_Driver/Src/stm32g0xx_hal.c **** 
 468:Drivers/STM32G0xx_HAL_Driver/Src/stm32g0xx_hal.c **** /**
 469:Drivers/STM32G0xx_HAL_Driver/Src/stm32g0xx_hal.c ****   * @brief  Returns second word of the unique device identifier (UID based on 96 bits)
 470:Drivers/STM32G0xx_HAL_Driver/Src/stm32g0xx_hal.c ****   * @retval Device identifier
 471:Drivers/STM32G0xx_HAL_Driver/Src/stm32g0xx_hal.c ****   */
 472:Drivers/STM32G0xx_HAL_Driver/Src/stm32g0xx_hal.c **** uint32_t HAL_GetUIDw1(void)
 473:Drivers/STM32G0xx_HAL_Driver/Src/stm32g0xx_hal.c **** {
 732              		.loc 1 473 1 is_stmt 1 view -0
 733              		.cfi_startproc
 734              		@ args = 0, pretend = 0, frame = 0
 735              		@ frame_needed = 0, uses_anonymous_args = 0
 736              		@ link register save eliminated.
 474:Drivers/STM32G0xx_HAL_Driver/Src/stm32g0xx_hal.c ****   return (READ_REG(*((uint32_t *)(UID_BASE + 4U))));
 737              		.loc 1 474 3 view .LVU133
 738              		.loc 1 474 11 is_stmt 0 view .LVU134
 739 0000 014B     		ldr	r3, .L65
 740 0002 1868     		ldr	r0, [r3]
 475:Drivers/STM32G0xx_HAL_Driver/Src/stm32g0xx_hal.c **** }
 741              		.loc 1 475 1 view .LVU135
 742              		@ sp needed
 743 0004 7047     		bx	lr
 744              	.L66:
 745 0006 C046     		.align	2
 746              	.L65:
 747 0008 9475FF1F 		.word	536835476
 748              		.cfi_endproc
 749              	.LFE344:
 751              		.section	.text.HAL_GetUIDw2,"ax",%progbits
 752              		.align	1
 753              		.global	HAL_GetUIDw2
 754              		.syntax unified
 755              		.code	16
 756              		.thumb_func
 758              	HAL_GetUIDw2:
 759              	.LFB345:
 476:Drivers/STM32G0xx_HAL_Driver/Src/stm32g0xx_hal.c **** 
ARM GAS  /tmp/cc0Fkdnx.s 			page 23


 477:Drivers/STM32G0xx_HAL_Driver/Src/stm32g0xx_hal.c **** /**
 478:Drivers/STM32G0xx_HAL_Driver/Src/stm32g0xx_hal.c ****   * @brief  Returns third word of the unique device identifier (UID based on 96 bits)
 479:Drivers/STM32G0xx_HAL_Driver/Src/stm32g0xx_hal.c ****   * @retval Device identifier
 480:Drivers/STM32G0xx_HAL_Driver/Src/stm32g0xx_hal.c ****   */
 481:Drivers/STM32G0xx_HAL_Driver/Src/stm32g0xx_hal.c **** uint32_t HAL_GetUIDw2(void)
 482:Drivers/STM32G0xx_HAL_Driver/Src/stm32g0xx_hal.c **** {
 760              		.loc 1 482 1 is_stmt 1 view -0
 761              		.cfi_startproc
 762              		@ args = 0, pretend = 0, frame = 0
 763              		@ frame_needed = 0, uses_anonymous_args = 0
 764              		@ link register save eliminated.
 483:Drivers/STM32G0xx_HAL_Driver/Src/stm32g0xx_hal.c ****   return (READ_REG(*((uint32_t *)(UID_BASE + 8U))));
 765              		.loc 1 483 3 view .LVU137
 766              		.loc 1 483 11 is_stmt 0 view .LVU138
 767 0000 014B     		ldr	r3, .L68
 768 0002 1868     		ldr	r0, [r3]
 484:Drivers/STM32G0xx_HAL_Driver/Src/stm32g0xx_hal.c **** }
 769              		.loc 1 484 1 view .LVU139
 770              		@ sp needed
 771 0004 7047     		bx	lr
 772              	.L69:
 773 0006 C046     		.align	2
 774              	.L68:
 775 0008 9875FF1F 		.word	536835480
 776              		.cfi_endproc
 777              	.LFE345:
 779              		.section	.text.HAL_DBGMCU_EnableDBGStopMode,"ax",%progbits
 780              		.align	1
 781              		.global	HAL_DBGMCU_EnableDBGStopMode
 782              		.syntax unified
 783              		.code	16
 784              		.thumb_func
 786              	HAL_DBGMCU_EnableDBGStopMode:
 787              	.LFB346:
 485:Drivers/STM32G0xx_HAL_Driver/Src/stm32g0xx_hal.c **** 
 486:Drivers/STM32G0xx_HAL_Driver/Src/stm32g0xx_hal.c **** /**
 487:Drivers/STM32G0xx_HAL_Driver/Src/stm32g0xx_hal.c ****   * @}
 488:Drivers/STM32G0xx_HAL_Driver/Src/stm32g0xx_hal.c ****   */
 489:Drivers/STM32G0xx_HAL_Driver/Src/stm32g0xx_hal.c **** 
 490:Drivers/STM32G0xx_HAL_Driver/Src/stm32g0xx_hal.c **** /** @addtogroup HAL_Exported_Functions_Group3
 491:Drivers/STM32G0xx_HAL_Driver/Src/stm32g0xx_hal.c ****  *  @brief    HAL Debug functions
 492:Drivers/STM32G0xx_HAL_Driver/Src/stm32g0xx_hal.c ****  *
 493:Drivers/STM32G0xx_HAL_Driver/Src/stm32g0xx_hal.c **** @verbatim
 494:Drivers/STM32G0xx_HAL_Driver/Src/stm32g0xx_hal.c ****  ===============================================================================
 495:Drivers/STM32G0xx_HAL_Driver/Src/stm32g0xx_hal.c ****                       ##### HAL Debug functions #####
 496:Drivers/STM32G0xx_HAL_Driver/Src/stm32g0xx_hal.c ****  ===============================================================================
 497:Drivers/STM32G0xx_HAL_Driver/Src/stm32g0xx_hal.c ****     [..]  This section provides functions allowing to:
 498:Drivers/STM32G0xx_HAL_Driver/Src/stm32g0xx_hal.c ****       (+) Enable/Disable Debug module during STOP mode
 499:Drivers/STM32G0xx_HAL_Driver/Src/stm32g0xx_hal.c ****       (+) Enable/Disable Debug module during STANDBY mode
 500:Drivers/STM32G0xx_HAL_Driver/Src/stm32g0xx_hal.c **** 
 501:Drivers/STM32G0xx_HAL_Driver/Src/stm32g0xx_hal.c **** @endverbatim
 502:Drivers/STM32G0xx_HAL_Driver/Src/stm32g0xx_hal.c ****   * @{
 503:Drivers/STM32G0xx_HAL_Driver/Src/stm32g0xx_hal.c ****   */
 504:Drivers/STM32G0xx_HAL_Driver/Src/stm32g0xx_hal.c **** 
 505:Drivers/STM32G0xx_HAL_Driver/Src/stm32g0xx_hal.c **** /**
 506:Drivers/STM32G0xx_HAL_Driver/Src/stm32g0xx_hal.c ****   * @brief  Enable the Debug Module during STOP mode
 507:Drivers/STM32G0xx_HAL_Driver/Src/stm32g0xx_hal.c ****   * @retval None
ARM GAS  /tmp/cc0Fkdnx.s 			page 24


 508:Drivers/STM32G0xx_HAL_Driver/Src/stm32g0xx_hal.c ****   */
 509:Drivers/STM32G0xx_HAL_Driver/Src/stm32g0xx_hal.c **** void HAL_DBGMCU_EnableDBGStopMode(void)
 510:Drivers/STM32G0xx_HAL_Driver/Src/stm32g0xx_hal.c **** {
 788              		.loc 1 510 1 is_stmt 1 view -0
 789              		.cfi_startproc
 790              		@ args = 0, pretend = 0, frame = 0
 791              		@ frame_needed = 0, uses_anonymous_args = 0
 792              		@ link register save eliminated.
 511:Drivers/STM32G0xx_HAL_Driver/Src/stm32g0xx_hal.c ****   SET_BIT(DBG->CR, DBG_CR_DBG_STOP);
 793              		.loc 1 511 3 view .LVU141
 794 0000 024A     		ldr	r2, .L71
 795 0002 5368     		ldr	r3, [r2, #4]
 796 0004 0221     		movs	r1, #2
 797 0006 0B43     		orrs	r3, r1
 798 0008 5360     		str	r3, [r2, #4]
 512:Drivers/STM32G0xx_HAL_Driver/Src/stm32g0xx_hal.c **** }
 799              		.loc 1 512 1 is_stmt 0 view .LVU142
 800              		@ sp needed
 801 000a 7047     		bx	lr
 802              	.L72:
 803              		.align	2
 804              	.L71:
 805 000c 00580140 		.word	1073829888
 806              		.cfi_endproc
 807              	.LFE346:
 809              		.section	.text.HAL_DBGMCU_DisableDBGStopMode,"ax",%progbits
 810              		.align	1
 811              		.global	HAL_DBGMCU_DisableDBGStopMode
 812              		.syntax unified
 813              		.code	16
 814              		.thumb_func
 816              	HAL_DBGMCU_DisableDBGStopMode:
 817              	.LFB347:
 513:Drivers/STM32G0xx_HAL_Driver/Src/stm32g0xx_hal.c **** 
 514:Drivers/STM32G0xx_HAL_Driver/Src/stm32g0xx_hal.c **** /**
 515:Drivers/STM32G0xx_HAL_Driver/Src/stm32g0xx_hal.c ****   * @brief  Disable the Debug Module during STOP mode
 516:Drivers/STM32G0xx_HAL_Driver/Src/stm32g0xx_hal.c ****   * @retval None
 517:Drivers/STM32G0xx_HAL_Driver/Src/stm32g0xx_hal.c ****   */
 518:Drivers/STM32G0xx_HAL_Driver/Src/stm32g0xx_hal.c **** void HAL_DBGMCU_DisableDBGStopMode(void)
 519:Drivers/STM32G0xx_HAL_Driver/Src/stm32g0xx_hal.c **** {
 818              		.loc 1 519 1 is_stmt 1 view -0
 819              		.cfi_startproc
 820              		@ args = 0, pretend = 0, frame = 0
 821              		@ frame_needed = 0, uses_anonymous_args = 0
 822              		@ link register save eliminated.
 520:Drivers/STM32G0xx_HAL_Driver/Src/stm32g0xx_hal.c ****   CLEAR_BIT(DBG->CR, DBG_CR_DBG_STOP);
 823              		.loc 1 520 3 view .LVU144
 824 0000 024A     		ldr	r2, .L74
 825 0002 5368     		ldr	r3, [r2, #4]
 826 0004 0221     		movs	r1, #2
 827 0006 8B43     		bics	r3, r1
 828 0008 5360     		str	r3, [r2, #4]
 521:Drivers/STM32G0xx_HAL_Driver/Src/stm32g0xx_hal.c **** }
 829              		.loc 1 521 1 is_stmt 0 view .LVU145
 830              		@ sp needed
 831 000a 7047     		bx	lr
 832              	.L75:
ARM GAS  /tmp/cc0Fkdnx.s 			page 25


 833              		.align	2
 834              	.L74:
 835 000c 00580140 		.word	1073829888
 836              		.cfi_endproc
 837              	.LFE347:
 839              		.section	.text.HAL_DBGMCU_EnableDBGStandbyMode,"ax",%progbits
 840              		.align	1
 841              		.global	HAL_DBGMCU_EnableDBGStandbyMode
 842              		.syntax unified
 843              		.code	16
 844              		.thumb_func
 846              	HAL_DBGMCU_EnableDBGStandbyMode:
 847              	.LFB348:
 522:Drivers/STM32G0xx_HAL_Driver/Src/stm32g0xx_hal.c **** 
 523:Drivers/STM32G0xx_HAL_Driver/Src/stm32g0xx_hal.c **** /**
 524:Drivers/STM32G0xx_HAL_Driver/Src/stm32g0xx_hal.c ****   * @brief  Enable the Debug Module during STANDBY mode
 525:Drivers/STM32G0xx_HAL_Driver/Src/stm32g0xx_hal.c ****   * @retval None
 526:Drivers/STM32G0xx_HAL_Driver/Src/stm32g0xx_hal.c ****   */
 527:Drivers/STM32G0xx_HAL_Driver/Src/stm32g0xx_hal.c **** void HAL_DBGMCU_EnableDBGStandbyMode(void)
 528:Drivers/STM32G0xx_HAL_Driver/Src/stm32g0xx_hal.c **** {
 848              		.loc 1 528 1 is_stmt 1 view -0
 849              		.cfi_startproc
 850              		@ args = 0, pretend = 0, frame = 0
 851              		@ frame_needed = 0, uses_anonymous_args = 0
 852              		@ link register save eliminated.
 529:Drivers/STM32G0xx_HAL_Driver/Src/stm32g0xx_hal.c ****   SET_BIT(DBG->CR, DBG_CR_DBG_STANDBY);
 853              		.loc 1 529 3 view .LVU147
 854 0000 024A     		ldr	r2, .L77
 855 0002 5368     		ldr	r3, [r2, #4]
 856 0004 0421     		movs	r1, #4
 857 0006 0B43     		orrs	r3, r1
 858 0008 5360     		str	r3, [r2, #4]
 530:Drivers/STM32G0xx_HAL_Driver/Src/stm32g0xx_hal.c **** }
 859              		.loc 1 530 1 is_stmt 0 view .LVU148
 860              		@ sp needed
 861 000a 7047     		bx	lr
 862              	.L78:
 863              		.align	2
 864              	.L77:
 865 000c 00580140 		.word	1073829888
 866              		.cfi_endproc
 867              	.LFE348:
 869              		.section	.text.HAL_DBGMCU_DisableDBGStandbyMode,"ax",%progbits
 870              		.align	1
 871              		.global	HAL_DBGMCU_DisableDBGStandbyMode
 872              		.syntax unified
 873              		.code	16
 874              		.thumb_func
 876              	HAL_DBGMCU_DisableDBGStandbyMode:
 877              	.LFB349:
 531:Drivers/STM32G0xx_HAL_Driver/Src/stm32g0xx_hal.c **** 
 532:Drivers/STM32G0xx_HAL_Driver/Src/stm32g0xx_hal.c **** /**
 533:Drivers/STM32G0xx_HAL_Driver/Src/stm32g0xx_hal.c ****   * @brief  Disable the Debug Module during STANDBY mode
 534:Drivers/STM32G0xx_HAL_Driver/Src/stm32g0xx_hal.c ****   * @retval None
 535:Drivers/STM32G0xx_HAL_Driver/Src/stm32g0xx_hal.c ****   */
 536:Drivers/STM32G0xx_HAL_Driver/Src/stm32g0xx_hal.c **** void HAL_DBGMCU_DisableDBGStandbyMode(void)
 537:Drivers/STM32G0xx_HAL_Driver/Src/stm32g0xx_hal.c **** {
ARM GAS  /tmp/cc0Fkdnx.s 			page 26


 878              		.loc 1 537 1 is_stmt 1 view -0
 879              		.cfi_startproc
 880              		@ args = 0, pretend = 0, frame = 0
 881              		@ frame_needed = 0, uses_anonymous_args = 0
 882              		@ link register save eliminated.
 538:Drivers/STM32G0xx_HAL_Driver/Src/stm32g0xx_hal.c ****   CLEAR_BIT(DBG->CR, DBG_CR_DBG_STANDBY);
 883              		.loc 1 538 3 view .LVU150
 884 0000 024A     		ldr	r2, .L80
 885 0002 5368     		ldr	r3, [r2, #4]
 886 0004 0421     		movs	r1, #4
 887 0006 8B43     		bics	r3, r1
 888 0008 5360     		str	r3, [r2, #4]
 539:Drivers/STM32G0xx_HAL_Driver/Src/stm32g0xx_hal.c **** }
 889              		.loc 1 539 1 is_stmt 0 view .LVU151
 890              		@ sp needed
 891 000a 7047     		bx	lr
 892              	.L81:
 893              		.align	2
 894              	.L80:
 895 000c 00580140 		.word	1073829888
 896              		.cfi_endproc
 897              	.LFE349:
 899              		.section	.text.HAL_SYSCFG_VREFBUF_VoltageScalingConfig,"ax",%progbits
 900              		.align	1
 901              		.global	HAL_SYSCFG_VREFBUF_VoltageScalingConfig
 902              		.syntax unified
 903              		.code	16
 904              		.thumb_func
 906              	HAL_SYSCFG_VREFBUF_VoltageScalingConfig:
 907              	.LVL33:
 908              	.LFB350:
 540:Drivers/STM32G0xx_HAL_Driver/Src/stm32g0xx_hal.c **** 
 541:Drivers/STM32G0xx_HAL_Driver/Src/stm32g0xx_hal.c **** /**
 542:Drivers/STM32G0xx_HAL_Driver/Src/stm32g0xx_hal.c ****   * @}
 543:Drivers/STM32G0xx_HAL_Driver/Src/stm32g0xx_hal.c ****   */
 544:Drivers/STM32G0xx_HAL_Driver/Src/stm32g0xx_hal.c **** 
 545:Drivers/STM32G0xx_HAL_Driver/Src/stm32g0xx_hal.c **** /** @addtogroup HAL_Exported_Functions_Group4
 546:Drivers/STM32G0xx_HAL_Driver/Src/stm32g0xx_hal.c ****  *  @brief    SYSCFG configuration functions
 547:Drivers/STM32G0xx_HAL_Driver/Src/stm32g0xx_hal.c ****  *
 548:Drivers/STM32G0xx_HAL_Driver/Src/stm32g0xx_hal.c **** @verbatim
 549:Drivers/STM32G0xx_HAL_Driver/Src/stm32g0xx_hal.c ****  ===============================================================================
 550:Drivers/STM32G0xx_HAL_Driver/Src/stm32g0xx_hal.c ****                       ##### HAL SYSCFG configuration functions #####
 551:Drivers/STM32G0xx_HAL_Driver/Src/stm32g0xx_hal.c ****  ===============================================================================
 552:Drivers/STM32G0xx_HAL_Driver/Src/stm32g0xx_hal.c ****     [..]  This section provides functions allowing to:
 553:Drivers/STM32G0xx_HAL_Driver/Src/stm32g0xx_hal.c ****       (+) Enable/Disable Pin remap
 554:Drivers/STM32G0xx_HAL_Driver/Src/stm32g0xx_hal.c ****       (+) Configure the Voltage reference buffer
 555:Drivers/STM32G0xx_HAL_Driver/Src/stm32g0xx_hal.c ****       (+) Enable/Disable the Voltage reference buffer
 556:Drivers/STM32G0xx_HAL_Driver/Src/stm32g0xx_hal.c ****       (+) Enable/Disable the I/O analog switch voltage booster
 557:Drivers/STM32G0xx_HAL_Driver/Src/stm32g0xx_hal.c ****       (+) Enable/Disable dead battery behavior(*)
 558:Drivers/STM32G0xx_HAL_Driver/Src/stm32g0xx_hal.c ****       (+) Configure Clamping Diode on specific pins(*)
 559:Drivers/STM32G0xx_HAL_Driver/Src/stm32g0xx_hal.c ****    (*) Feature not available on all devices
 560:Drivers/STM32G0xx_HAL_Driver/Src/stm32g0xx_hal.c **** 
 561:Drivers/STM32G0xx_HAL_Driver/Src/stm32g0xx_hal.c **** @endverbatim
 562:Drivers/STM32G0xx_HAL_Driver/Src/stm32g0xx_hal.c ****   * @{
 563:Drivers/STM32G0xx_HAL_Driver/Src/stm32g0xx_hal.c ****   */
 564:Drivers/STM32G0xx_HAL_Driver/Src/stm32g0xx_hal.c **** #if defined(VREFBUF)
 565:Drivers/STM32G0xx_HAL_Driver/Src/stm32g0xx_hal.c **** /**
ARM GAS  /tmp/cc0Fkdnx.s 			page 27


 566:Drivers/STM32G0xx_HAL_Driver/Src/stm32g0xx_hal.c ****   * @brief Configure the internal voltage reference buffer voltage scale.
 567:Drivers/STM32G0xx_HAL_Driver/Src/stm32g0xx_hal.c ****   * @param  VoltageScaling specifies the output voltage to achieve
 568:Drivers/STM32G0xx_HAL_Driver/Src/stm32g0xx_hal.c ****   *         This parameter can be one of the following values:
 569:Drivers/STM32G0xx_HAL_Driver/Src/stm32g0xx_hal.c ****   *         @arg @ref SYSCFG_VREFBUF_VoltageScale
 570:Drivers/STM32G0xx_HAL_Driver/Src/stm32g0xx_hal.c ****   * @retval None
 571:Drivers/STM32G0xx_HAL_Driver/Src/stm32g0xx_hal.c ****   */
 572:Drivers/STM32G0xx_HAL_Driver/Src/stm32g0xx_hal.c **** void HAL_SYSCFG_VREFBUF_VoltageScalingConfig(uint32_t VoltageScaling)
 573:Drivers/STM32G0xx_HAL_Driver/Src/stm32g0xx_hal.c **** {
 909              		.loc 1 573 1 is_stmt 1 view -0
 910              		.cfi_startproc
 911              		@ args = 0, pretend = 0, frame = 0
 912              		@ frame_needed = 0, uses_anonymous_args = 0
 913              		.loc 1 573 1 is_stmt 0 view .LVU153
 914 0000 10B5     		push	{r4, lr}
 915              	.LCFI5:
 916              		.cfi_def_cfa_offset 8
 917              		.cfi_offset 4, -8
 918              		.cfi_offset 14, -4
 919 0002 041E     		subs	r4, r0, #0
 574:Drivers/STM32G0xx_HAL_Driver/Src/stm32g0xx_hal.c ****   /* Check the parameters */
 575:Drivers/STM32G0xx_HAL_Driver/Src/stm32g0xx_hal.c ****   assert_param(IS_SYSCFG_VREFBUF_VOLTAGE_SCALE(VoltageScaling));
 920              		.loc 1 575 3 is_stmt 1 view .LVU154
 921 0004 01D0     		beq	.L83
 922              		.loc 1 575 3 is_stmt 0 discriminator 1 view .LVU155
 923 0006 0428     		cmp	r0, #4
 924 0008 06D1     		bne	.L84
 925              	.LVL34:
 926              	.L83:
 576:Drivers/STM32G0xx_HAL_Driver/Src/stm32g0xx_hal.c **** 
 577:Drivers/STM32G0xx_HAL_Driver/Src/stm32g0xx_hal.c ****   MODIFY_REG(VREFBUF->CSR, VREFBUF_CSR_VRS, VoltageScaling);
 927              		.loc 1 577 3 is_stmt 1 view .LVU156
 928 000a 064B     		ldr	r3, .L85
 929 000c 1868     		ldr	r0, [r3]
 930 000e 0422     		movs	r2, #4
 931 0010 9043     		bics	r0, r2
 932 0012 2043     		orrs	r0, r4
 933 0014 1860     		str	r0, [r3]
 578:Drivers/STM32G0xx_HAL_Driver/Src/stm32g0xx_hal.c **** }
 934              		.loc 1 578 1 is_stmt 0 view .LVU157
 935              		@ sp needed
 936              	.LVL35:
 937              		.loc 1 578 1 view .LVU158
 938 0016 10BD     		pop	{r4, pc}
 939              	.LVL36:
 940              	.L84:
 575:Drivers/STM32G0xx_HAL_Driver/Src/stm32g0xx_hal.c **** 
 941              		.loc 1 575 3 discriminator 2 view .LVU159
 942 0018 0349     		ldr	r1, .L85+4
 943 001a 0448     		ldr	r0, .L85+8
 944              	.LVL37:
 575:Drivers/STM32G0xx_HAL_Driver/Src/stm32g0xx_hal.c **** 
 945              		.loc 1 575 3 discriminator 2 view .LVU160
 946 001c FFF7FEFF 		bl	assert_failed
 947              	.LVL38:
 948 0020 F3E7     		b	.L83
 949              	.L86:
 950 0022 C046     		.align	2
ARM GAS  /tmp/cc0Fkdnx.s 			page 28


 951              	.L85:
 952 0024 30000140 		.word	1073807408
 953 0028 3F020000 		.word	575
 954 002c 00000000 		.word	.LC7
 955              		.cfi_endproc
 956              	.LFE350:
 958              		.section	.text.HAL_SYSCFG_VREFBUF_HighImpedanceConfig,"ax",%progbits
 959              		.align	1
 960              		.global	HAL_SYSCFG_VREFBUF_HighImpedanceConfig
 961              		.syntax unified
 962              		.code	16
 963              		.thumb_func
 965              	HAL_SYSCFG_VREFBUF_HighImpedanceConfig:
 966              	.LVL39:
 967              	.LFB351:
 579:Drivers/STM32G0xx_HAL_Driver/Src/stm32g0xx_hal.c **** 
 580:Drivers/STM32G0xx_HAL_Driver/Src/stm32g0xx_hal.c **** /**
 581:Drivers/STM32G0xx_HAL_Driver/Src/stm32g0xx_hal.c ****   * @brief Configure the internal voltage reference buffer high impedance mode.
 582:Drivers/STM32G0xx_HAL_Driver/Src/stm32g0xx_hal.c ****   * @param  Mode specifies the high impedance mode
 583:Drivers/STM32G0xx_HAL_Driver/Src/stm32g0xx_hal.c ****   *          This parameter can be one of the following values:
 584:Drivers/STM32G0xx_HAL_Driver/Src/stm32g0xx_hal.c ****   *          @arg @ref SYSCFG_VREFBUF_HighImpedance
 585:Drivers/STM32G0xx_HAL_Driver/Src/stm32g0xx_hal.c ****   * @retval None
 586:Drivers/STM32G0xx_HAL_Driver/Src/stm32g0xx_hal.c ****   */
 587:Drivers/STM32G0xx_HAL_Driver/Src/stm32g0xx_hal.c **** void HAL_SYSCFG_VREFBUF_HighImpedanceConfig(uint32_t Mode)
 588:Drivers/STM32G0xx_HAL_Driver/Src/stm32g0xx_hal.c **** {
 968              		.loc 1 588 1 is_stmt 1 view -0
 969              		.cfi_startproc
 970              		@ args = 0, pretend = 0, frame = 0
 971              		@ frame_needed = 0, uses_anonymous_args = 0
 972              		.loc 1 588 1 is_stmt 0 view .LVU162
 973 0000 10B5     		push	{r4, lr}
 974              	.LCFI6:
 975              		.cfi_def_cfa_offset 8
 976              		.cfi_offset 4, -8
 977              		.cfi_offset 14, -4
 978 0002 041E     		subs	r4, r0, #0
 589:Drivers/STM32G0xx_HAL_Driver/Src/stm32g0xx_hal.c ****   /* Check the parameters */
 590:Drivers/STM32G0xx_HAL_Driver/Src/stm32g0xx_hal.c ****   assert_param(IS_SYSCFG_VREFBUF_HIGH_IMPEDANCE(Mode));
 979              		.loc 1 590 3 is_stmt 1 view .LVU163
 980 0004 01D0     		beq	.L88
 981              		.loc 1 590 3 is_stmt 0 discriminator 1 view .LVU164
 982 0006 0228     		cmp	r0, #2
 983 0008 06D1     		bne	.L89
 984              	.LVL40:
 985              	.L88:
 591:Drivers/STM32G0xx_HAL_Driver/Src/stm32g0xx_hal.c **** 
 592:Drivers/STM32G0xx_HAL_Driver/Src/stm32g0xx_hal.c ****   MODIFY_REG(VREFBUF->CSR, VREFBUF_CSR_HIZ, Mode);
 986              		.loc 1 592 3 is_stmt 1 view .LVU165
 987 000a 064B     		ldr	r3, .L90
 988 000c 1868     		ldr	r0, [r3]
 989 000e 0222     		movs	r2, #2
 990 0010 9043     		bics	r0, r2
 991 0012 2043     		orrs	r0, r4
 992 0014 1860     		str	r0, [r3]
 593:Drivers/STM32G0xx_HAL_Driver/Src/stm32g0xx_hal.c **** }
 993              		.loc 1 593 1 is_stmt 0 view .LVU166
 994              		@ sp needed
ARM GAS  /tmp/cc0Fkdnx.s 			page 29


 995              	.LVL41:
 996              		.loc 1 593 1 view .LVU167
 997 0016 10BD     		pop	{r4, pc}
 998              	.LVL42:
 999              	.L89:
 590:Drivers/STM32G0xx_HAL_Driver/Src/stm32g0xx_hal.c **** 
 1000              		.loc 1 590 3 discriminator 2 view .LVU168
 1001 0018 0349     		ldr	r1, .L90+4
 1002 001a 0448     		ldr	r0, .L90+8
 1003              	.LVL43:
 590:Drivers/STM32G0xx_HAL_Driver/Src/stm32g0xx_hal.c **** 
 1004              		.loc 1 590 3 discriminator 2 view .LVU169
 1005 001c FFF7FEFF 		bl	assert_failed
 1006              	.LVL44:
 1007 0020 F3E7     		b	.L88
 1008              	.L91:
 1009 0022 C046     		.align	2
 1010              	.L90:
 1011 0024 30000140 		.word	1073807408
 1012 0028 4E020000 		.word	590
 1013 002c 00000000 		.word	.LC7
 1014              		.cfi_endproc
 1015              	.LFE351:
 1017              		.section	.text.HAL_SYSCFG_VREFBUF_TrimmingConfig,"ax",%progbits
 1018              		.align	1
 1019              		.global	HAL_SYSCFG_VREFBUF_TrimmingConfig
 1020              		.syntax unified
 1021              		.code	16
 1022              		.thumb_func
 1024              	HAL_SYSCFG_VREFBUF_TrimmingConfig:
 1025              	.LVL45:
 1026              	.LFB352:
 594:Drivers/STM32G0xx_HAL_Driver/Src/stm32g0xx_hal.c **** 
 595:Drivers/STM32G0xx_HAL_Driver/Src/stm32g0xx_hal.c **** /**
 596:Drivers/STM32G0xx_HAL_Driver/Src/stm32g0xx_hal.c ****   * @brief  Tune the Internal Voltage Reference buffer (VREFBUF).
 597:Drivers/STM32G0xx_HAL_Driver/Src/stm32g0xx_hal.c ****   * @note   VrefBuf voltage scale is calibrated in production for each device,
 598:Drivers/STM32G0xx_HAL_Driver/Src/stm32g0xx_hal.c ****   *         using voltage scale 1. This calibration value is loaded
 599:Drivers/STM32G0xx_HAL_Driver/Src/stm32g0xx_hal.c ****   *         as default trimming value at device power up.
 600:Drivers/STM32G0xx_HAL_Driver/Src/stm32g0xx_hal.c ****   *         This trimming value can be fine tuned for voltage scales 0 and 1
 601:Drivers/STM32G0xx_HAL_Driver/Src/stm32g0xx_hal.c ****   *         using this function.
 602:Drivers/STM32G0xx_HAL_Driver/Src/stm32g0xx_hal.c ****   * @retval None
 603:Drivers/STM32G0xx_HAL_Driver/Src/stm32g0xx_hal.c ****   */
 604:Drivers/STM32G0xx_HAL_Driver/Src/stm32g0xx_hal.c **** void HAL_SYSCFG_VREFBUF_TrimmingConfig(uint32_t TrimmingValue)
 605:Drivers/STM32G0xx_HAL_Driver/Src/stm32g0xx_hal.c **** {
 1027              		.loc 1 605 1 is_stmt 1 view -0
 1028              		.cfi_startproc
 1029              		@ args = 0, pretend = 0, frame = 0
 1030              		@ frame_needed = 0, uses_anonymous_args = 0
 1031              		.loc 1 605 1 is_stmt 0 view .LVU171
 1032 0000 10B5     		push	{r4, lr}
 1033              	.LCFI7:
 1034              		.cfi_def_cfa_offset 8
 1035              		.cfi_offset 4, -8
 1036              		.cfi_offset 14, -4
 1037 0002 0400     		movs	r4, r0
 606:Drivers/STM32G0xx_HAL_Driver/Src/stm32g0xx_hal.c ****   /* Check the parameters */
 607:Drivers/STM32G0xx_HAL_Driver/Src/stm32g0xx_hal.c ****   assert_param(IS_SYSCFG_VREFBUF_TRIMMING(TrimmingValue));
ARM GAS  /tmp/cc0Fkdnx.s 			page 30


 1038              		.loc 1 607 3 is_stmt 1 view .LVU172
 1039 0004 431E     		subs	r3, r0, #1
 1040 0006 3E2B     		cmp	r3, #62
 1041 0008 06D8     		bhi	.L94
 1042              	.LVL46:
 1043              	.L93:
 608:Drivers/STM32G0xx_HAL_Driver/Src/stm32g0xx_hal.c **** 
 609:Drivers/STM32G0xx_HAL_Driver/Src/stm32g0xx_hal.c ****   MODIFY_REG(VREFBUF->CCR, VREFBUF_CCR_TRIM, TrimmingValue);
 1044              		.loc 1 609 3 view .LVU173
 1045 000a 064B     		ldr	r3, .L95
 1046 000c 5868     		ldr	r0, [r3, #4]
 1047 000e 3F22     		movs	r2, #63
 1048 0010 9043     		bics	r0, r2
 1049 0012 2043     		orrs	r0, r4
 1050 0014 5860     		str	r0, [r3, #4]
 610:Drivers/STM32G0xx_HAL_Driver/Src/stm32g0xx_hal.c **** }
 1051              		.loc 1 610 1 is_stmt 0 view .LVU174
 1052              		@ sp needed
 1053              	.LVL47:
 1054              		.loc 1 610 1 view .LVU175
 1055 0016 10BD     		pop	{r4, pc}
 1056              	.LVL48:
 1057              	.L94:
 607:Drivers/STM32G0xx_HAL_Driver/Src/stm32g0xx_hal.c **** 
 1058              		.loc 1 607 3 discriminator 1 view .LVU176
 1059 0018 0349     		ldr	r1, .L95+4
 1060 001a 0448     		ldr	r0, .L95+8
 1061              	.LVL49:
 607:Drivers/STM32G0xx_HAL_Driver/Src/stm32g0xx_hal.c **** 
 1062              		.loc 1 607 3 discriminator 1 view .LVU177
 1063 001c FFF7FEFF 		bl	assert_failed
 1064              	.LVL50:
 1065 0020 F3E7     		b	.L93
 1066              	.L96:
 1067 0022 C046     		.align	2
 1068              	.L95:
 1069 0024 30000140 		.word	1073807408
 1070 0028 5F020000 		.word	607
 1071 002c 00000000 		.word	.LC7
 1072              		.cfi_endproc
 1073              	.LFE352:
 1075              		.section	.text.HAL_SYSCFG_EnableVREFBUF,"ax",%progbits
 1076              		.align	1
 1077              		.global	HAL_SYSCFG_EnableVREFBUF
 1078              		.syntax unified
 1079              		.code	16
 1080              		.thumb_func
 1082              	HAL_SYSCFG_EnableVREFBUF:
 1083              	.LFB353:
 611:Drivers/STM32G0xx_HAL_Driver/Src/stm32g0xx_hal.c **** 
 612:Drivers/STM32G0xx_HAL_Driver/Src/stm32g0xx_hal.c **** /**
 613:Drivers/STM32G0xx_HAL_Driver/Src/stm32g0xx_hal.c ****   * @brief  Enable the Internal Voltage Reference buffer (VREFBUF).
 614:Drivers/STM32G0xx_HAL_Driver/Src/stm32g0xx_hal.c ****   * @retval HAL_OK/HAL_TIMEOUT
 615:Drivers/STM32G0xx_HAL_Driver/Src/stm32g0xx_hal.c ****   */
 616:Drivers/STM32G0xx_HAL_Driver/Src/stm32g0xx_hal.c **** HAL_StatusTypeDef HAL_SYSCFG_EnableVREFBUF(void)
 617:Drivers/STM32G0xx_HAL_Driver/Src/stm32g0xx_hal.c **** {
 1084              		.loc 1 617 1 is_stmt 1 view -0
ARM GAS  /tmp/cc0Fkdnx.s 			page 31


 1085              		.cfi_startproc
 1086              		@ args = 0, pretend = 0, frame = 0
 1087              		@ frame_needed = 0, uses_anonymous_args = 0
 1088 0000 10B5     		push	{r4, lr}
 1089              	.LCFI8:
 1090              		.cfi_def_cfa_offset 8
 1091              		.cfi_offset 4, -8
 1092              		.cfi_offset 14, -4
 618:Drivers/STM32G0xx_HAL_Driver/Src/stm32g0xx_hal.c ****   uint32_t  tickstart;
 1093              		.loc 1 618 3 view .LVU179
 619:Drivers/STM32G0xx_HAL_Driver/Src/stm32g0xx_hal.c **** 
 620:Drivers/STM32G0xx_HAL_Driver/Src/stm32g0xx_hal.c ****   SET_BIT(VREFBUF->CSR, VREFBUF_CSR_ENVR);
 1094              		.loc 1 620 3 view .LVU180
 1095 0002 0A4A     		ldr	r2, .L103
 1096 0004 1368     		ldr	r3, [r2]
 1097 0006 0121     		movs	r1, #1
 1098 0008 0B43     		orrs	r3, r1
 1099 000a 1360     		str	r3, [r2]
 621:Drivers/STM32G0xx_HAL_Driver/Src/stm32g0xx_hal.c **** 
 622:Drivers/STM32G0xx_HAL_Driver/Src/stm32g0xx_hal.c ****   /* Get Start Tick*/
 623:Drivers/STM32G0xx_HAL_Driver/Src/stm32g0xx_hal.c ****   tickstart = HAL_GetTick();
 1100              		.loc 1 623 3 view .LVU181
 1101              		.loc 1 623 15 is_stmt 0 view .LVU182
 1102 000c FFF7FEFF 		bl	HAL_GetTick
 1103              	.LVL51:
 1104 0010 0400     		movs	r4, r0
 1105              	.LVL52:
 624:Drivers/STM32G0xx_HAL_Driver/Src/stm32g0xx_hal.c **** 
 625:Drivers/STM32G0xx_HAL_Driver/Src/stm32g0xx_hal.c ****   /* Wait for VRR bit  */
 626:Drivers/STM32G0xx_HAL_Driver/Src/stm32g0xx_hal.c ****   while (READ_BIT(VREFBUF->CSR, VREFBUF_CSR_VRR) == 0x00U)
 1106              		.loc 1 626 3 is_stmt 1 view .LVU183
 1107              	.L98:
 1108              		.loc 1 626 9 view .LVU184
 1109              		.loc 1 626 10 is_stmt 0 view .LVU185
 1110 0012 064B     		ldr	r3, .L103
 1111 0014 1B68     		ldr	r3, [r3]
 1112              		.loc 1 626 9 view .LVU186
 1113 0016 1B07     		lsls	r3, r3, #28
 1114 0018 06D4     		bmi	.L102
 627:Drivers/STM32G0xx_HAL_Driver/Src/stm32g0xx_hal.c ****   {
 628:Drivers/STM32G0xx_HAL_Driver/Src/stm32g0xx_hal.c ****     if ((HAL_GetTick() - tickstart) > VREFBUF_TIMEOUT_VALUE)
 1115              		.loc 1 628 5 is_stmt 1 view .LVU187
 1116              		.loc 1 628 10 is_stmt 0 view .LVU188
 1117 001a FFF7FEFF 		bl	HAL_GetTick
 1118              	.LVL53:
 1119              		.loc 1 628 24 view .LVU189
 1120 001e 001B     		subs	r0, r0, r4
 1121              		.loc 1 628 8 view .LVU190
 1122 0020 0A28     		cmp	r0, #10
 1123 0022 F6D9     		bls	.L98
 629:Drivers/STM32G0xx_HAL_Driver/Src/stm32g0xx_hal.c ****     {
 630:Drivers/STM32G0xx_HAL_Driver/Src/stm32g0xx_hal.c ****       return HAL_TIMEOUT;
 1124              		.loc 1 630 14 view .LVU191
 1125 0024 0320     		movs	r0, #3
 1126 0026 00E0     		b	.L99
 1127              	.L102:
 631:Drivers/STM32G0xx_HAL_Driver/Src/stm32g0xx_hal.c ****     }
ARM GAS  /tmp/cc0Fkdnx.s 			page 32


 632:Drivers/STM32G0xx_HAL_Driver/Src/stm32g0xx_hal.c ****   }
 633:Drivers/STM32G0xx_HAL_Driver/Src/stm32g0xx_hal.c **** 
 634:Drivers/STM32G0xx_HAL_Driver/Src/stm32g0xx_hal.c ****   return HAL_OK;
 1128              		.loc 1 634 10 view .LVU192
 1129 0028 0020     		movs	r0, #0
 1130              	.L99:
 635:Drivers/STM32G0xx_HAL_Driver/Src/stm32g0xx_hal.c **** }
 1131              		.loc 1 635 1 view .LVU193
 1132              		@ sp needed
 1133              	.LVL54:
 1134              		.loc 1 635 1 view .LVU194
 1135 002a 10BD     		pop	{r4, pc}
 1136              	.L104:
 1137              		.align	2
 1138              	.L103:
 1139 002c 30000140 		.word	1073807408
 1140              		.cfi_endproc
 1141              	.LFE353:
 1143              		.section	.text.HAL_SYSCFG_DisableVREFBUF,"ax",%progbits
 1144              		.align	1
 1145              		.global	HAL_SYSCFG_DisableVREFBUF
 1146              		.syntax unified
 1147              		.code	16
 1148              		.thumb_func
 1150              	HAL_SYSCFG_DisableVREFBUF:
 1151              	.LFB354:
 636:Drivers/STM32G0xx_HAL_Driver/Src/stm32g0xx_hal.c **** 
 637:Drivers/STM32G0xx_HAL_Driver/Src/stm32g0xx_hal.c **** /**
 638:Drivers/STM32G0xx_HAL_Driver/Src/stm32g0xx_hal.c ****   * @brief  Disable the Internal Voltage Reference buffer (VREFBUF).
 639:Drivers/STM32G0xx_HAL_Driver/Src/stm32g0xx_hal.c ****   *
 640:Drivers/STM32G0xx_HAL_Driver/Src/stm32g0xx_hal.c ****   * @retval None
 641:Drivers/STM32G0xx_HAL_Driver/Src/stm32g0xx_hal.c ****   */
 642:Drivers/STM32G0xx_HAL_Driver/Src/stm32g0xx_hal.c **** void HAL_SYSCFG_DisableVREFBUF(void)
 643:Drivers/STM32G0xx_HAL_Driver/Src/stm32g0xx_hal.c **** {
 1152              		.loc 1 643 1 is_stmt 1 view -0
 1153              		.cfi_startproc
 1154              		@ args = 0, pretend = 0, frame = 0
 1155              		@ frame_needed = 0, uses_anonymous_args = 0
 1156              		@ link register save eliminated.
 644:Drivers/STM32G0xx_HAL_Driver/Src/stm32g0xx_hal.c ****   CLEAR_BIT(VREFBUF->CSR, VREFBUF_CSR_ENVR);
 1157              		.loc 1 644 3 view .LVU196
 1158 0000 024A     		ldr	r2, .L106
 1159 0002 1368     		ldr	r3, [r2]
 1160 0004 0121     		movs	r1, #1
 1161 0006 8B43     		bics	r3, r1
 1162 0008 1360     		str	r3, [r2]
 645:Drivers/STM32G0xx_HAL_Driver/Src/stm32g0xx_hal.c **** }
 1163              		.loc 1 645 1 is_stmt 0 view .LVU197
 1164              		@ sp needed
 1165 000a 7047     		bx	lr
 1166              	.L107:
 1167              		.align	2
 1168              	.L106:
 1169 000c 30000140 		.word	1073807408
 1170              		.cfi_endproc
 1171              	.LFE354:
 1173              		.section	.text.HAL_SYSCFG_EnableIOAnalogSwitchBooster,"ax",%progbits
ARM GAS  /tmp/cc0Fkdnx.s 			page 33


 1174              		.align	1
 1175              		.global	HAL_SYSCFG_EnableIOAnalogSwitchBooster
 1176              		.syntax unified
 1177              		.code	16
 1178              		.thumb_func
 1180              	HAL_SYSCFG_EnableIOAnalogSwitchBooster:
 1181              	.LFB355:
 646:Drivers/STM32G0xx_HAL_Driver/Src/stm32g0xx_hal.c **** #endif /* VREFBUF */
 647:Drivers/STM32G0xx_HAL_Driver/Src/stm32g0xx_hal.c **** 
 648:Drivers/STM32G0xx_HAL_Driver/Src/stm32g0xx_hal.c **** /**
 649:Drivers/STM32G0xx_HAL_Driver/Src/stm32g0xx_hal.c ****   * @brief  Enable the I/O analog switch voltage booster
 650:Drivers/STM32G0xx_HAL_Driver/Src/stm32g0xx_hal.c ****   * @retval None
 651:Drivers/STM32G0xx_HAL_Driver/Src/stm32g0xx_hal.c ****   */
 652:Drivers/STM32G0xx_HAL_Driver/Src/stm32g0xx_hal.c **** void HAL_SYSCFG_EnableIOAnalogSwitchBooster(void)
 653:Drivers/STM32G0xx_HAL_Driver/Src/stm32g0xx_hal.c **** {
 1182              		.loc 1 653 1 is_stmt 1 view -0
 1183              		.cfi_startproc
 1184              		@ args = 0, pretend = 0, frame = 0
 1185              		@ frame_needed = 0, uses_anonymous_args = 0
 1186              		@ link register save eliminated.
 654:Drivers/STM32G0xx_HAL_Driver/Src/stm32g0xx_hal.c ****   SET_BIT(SYSCFG->CFGR1, SYSCFG_CFGR1_BOOSTEN);
 1187              		.loc 1 654 3 view .LVU199
 1188 0000 034A     		ldr	r2, .L109
 1189 0002 1168     		ldr	r1, [r2]
 1190 0004 8023     		movs	r3, #128
 1191 0006 5B00     		lsls	r3, r3, #1
 1192 0008 0B43     		orrs	r3, r1
 1193 000a 1360     		str	r3, [r2]
 655:Drivers/STM32G0xx_HAL_Driver/Src/stm32g0xx_hal.c **** }
 1194              		.loc 1 655 1 is_stmt 0 view .LVU200
 1195              		@ sp needed
 1196 000c 7047     		bx	lr
 1197              	.L110:
 1198 000e C046     		.align	2
 1199              	.L109:
 1200 0010 00000140 		.word	1073807360
 1201              		.cfi_endproc
 1202              	.LFE355:
 1204              		.section	.text.HAL_SYSCFG_DisableIOAnalogSwitchBooster,"ax",%progbits
 1205              		.align	1
 1206              		.global	HAL_SYSCFG_DisableIOAnalogSwitchBooster
 1207              		.syntax unified
 1208              		.code	16
 1209              		.thumb_func
 1211              	HAL_SYSCFG_DisableIOAnalogSwitchBooster:
 1212              	.LFB356:
 656:Drivers/STM32G0xx_HAL_Driver/Src/stm32g0xx_hal.c **** 
 657:Drivers/STM32G0xx_HAL_Driver/Src/stm32g0xx_hal.c **** /**
 658:Drivers/STM32G0xx_HAL_Driver/Src/stm32g0xx_hal.c ****   * @brief  Disable the I/O analog switch voltage booster
 659:Drivers/STM32G0xx_HAL_Driver/Src/stm32g0xx_hal.c ****   * @retval None
 660:Drivers/STM32G0xx_HAL_Driver/Src/stm32g0xx_hal.c ****   */
 661:Drivers/STM32G0xx_HAL_Driver/Src/stm32g0xx_hal.c **** void HAL_SYSCFG_DisableIOAnalogSwitchBooster(void)
 662:Drivers/STM32G0xx_HAL_Driver/Src/stm32g0xx_hal.c **** {
 1213              		.loc 1 662 1 is_stmt 1 view -0
 1214              		.cfi_startproc
 1215              		@ args = 0, pretend = 0, frame = 0
 1216              		@ frame_needed = 0, uses_anonymous_args = 0
ARM GAS  /tmp/cc0Fkdnx.s 			page 34


 1217              		@ link register save eliminated.
 663:Drivers/STM32G0xx_HAL_Driver/Src/stm32g0xx_hal.c ****   CLEAR_BIT(SYSCFG->CFGR1, SYSCFG_CFGR1_BOOSTEN);
 1218              		.loc 1 663 3 view .LVU202
 1219 0000 024A     		ldr	r2, .L112
 1220 0002 1368     		ldr	r3, [r2]
 1221 0004 0249     		ldr	r1, .L112+4
 1222 0006 0B40     		ands	r3, r1
 1223 0008 1360     		str	r3, [r2]
 664:Drivers/STM32G0xx_HAL_Driver/Src/stm32g0xx_hal.c **** }
 1224              		.loc 1 664 1 is_stmt 0 view .LVU203
 1225              		@ sp needed
 1226 000a 7047     		bx	lr
 1227              	.L113:
 1228              		.align	2
 1229              	.L112:
 1230 000c 00000140 		.word	1073807360
 1231 0010 FFFEFFFF 		.word	-257
 1232              		.cfi_endproc
 1233              	.LFE356:
 1235              		.section	.text.HAL_SYSCFG_EnableRemap,"ax",%progbits
 1236              		.align	1
 1237              		.global	HAL_SYSCFG_EnableRemap
 1238              		.syntax unified
 1239              		.code	16
 1240              		.thumb_func
 1242              	HAL_SYSCFG_EnableRemap:
 1243              	.LVL55:
 1244              	.LFB357:
 665:Drivers/STM32G0xx_HAL_Driver/Src/stm32g0xx_hal.c **** 
 666:Drivers/STM32G0xx_HAL_Driver/Src/stm32g0xx_hal.c **** /**
 667:Drivers/STM32G0xx_HAL_Driver/Src/stm32g0xx_hal.c ****   * @brief  Enable the remap on PA11_PA12
 668:Drivers/STM32G0xx_HAL_Driver/Src/stm32g0xx_hal.c ****   * @param  PinRemap specifies which pins have to be remapped
 669:Drivers/STM32G0xx_HAL_Driver/Src/stm32g0xx_hal.c ****   *         This parameter can be any combination of the following values:
 670:Drivers/STM32G0xx_HAL_Driver/Src/stm32g0xx_hal.c ****   *         @arg @ref SYSCFG_REMAP_PA11
 671:Drivers/STM32G0xx_HAL_Driver/Src/stm32g0xx_hal.c ****   *         @arg @ref SYSCFG_REMAP_PA12
 672:Drivers/STM32G0xx_HAL_Driver/Src/stm32g0xx_hal.c ****   * @retval None
 673:Drivers/STM32G0xx_HAL_Driver/Src/stm32g0xx_hal.c ****   */
 674:Drivers/STM32G0xx_HAL_Driver/Src/stm32g0xx_hal.c **** void HAL_SYSCFG_EnableRemap(uint32_t PinRemap)
 675:Drivers/STM32G0xx_HAL_Driver/Src/stm32g0xx_hal.c **** {
 1245              		.loc 1 675 1 is_stmt 1 view -0
 1246              		.cfi_startproc
 1247              		@ args = 0, pretend = 0, frame = 0
 1248              		@ frame_needed = 0, uses_anonymous_args = 0
 1249              		.loc 1 675 1 is_stmt 0 view .LVU205
 1250 0000 10B5     		push	{r4, lr}
 1251              	.LCFI9:
 1252              		.cfi_def_cfa_offset 8
 1253              		.cfi_offset 4, -8
 1254              		.cfi_offset 14, -4
 1255 0002 0400     		movs	r4, r0
 676:Drivers/STM32G0xx_HAL_Driver/Src/stm32g0xx_hal.c ****   /* Check the parameter */
 677:Drivers/STM32G0xx_HAL_Driver/Src/stm32g0xx_hal.c ****   assert_param(IS_HAL_REMAP_PIN(PinRemap));
 1256              		.loc 1 677 3 is_stmt 1 view .LVU206
 1257 0004 0828     		cmp	r0, #8
 1258 0006 03D0     		beq	.L115
 1259              		.loc 1 677 3 is_stmt 0 discriminator 1 view .LVU207
 1260 0008 1028     		cmp	r0, #16
ARM GAS  /tmp/cc0Fkdnx.s 			page 35


 1261 000a 01D0     		beq	.L115
 1262              		.loc 1 677 3 discriminator 2 view .LVU208
 1263 000c 1828     		cmp	r0, #24
 1264 000e 04D1     		bne	.L116
 1265              	.LVL56:
 1266              	.L115:
 678:Drivers/STM32G0xx_HAL_Driver/Src/stm32g0xx_hal.c ****   SET_BIT(SYSCFG->CFGR1, PinRemap);
 1267              		.loc 1 678 3 is_stmt 1 view .LVU209
 1268 0010 044B     		ldr	r3, .L117
 1269 0012 1868     		ldr	r0, [r3]
 1270 0014 0443     		orrs	r4, r0
 1271              	.LVL57:
 1272              		.loc 1 678 3 is_stmt 0 view .LVU210
 1273 0016 1C60     		str	r4, [r3]
 679:Drivers/STM32G0xx_HAL_Driver/Src/stm32g0xx_hal.c **** }
 1274              		.loc 1 679 1 view .LVU211
 1275              		@ sp needed
 1276 0018 10BD     		pop	{r4, pc}
 1277              	.LVL58:
 1278              	.L116:
 677:Drivers/STM32G0xx_HAL_Driver/Src/stm32g0xx_hal.c ****   SET_BIT(SYSCFG->CFGR1, PinRemap);
 1279              		.loc 1 677 3 discriminator 3 view .LVU212
 1280 001a 0349     		ldr	r1, .L117+4
 1281 001c 0348     		ldr	r0, .L117+8
 1282              	.LVL59:
 677:Drivers/STM32G0xx_HAL_Driver/Src/stm32g0xx_hal.c ****   SET_BIT(SYSCFG->CFGR1, PinRemap);
 1283              		.loc 1 677 3 discriminator 3 view .LVU213
 1284 001e FFF7FEFF 		bl	assert_failed
 1285              	.LVL60:
 1286 0022 F5E7     		b	.L115
 1287              	.L118:
 1288              		.align	2
 1289              	.L117:
 1290 0024 00000140 		.word	1073807360
 1291 0028 A5020000 		.word	677
 1292 002c 00000000 		.word	.LC7
 1293              		.cfi_endproc
 1294              	.LFE357:
 1296              		.section	.text.HAL_SYSCFG_DisableRemap,"ax",%progbits
 1297              		.align	1
 1298              		.global	HAL_SYSCFG_DisableRemap
 1299              		.syntax unified
 1300              		.code	16
 1301              		.thumb_func
 1303              	HAL_SYSCFG_DisableRemap:
 1304              	.LVL61:
 1305              	.LFB358:
 680:Drivers/STM32G0xx_HAL_Driver/Src/stm32g0xx_hal.c **** 
 681:Drivers/STM32G0xx_HAL_Driver/Src/stm32g0xx_hal.c **** /**
 682:Drivers/STM32G0xx_HAL_Driver/Src/stm32g0xx_hal.c ****   * @brief  Disable the remap on PA11_PA12
 683:Drivers/STM32G0xx_HAL_Driver/Src/stm32g0xx_hal.c ****   * @param  PinRemap specifies which pins will behave normally
 684:Drivers/STM32G0xx_HAL_Driver/Src/stm32g0xx_hal.c ****   *         This parameter can be any combination of the following values:
 685:Drivers/STM32G0xx_HAL_Driver/Src/stm32g0xx_hal.c ****   *         @arg @ref SYSCFG_REMAP_PA11
 686:Drivers/STM32G0xx_HAL_Driver/Src/stm32g0xx_hal.c ****   *         @arg @ref SYSCFG_REMAP_PA12
 687:Drivers/STM32G0xx_HAL_Driver/Src/stm32g0xx_hal.c ****   * @retval None
 688:Drivers/STM32G0xx_HAL_Driver/Src/stm32g0xx_hal.c ****   */
 689:Drivers/STM32G0xx_HAL_Driver/Src/stm32g0xx_hal.c **** void HAL_SYSCFG_DisableRemap(uint32_t PinRemap)
ARM GAS  /tmp/cc0Fkdnx.s 			page 36


 690:Drivers/STM32G0xx_HAL_Driver/Src/stm32g0xx_hal.c **** {
 1306              		.loc 1 690 1 is_stmt 1 view -0
 1307              		.cfi_startproc
 1308              		@ args = 0, pretend = 0, frame = 0
 1309              		@ frame_needed = 0, uses_anonymous_args = 0
 1310              		.loc 1 690 1 is_stmt 0 view .LVU215
 1311 0000 10B5     		push	{r4, lr}
 1312              	.LCFI10:
 1313              		.cfi_def_cfa_offset 8
 1314              		.cfi_offset 4, -8
 1315              		.cfi_offset 14, -4
 1316 0002 0400     		movs	r4, r0
 691:Drivers/STM32G0xx_HAL_Driver/Src/stm32g0xx_hal.c ****   /* Check the parameter */
 692:Drivers/STM32G0xx_HAL_Driver/Src/stm32g0xx_hal.c ****   assert_param(IS_HAL_REMAP_PIN(PinRemap));
 1317              		.loc 1 692 3 is_stmt 1 view .LVU216
 1318 0004 0828     		cmp	r0, #8
 1319 0006 03D0     		beq	.L120
 1320              		.loc 1 692 3 is_stmt 0 discriminator 1 view .LVU217
 1321 0008 1028     		cmp	r0, #16
 1322 000a 01D0     		beq	.L120
 1323              		.loc 1 692 3 discriminator 2 view .LVU218
 1324 000c 1828     		cmp	r0, #24
 1325 000e 04D1     		bne	.L121
 1326              	.LVL62:
 1327              	.L120:
 693:Drivers/STM32G0xx_HAL_Driver/Src/stm32g0xx_hal.c ****   CLEAR_BIT(SYSCFG->CFGR1, PinRemap);
 1328              		.loc 1 693 3 is_stmt 1 view .LVU219
 1329 0010 054A     		ldr	r2, .L122
 1330 0012 1368     		ldr	r3, [r2]
 1331 0014 A343     		bics	r3, r4
 1332 0016 1360     		str	r3, [r2]
 694:Drivers/STM32G0xx_HAL_Driver/Src/stm32g0xx_hal.c **** }
 1333              		.loc 1 694 1 is_stmt 0 view .LVU220
 1334              		@ sp needed
 1335              	.LVL63:
 1336              		.loc 1 694 1 view .LVU221
 1337 0018 10BD     		pop	{r4, pc}
 1338              	.LVL64:
 1339              	.L121:
 692:Drivers/STM32G0xx_HAL_Driver/Src/stm32g0xx_hal.c ****   CLEAR_BIT(SYSCFG->CFGR1, PinRemap);
 1340              		.loc 1 692 3 discriminator 3 view .LVU222
 1341 001a AD21     		movs	r1, #173
 1342 001c 8900     		lsls	r1, r1, #2
 1343 001e 0348     		ldr	r0, .L122+4
 1344              	.LVL65:
 692:Drivers/STM32G0xx_HAL_Driver/Src/stm32g0xx_hal.c ****   CLEAR_BIT(SYSCFG->CFGR1, PinRemap);
 1345              		.loc 1 692 3 discriminator 3 view .LVU223
 1346 0020 FFF7FEFF 		bl	assert_failed
 1347              	.LVL66:
 1348 0024 F4E7     		b	.L120
 1349              	.L123:
 1350 0026 C046     		.align	2
 1351              	.L122:
 1352 0028 00000140 		.word	1073807360
 1353 002c 00000000 		.word	.LC7
 1354              		.cfi_endproc
 1355              	.LFE358:
ARM GAS  /tmp/cc0Fkdnx.s 			page 37


 1357              		.section	.text.HAL_SYSCFG_StrobeDBattpinsConfig,"ax",%progbits
 1358              		.align	1
 1359              		.global	HAL_SYSCFG_StrobeDBattpinsConfig
 1360              		.syntax unified
 1361              		.code	16
 1362              		.thumb_func
 1364              	HAL_SYSCFG_StrobeDBattpinsConfig:
 1365              	.LVL67:
 1366              	.LFB359:
 695:Drivers/STM32G0xx_HAL_Driver/Src/stm32g0xx_hal.c **** 
 696:Drivers/STM32G0xx_HAL_Driver/Src/stm32g0xx_hal.c **** #if defined(SYSCFG_CDEN_SUPPORT)
 697:Drivers/STM32G0xx_HAL_Driver/Src/stm32g0xx_hal.c **** /**
 698:Drivers/STM32G0xx_HAL_Driver/Src/stm32g0xx_hal.c ****   * @brief  Enable Clamping Diode on specified IO
 699:Drivers/STM32G0xx_HAL_Driver/Src/stm32g0xx_hal.c ****   * @param  PinConfig specifies on which pins clamping Diode has to be enabled
 700:Drivers/STM32G0xx_HAL_Driver/Src/stm32g0xx_hal.c ****   *         This parameter can be any combination of the following values:
 701:Drivers/STM32G0xx_HAL_Driver/Src/stm32g0xx_hal.c ****   *         @arg @ref SYSCFG_ClampingDiode
 702:Drivers/STM32G0xx_HAL_Driver/Src/stm32g0xx_hal.c ****   * @retval None
 703:Drivers/STM32G0xx_HAL_Driver/Src/stm32g0xx_hal.c ****   */
 704:Drivers/STM32G0xx_HAL_Driver/Src/stm32g0xx_hal.c **** void HAL_SYSCFG_EnableClampingDiode(uint32_t PinConfig)
 705:Drivers/STM32G0xx_HAL_Driver/Src/stm32g0xx_hal.c **** {
 706:Drivers/STM32G0xx_HAL_Driver/Src/stm32g0xx_hal.c ****   /* Check the parameter */
 707:Drivers/STM32G0xx_HAL_Driver/Src/stm32g0xx_hal.c ****   assert_param(IS_SYSCFG_CLAMPINGDIODE(PinConfig));
 708:Drivers/STM32G0xx_HAL_Driver/Src/stm32g0xx_hal.c ****   SET_BIT(SYSCFG->CFGR2, PinConfig);
 709:Drivers/STM32G0xx_HAL_Driver/Src/stm32g0xx_hal.c **** }
 710:Drivers/STM32G0xx_HAL_Driver/Src/stm32g0xx_hal.c **** 
 711:Drivers/STM32G0xx_HAL_Driver/Src/stm32g0xx_hal.c **** /**
 712:Drivers/STM32G0xx_HAL_Driver/Src/stm32g0xx_hal.c ****   * @brief  Disable Clamping Diode on specified IO
 713:Drivers/STM32G0xx_HAL_Driver/Src/stm32g0xx_hal.c ****   * @param  PinConfig specifies on which pins clamping Diode has to be disabled
 714:Drivers/STM32G0xx_HAL_Driver/Src/stm32g0xx_hal.c ****   *         This parameter can be any combination of the following values:
 715:Drivers/STM32G0xx_HAL_Driver/Src/stm32g0xx_hal.c ****   *         @arg @ref SYSCFG_ClampingDiode
 716:Drivers/STM32G0xx_HAL_Driver/Src/stm32g0xx_hal.c ****   * @retval None
 717:Drivers/STM32G0xx_HAL_Driver/Src/stm32g0xx_hal.c ****   */
 718:Drivers/STM32G0xx_HAL_Driver/Src/stm32g0xx_hal.c **** void HAL_SYSCFG_DisableClampingDiode(uint32_t PinConfig)
 719:Drivers/STM32G0xx_HAL_Driver/Src/stm32g0xx_hal.c **** {
 720:Drivers/STM32G0xx_HAL_Driver/Src/stm32g0xx_hal.c ****   /* Check the parameter */
 721:Drivers/STM32G0xx_HAL_Driver/Src/stm32g0xx_hal.c ****   assert_param(IS_SYSCFG_CLAMPINGDIODE(PinConfig));
 722:Drivers/STM32G0xx_HAL_Driver/Src/stm32g0xx_hal.c ****   CLEAR_BIT(SYSCFG->CFGR2, PinConfig);
 723:Drivers/STM32G0xx_HAL_Driver/Src/stm32g0xx_hal.c **** }
 724:Drivers/STM32G0xx_HAL_Driver/Src/stm32g0xx_hal.c **** #endif /* SYSCFG_CDEN_SUPPORT */
 725:Drivers/STM32G0xx_HAL_Driver/Src/stm32g0xx_hal.c **** 
 726:Drivers/STM32G0xx_HAL_Driver/Src/stm32g0xx_hal.c **** #if defined (SYSCFG_CFGR1_UCPD1_STROBE) || defined (SYSCFG_CFGR1_UCPD2_STROBE)
 727:Drivers/STM32G0xx_HAL_Driver/Src/stm32g0xx_hal.c **** /**
 728:Drivers/STM32G0xx_HAL_Driver/Src/stm32g0xx_hal.c ****   * @brief  Strobe configuration of GPIO depending on UCPDx dead battery settings
 729:Drivers/STM32G0xx_HAL_Driver/Src/stm32g0xx_hal.c ****   * @param  ConfigDeadBattery specifies on which pins to make effective or not Dead Battery sw conf
 730:Drivers/STM32G0xx_HAL_Driver/Src/stm32g0xx_hal.c ****   *         This parameter can be any combination of the following values:
 731:Drivers/STM32G0xx_HAL_Driver/Src/stm32g0xx_hal.c ****   *         @arg @ref SYSCFG_UCPD1_STROBE
 732:Drivers/STM32G0xx_HAL_Driver/Src/stm32g0xx_hal.c ****   *         @arg @ref SYSCFG_UCPD2_STROBE
 733:Drivers/STM32G0xx_HAL_Driver/Src/stm32g0xx_hal.c ****   * @retval None
 734:Drivers/STM32G0xx_HAL_Driver/Src/stm32g0xx_hal.c ****   */
 735:Drivers/STM32G0xx_HAL_Driver/Src/stm32g0xx_hal.c **** void HAL_SYSCFG_StrobeDBattpinsConfig(uint32_t ConfigDeadBattery)
 736:Drivers/STM32G0xx_HAL_Driver/Src/stm32g0xx_hal.c **** {
 1367              		.loc 1 736 1 is_stmt 1 view -0
 1368              		.cfi_startproc
 1369              		@ args = 0, pretend = 0, frame = 0
 1370              		@ frame_needed = 0, uses_anonymous_args = 0
 1371              		.loc 1 736 1 is_stmt 0 view .LVU225
 1372 0000 10B5     		push	{r4, lr}
ARM GAS  /tmp/cc0Fkdnx.s 			page 38


 1373              	.LCFI11:
 1374              		.cfi_def_cfa_offset 8
 1375              		.cfi_offset 4, -8
 1376              		.cfi_offset 14, -4
 1377 0002 0400     		movs	r4, r0
 737:Drivers/STM32G0xx_HAL_Driver/Src/stm32g0xx_hal.c ****   assert_param(IS_SYSCFG_DBATT_CONFIG(ConfigDeadBattery));
 1378              		.loc 1 737 3 is_stmt 1 view .LVU226
 1379 0004 8023     		movs	r3, #128
 1380 0006 9B00     		lsls	r3, r3, #2
 1381 0008 9842     		cmp	r0, r3
 1382 000a 07D0     		beq	.L125
 1383              		.loc 1 737 3 is_stmt 0 discriminator 1 view .LVU227
 1384 000c 8023     		movs	r3, #128
 1385 000e DB00     		lsls	r3, r3, #3
 1386 0010 9842     		cmp	r0, r3
 1387 0012 03D0     		beq	.L125
 1388              		.loc 1 737 3 discriminator 2 view .LVU228
 1389 0014 C023     		movs	r3, #192
 1390 0016 DB00     		lsls	r3, r3, #3
 1391 0018 9842     		cmp	r0, r3
 1392 001a 06D1     		bne	.L126
 1393              	.LVL68:
 1394              	.L125:
 738:Drivers/STM32G0xx_HAL_Driver/Src/stm32g0xx_hal.c **** 
 739:Drivers/STM32G0xx_HAL_Driver/Src/stm32g0xx_hal.c ****   /* Change strobe configuration of GPIO depending on UCPDx dead battery settings */
 740:Drivers/STM32G0xx_HAL_Driver/Src/stm32g0xx_hal.c ****   MODIFY_REG(SYSCFG->CFGR1, (SYSCFG_CFGR1_UCPD1_STROBE | SYSCFG_CFGR1_UCPD2_STROBE), ConfigDeadBatt
 1395              		.loc 1 740 3 is_stmt 1 view .LVU229
 1396 001c 054B     		ldr	r3, .L127
 1397 001e 1868     		ldr	r0, [r3]
 1398 0020 054A     		ldr	r2, .L127+4
 1399 0022 1040     		ands	r0, r2
 1400 0024 0443     		orrs	r4, r0
 1401              	.LVL69:
 1402              		.loc 1 740 3 is_stmt 0 view .LVU230
 1403 0026 1C60     		str	r4, [r3]
 741:Drivers/STM32G0xx_HAL_Driver/Src/stm32g0xx_hal.c **** }
 1404              		.loc 1 741 1 view .LVU231
 1405              		@ sp needed
 1406 0028 10BD     		pop	{r4, pc}
 1407              	.LVL70:
 1408              	.L126:
 737:Drivers/STM32G0xx_HAL_Driver/Src/stm32g0xx_hal.c ****   assert_param(IS_SYSCFG_DBATT_CONFIG(ConfigDeadBattery));
 1409              		.loc 1 737 3 discriminator 3 view .LVU232
 1410 002a 0449     		ldr	r1, .L127+8
 1411 002c 0448     		ldr	r0, .L127+12
 1412              	.LVL71:
 737:Drivers/STM32G0xx_HAL_Driver/Src/stm32g0xx_hal.c ****   assert_param(IS_SYSCFG_DBATT_CONFIG(ConfigDeadBattery));
 1413              		.loc 1 737 3 discriminator 3 view .LVU233
 1414 002e FFF7FEFF 		bl	assert_failed
 1415              	.LVL72:
 1416 0032 F3E7     		b	.L125
 1417              	.L128:
 1418              		.align	2
 1419              	.L127:
 1420 0034 00000140 		.word	1073807360
 1421 0038 FFF9FFFF 		.word	-1537
 1422 003c E1020000 		.word	737
ARM GAS  /tmp/cc0Fkdnx.s 			page 39


 1423 0040 00000000 		.word	.LC7
 1424              		.cfi_endproc
 1425              	.LFE359:
 1427              		.global	uwTickFreq
 1428              		.global	uwTickPrio
 1429              		.global	uwTick
 1430              		.section	.bss.uwTick,"aw",%nobits
 1431              		.align	2
 1432              		.set	.LANCHOR2,. + 0
 1435              	uwTick:
 1436 0000 00000000 		.space	4
 1437              		.section	.data.uwTickFreq,"aw"
 1438              		.set	.LANCHOR0,. + 0
 1441              	uwTickFreq:
 1442 0000 01       		.byte	1
 1443              		.section	.data.uwTickPrio,"aw"
 1444              		.align	2
 1445              		.set	.LANCHOR1,. + 0
 1448              	uwTickPrio:
 1449 0000 04000000 		.word	4
 1450              		.text
 1451              	.Letext0:
 1452              		.file 2 "/home/yiyu/gcc-arm-none-eabi-10.3-2021.10/arm-none-eabi/include/machine/_default_types.h"
 1453              		.file 3 "/home/yiyu/gcc-arm-none-eabi-10.3-2021.10/arm-none-eabi/include/sys/_stdint.h"
 1454              		.file 4 "Drivers/CMSIS/Include/core_cm0plus.h"
 1455              		.file 5 "Drivers/CMSIS/Device/ST/STM32G0xx/Include/stm32g071xx.h"
 1456              		.file 6 "Drivers/STM32G0xx_HAL_Driver/Inc/stm32g0xx_hal_def.h"
 1457              		.file 7 "Drivers/STM32G0xx_HAL_Driver/Inc/stm32g0xx_hal.h"
 1458              		.file 8 "Drivers/CMSIS/Device/ST/STM32G0xx/Include/system_stm32g0xx.h"
 1459              		.file 9 "Core/Inc/stm32g0xx_hal_conf.h"
 1460              		.file 10 "Drivers/STM32G0xx_HAL_Driver/Inc/stm32g0xx_hal_cortex.h"
 1461              		.file 11 "Drivers/STM32G0xx_HAL_Driver/Inc/stm32g0xx_ll_dma.h"
ARM GAS  /tmp/cc0Fkdnx.s 			page 40

