ARM GAS  /tmp/cctW9zGP.s 			page 1


   1              		.cpu cortex-m0plus
   2              		.arch armv6s-m
   3              		.fpu softvfp
   4              		.eabi_attribute 20, 1
   5              		.eabi_attribute 21, 1
   6              		.eabi_attribute 23, 3
   7              		.eabi_attribute 24, 1
   8              		.eabi_attribute 25, 1
   9              		.eabi_attribute 26, 1
  10              		.eabi_attribute 30, 1
  11              		.eabi_attribute 34, 0
  12              		.eabi_attribute 18, 4
  13              		.file	"stream_buffer.c"
  14              		.text
  15              	.Ltext0:
  16              		.cfi_sections	.debug_frame
  17              		.section	.text.prvBytesInBuffer,"ax",%progbits
  18              		.align	1
  19              		.syntax unified
  20              		.code	16
  21              		.thumb_func
  23              	prvBytesInBuffer:
  24              	.LVL0:
  25              	.LFB19:
  26              		.file 1 "Middlewares/Third_Party/FreeRTOS/Source/stream_buffer.c"
   1:Middlewares/Third_Party/FreeRTOS/Source/stream_buffer.c **** /*
   2:Middlewares/Third_Party/FreeRTOS/Source/stream_buffer.c ****  * FreeRTOS Kernel V10.3.1
   3:Middlewares/Third_Party/FreeRTOS/Source/stream_buffer.c ****  * Copyright (C) 2020 Amazon.com, Inc. or its affiliates.  All Rights Reserved.
   4:Middlewares/Third_Party/FreeRTOS/Source/stream_buffer.c ****  *
   5:Middlewares/Third_Party/FreeRTOS/Source/stream_buffer.c ****  * Permission is hereby granted, free of charge, to any person obtaining a copy of
   6:Middlewares/Third_Party/FreeRTOS/Source/stream_buffer.c ****  * this software and associated documentation files (the "Software"), to deal in
   7:Middlewares/Third_Party/FreeRTOS/Source/stream_buffer.c ****  * the Software without restriction, including without limitation the rights to
   8:Middlewares/Third_Party/FreeRTOS/Source/stream_buffer.c ****  * use, copy, modify, merge, publish, distribute, sublicense, and/or sell copies of
   9:Middlewares/Third_Party/FreeRTOS/Source/stream_buffer.c ****  * the Software, and to permit persons to whom the Software is furnished to do so,
  10:Middlewares/Third_Party/FreeRTOS/Source/stream_buffer.c ****  * subject to the following conditions:
  11:Middlewares/Third_Party/FreeRTOS/Source/stream_buffer.c ****  *
  12:Middlewares/Third_Party/FreeRTOS/Source/stream_buffer.c ****  * The above copyright notice and this permission notice shall be included in all
  13:Middlewares/Third_Party/FreeRTOS/Source/stream_buffer.c ****  * copies or substantial portions of the Software.
  14:Middlewares/Third_Party/FreeRTOS/Source/stream_buffer.c ****  *
  15:Middlewares/Third_Party/FreeRTOS/Source/stream_buffer.c ****  * THE SOFTWARE IS PROVIDED "AS IS", WITHOUT WARRANTY OF ANY KIND, EXPRESS OR
  16:Middlewares/Third_Party/FreeRTOS/Source/stream_buffer.c ****  * IMPLIED, INCLUDING BUT NOT LIMITED TO THE WARRANTIES OF MERCHANTABILITY, FITNESS
  17:Middlewares/Third_Party/FreeRTOS/Source/stream_buffer.c ****  * FOR A PARTICULAR PURPOSE AND NONINFRINGEMENT. IN NO EVENT SHALL THE AUTHORS OR
  18:Middlewares/Third_Party/FreeRTOS/Source/stream_buffer.c ****  * COPYRIGHT HOLDERS BE LIABLE FOR ANY CLAIM, DAMAGES OR OTHER LIABILITY, WHETHER
  19:Middlewares/Third_Party/FreeRTOS/Source/stream_buffer.c ****  * IN AN ACTION OF CONTRACT, TORT OR OTHERWISE, ARISING FROM, OUT OF OR IN
  20:Middlewares/Third_Party/FreeRTOS/Source/stream_buffer.c ****  * CONNECTION WITH THE SOFTWARE OR THE USE OR OTHER DEALINGS IN THE SOFTWARE.
  21:Middlewares/Third_Party/FreeRTOS/Source/stream_buffer.c ****  *
  22:Middlewares/Third_Party/FreeRTOS/Source/stream_buffer.c ****  * http://www.FreeRTOS.org
  23:Middlewares/Third_Party/FreeRTOS/Source/stream_buffer.c ****  * http://aws.amazon.com/freertos
  24:Middlewares/Third_Party/FreeRTOS/Source/stream_buffer.c ****  *
  25:Middlewares/Third_Party/FreeRTOS/Source/stream_buffer.c ****  * 1 tab == 4 spaces!
  26:Middlewares/Third_Party/FreeRTOS/Source/stream_buffer.c ****  */
  27:Middlewares/Third_Party/FreeRTOS/Source/stream_buffer.c **** 
  28:Middlewares/Third_Party/FreeRTOS/Source/stream_buffer.c **** /* Standard includes. */
  29:Middlewares/Third_Party/FreeRTOS/Source/stream_buffer.c **** #include <stdint.h>
  30:Middlewares/Third_Party/FreeRTOS/Source/stream_buffer.c **** #include <string.h>
  31:Middlewares/Third_Party/FreeRTOS/Source/stream_buffer.c **** 
  32:Middlewares/Third_Party/FreeRTOS/Source/stream_buffer.c **** /* Defining MPU_WRAPPERS_INCLUDED_FROM_API_FILE prevents task.h from redefining
ARM GAS  /tmp/cctW9zGP.s 			page 2


  33:Middlewares/Third_Party/FreeRTOS/Source/stream_buffer.c **** all the API functions to use the MPU wrappers.  That should only be done when
  34:Middlewares/Third_Party/FreeRTOS/Source/stream_buffer.c **** task.h is included from an application file. */
  35:Middlewares/Third_Party/FreeRTOS/Source/stream_buffer.c **** #define MPU_WRAPPERS_INCLUDED_FROM_API_FILE
  36:Middlewares/Third_Party/FreeRTOS/Source/stream_buffer.c **** 
  37:Middlewares/Third_Party/FreeRTOS/Source/stream_buffer.c **** /* FreeRTOS includes. */
  38:Middlewares/Third_Party/FreeRTOS/Source/stream_buffer.c **** #include "FreeRTOS.h"
  39:Middlewares/Third_Party/FreeRTOS/Source/stream_buffer.c **** #include "task.h"
  40:Middlewares/Third_Party/FreeRTOS/Source/stream_buffer.c **** #include "stream_buffer.h"
  41:Middlewares/Third_Party/FreeRTOS/Source/stream_buffer.c **** 
  42:Middlewares/Third_Party/FreeRTOS/Source/stream_buffer.c **** #if( configUSE_TASK_NOTIFICATIONS != 1 )
  43:Middlewares/Third_Party/FreeRTOS/Source/stream_buffer.c **** 	#error configUSE_TASK_NOTIFICATIONS must be set to 1 to build stream_buffer.c
  44:Middlewares/Third_Party/FreeRTOS/Source/stream_buffer.c **** #endif
  45:Middlewares/Third_Party/FreeRTOS/Source/stream_buffer.c **** 
  46:Middlewares/Third_Party/FreeRTOS/Source/stream_buffer.c **** /* Lint e961, e9021 and e750 are suppressed as a MISRA exception justified
  47:Middlewares/Third_Party/FreeRTOS/Source/stream_buffer.c **** because the MPU ports require MPU_WRAPPERS_INCLUDED_FROM_API_FILE to be defined
  48:Middlewares/Third_Party/FreeRTOS/Source/stream_buffer.c **** for the header files above, but not in this file, in order to generate the
  49:Middlewares/Third_Party/FreeRTOS/Source/stream_buffer.c **** correct privileged Vs unprivileged linkage and placement. */
  50:Middlewares/Third_Party/FreeRTOS/Source/stream_buffer.c **** #undef MPU_WRAPPERS_INCLUDED_FROM_API_FILE /*lint !e961 !e750 !e9021. */
  51:Middlewares/Third_Party/FreeRTOS/Source/stream_buffer.c **** 
  52:Middlewares/Third_Party/FreeRTOS/Source/stream_buffer.c **** /* If the user has not provided application specific Rx notification macros,
  53:Middlewares/Third_Party/FreeRTOS/Source/stream_buffer.c **** or #defined the notification macros away, them provide default implementations
  54:Middlewares/Third_Party/FreeRTOS/Source/stream_buffer.c **** that uses task notifications. */
  55:Middlewares/Third_Party/FreeRTOS/Source/stream_buffer.c **** /*lint -save -e9026 Function like macros allowed and needed here so they can be overidden. */
  56:Middlewares/Third_Party/FreeRTOS/Source/stream_buffer.c **** #ifndef sbRECEIVE_COMPLETED
  57:Middlewares/Third_Party/FreeRTOS/Source/stream_buffer.c **** 	#define sbRECEIVE_COMPLETED( pxStreamBuffer )										\
  58:Middlewares/Third_Party/FreeRTOS/Source/stream_buffer.c **** 		vTaskSuspendAll();																\
  59:Middlewares/Third_Party/FreeRTOS/Source/stream_buffer.c **** 		{																				\
  60:Middlewares/Third_Party/FreeRTOS/Source/stream_buffer.c **** 			if( ( pxStreamBuffer )->xTaskWaitingToSend != NULL )						\
  61:Middlewares/Third_Party/FreeRTOS/Source/stream_buffer.c **** 			{																			\
  62:Middlewares/Third_Party/FreeRTOS/Source/stream_buffer.c **** 				( void ) xTaskNotify( ( pxStreamBuffer )->xTaskWaitingToSend,			\
  63:Middlewares/Third_Party/FreeRTOS/Source/stream_buffer.c **** 									  ( uint32_t ) 0,									\
  64:Middlewares/Third_Party/FreeRTOS/Source/stream_buffer.c **** 									  eNoAction );										\
  65:Middlewares/Third_Party/FreeRTOS/Source/stream_buffer.c **** 				( pxStreamBuffer )->xTaskWaitingToSend = NULL;							\
  66:Middlewares/Third_Party/FreeRTOS/Source/stream_buffer.c **** 			}																			\
  67:Middlewares/Third_Party/FreeRTOS/Source/stream_buffer.c **** 		}																				\
  68:Middlewares/Third_Party/FreeRTOS/Source/stream_buffer.c **** 		( void ) xTaskResumeAll();
  69:Middlewares/Third_Party/FreeRTOS/Source/stream_buffer.c **** #endif /* sbRECEIVE_COMPLETED */
  70:Middlewares/Third_Party/FreeRTOS/Source/stream_buffer.c **** 
  71:Middlewares/Third_Party/FreeRTOS/Source/stream_buffer.c **** #ifndef sbRECEIVE_COMPLETED_FROM_ISR
  72:Middlewares/Third_Party/FreeRTOS/Source/stream_buffer.c **** 	#define sbRECEIVE_COMPLETED_FROM_ISR( pxStreamBuffer,								\
  73:Middlewares/Third_Party/FreeRTOS/Source/stream_buffer.c **** 										  pxHigherPriorityTaskWoken )					\
  74:Middlewares/Third_Party/FreeRTOS/Source/stream_buffer.c **** 	{																					\
  75:Middlewares/Third_Party/FreeRTOS/Source/stream_buffer.c **** 	UBaseType_t uxSavedInterruptStatus;													\
  76:Middlewares/Third_Party/FreeRTOS/Source/stream_buffer.c **** 																						\
  77:Middlewares/Third_Party/FreeRTOS/Source/stream_buffer.c **** 		uxSavedInterruptStatus = ( UBaseType_t ) portSET_INTERRUPT_MASK_FROM_ISR();		\
  78:Middlewares/Third_Party/FreeRTOS/Source/stream_buffer.c **** 		{																				\
  79:Middlewares/Third_Party/FreeRTOS/Source/stream_buffer.c **** 			if( ( pxStreamBuffer )->xTaskWaitingToSend != NULL )						\
  80:Middlewares/Third_Party/FreeRTOS/Source/stream_buffer.c **** 			{																			\
  81:Middlewares/Third_Party/FreeRTOS/Source/stream_buffer.c **** 				( void ) xTaskNotifyFromISR( ( pxStreamBuffer )->xTaskWaitingToSend,	\
  82:Middlewares/Third_Party/FreeRTOS/Source/stream_buffer.c **** 											 ( uint32_t ) 0,							\
  83:Middlewares/Third_Party/FreeRTOS/Source/stream_buffer.c **** 											 eNoAction,									\
  84:Middlewares/Third_Party/FreeRTOS/Source/stream_buffer.c **** 											 pxHigherPriorityTaskWoken );				\
  85:Middlewares/Third_Party/FreeRTOS/Source/stream_buffer.c **** 				( pxStreamBuffer )->xTaskWaitingToSend = NULL;							\
  86:Middlewares/Third_Party/FreeRTOS/Source/stream_buffer.c **** 			}																			\
  87:Middlewares/Third_Party/FreeRTOS/Source/stream_buffer.c **** 		}																				\
  88:Middlewares/Third_Party/FreeRTOS/Source/stream_buffer.c **** 		portCLEAR_INTERRUPT_MASK_FROM_ISR( uxSavedInterruptStatus );					\
  89:Middlewares/Third_Party/FreeRTOS/Source/stream_buffer.c **** 	}
ARM GAS  /tmp/cctW9zGP.s 			page 3


  90:Middlewares/Third_Party/FreeRTOS/Source/stream_buffer.c **** #endif /* sbRECEIVE_COMPLETED_FROM_ISR */
  91:Middlewares/Third_Party/FreeRTOS/Source/stream_buffer.c **** 
  92:Middlewares/Third_Party/FreeRTOS/Source/stream_buffer.c **** /* If the user has not provided an application specific Tx notification macro,
  93:Middlewares/Third_Party/FreeRTOS/Source/stream_buffer.c **** or #defined the notification macro away, them provide a default implementation
  94:Middlewares/Third_Party/FreeRTOS/Source/stream_buffer.c **** that uses task notifications. */
  95:Middlewares/Third_Party/FreeRTOS/Source/stream_buffer.c **** #ifndef sbSEND_COMPLETED
  96:Middlewares/Third_Party/FreeRTOS/Source/stream_buffer.c **** 	#define sbSEND_COMPLETED( pxStreamBuffer )											\
  97:Middlewares/Third_Party/FreeRTOS/Source/stream_buffer.c **** 		vTaskSuspendAll();																\
  98:Middlewares/Third_Party/FreeRTOS/Source/stream_buffer.c **** 		{																				\
  99:Middlewares/Third_Party/FreeRTOS/Source/stream_buffer.c **** 			if( ( pxStreamBuffer )->xTaskWaitingToReceive != NULL )						\
 100:Middlewares/Third_Party/FreeRTOS/Source/stream_buffer.c **** 			{																			\
 101:Middlewares/Third_Party/FreeRTOS/Source/stream_buffer.c **** 				( void ) xTaskNotify( ( pxStreamBuffer )->xTaskWaitingToReceive,		\
 102:Middlewares/Third_Party/FreeRTOS/Source/stream_buffer.c **** 									  ( uint32_t ) 0,									\
 103:Middlewares/Third_Party/FreeRTOS/Source/stream_buffer.c **** 									  eNoAction );										\
 104:Middlewares/Third_Party/FreeRTOS/Source/stream_buffer.c **** 				( pxStreamBuffer )->xTaskWaitingToReceive = NULL;						\
 105:Middlewares/Third_Party/FreeRTOS/Source/stream_buffer.c **** 			}																			\
 106:Middlewares/Third_Party/FreeRTOS/Source/stream_buffer.c **** 		}																				\
 107:Middlewares/Third_Party/FreeRTOS/Source/stream_buffer.c **** 		( void ) xTaskResumeAll();
 108:Middlewares/Third_Party/FreeRTOS/Source/stream_buffer.c **** #endif /* sbSEND_COMPLETED */
 109:Middlewares/Third_Party/FreeRTOS/Source/stream_buffer.c **** 
 110:Middlewares/Third_Party/FreeRTOS/Source/stream_buffer.c **** #ifndef sbSEND_COMPLETE_FROM_ISR
 111:Middlewares/Third_Party/FreeRTOS/Source/stream_buffer.c **** 	#define sbSEND_COMPLETE_FROM_ISR( pxStreamBuffer, pxHigherPriorityTaskWoken )		\
 112:Middlewares/Third_Party/FreeRTOS/Source/stream_buffer.c **** 	{																					\
 113:Middlewares/Third_Party/FreeRTOS/Source/stream_buffer.c **** 	UBaseType_t uxSavedInterruptStatus;													\
 114:Middlewares/Third_Party/FreeRTOS/Source/stream_buffer.c **** 																						\
 115:Middlewares/Third_Party/FreeRTOS/Source/stream_buffer.c **** 		uxSavedInterruptStatus = ( UBaseType_t ) portSET_INTERRUPT_MASK_FROM_ISR();		\
 116:Middlewares/Third_Party/FreeRTOS/Source/stream_buffer.c **** 		{																				\
 117:Middlewares/Third_Party/FreeRTOS/Source/stream_buffer.c **** 			if( ( pxStreamBuffer )->xTaskWaitingToReceive != NULL )						\
 118:Middlewares/Third_Party/FreeRTOS/Source/stream_buffer.c **** 			{																			\
 119:Middlewares/Third_Party/FreeRTOS/Source/stream_buffer.c **** 				( void ) xTaskNotifyFromISR( ( pxStreamBuffer )->xTaskWaitingToReceive,	\
 120:Middlewares/Third_Party/FreeRTOS/Source/stream_buffer.c **** 											 ( uint32_t ) 0,							\
 121:Middlewares/Third_Party/FreeRTOS/Source/stream_buffer.c **** 											 eNoAction,									\
 122:Middlewares/Third_Party/FreeRTOS/Source/stream_buffer.c **** 											 pxHigherPriorityTaskWoken );				\
 123:Middlewares/Third_Party/FreeRTOS/Source/stream_buffer.c **** 				( pxStreamBuffer )->xTaskWaitingToReceive = NULL;						\
 124:Middlewares/Third_Party/FreeRTOS/Source/stream_buffer.c **** 			}																			\
 125:Middlewares/Third_Party/FreeRTOS/Source/stream_buffer.c **** 		}																				\
 126:Middlewares/Third_Party/FreeRTOS/Source/stream_buffer.c **** 		portCLEAR_INTERRUPT_MASK_FROM_ISR( uxSavedInterruptStatus );					\
 127:Middlewares/Third_Party/FreeRTOS/Source/stream_buffer.c **** 	}
 128:Middlewares/Third_Party/FreeRTOS/Source/stream_buffer.c **** #endif /* sbSEND_COMPLETE_FROM_ISR */
 129:Middlewares/Third_Party/FreeRTOS/Source/stream_buffer.c **** /*lint -restore (9026) */
 130:Middlewares/Third_Party/FreeRTOS/Source/stream_buffer.c **** 
 131:Middlewares/Third_Party/FreeRTOS/Source/stream_buffer.c **** /* The number of bytes used to hold the length of a message in the buffer. */
 132:Middlewares/Third_Party/FreeRTOS/Source/stream_buffer.c **** #define sbBYTES_TO_STORE_MESSAGE_LENGTH ( sizeof( configMESSAGE_BUFFER_LENGTH_TYPE ) )
 133:Middlewares/Third_Party/FreeRTOS/Source/stream_buffer.c **** 
 134:Middlewares/Third_Party/FreeRTOS/Source/stream_buffer.c **** /* Bits stored in the ucFlags field of the stream buffer. */
 135:Middlewares/Third_Party/FreeRTOS/Source/stream_buffer.c **** #define sbFLAGS_IS_MESSAGE_BUFFER		( ( uint8_t ) 1 ) /* Set if the stream buffer was created as a m
 136:Middlewares/Third_Party/FreeRTOS/Source/stream_buffer.c **** #define sbFLAGS_IS_STATICALLY_ALLOCATED ( ( uint8_t ) 2 ) /* Set if the stream buffer was created u
 137:Middlewares/Third_Party/FreeRTOS/Source/stream_buffer.c **** 
 138:Middlewares/Third_Party/FreeRTOS/Source/stream_buffer.c **** /*-----------------------------------------------------------*/
 139:Middlewares/Third_Party/FreeRTOS/Source/stream_buffer.c **** 
 140:Middlewares/Third_Party/FreeRTOS/Source/stream_buffer.c **** /* Structure that hold state information on the buffer. */
 141:Middlewares/Third_Party/FreeRTOS/Source/stream_buffer.c **** typedef struct StreamBufferDef_t /*lint !e9058 Style convention uses tag. */
 142:Middlewares/Third_Party/FreeRTOS/Source/stream_buffer.c **** {
 143:Middlewares/Third_Party/FreeRTOS/Source/stream_buffer.c **** 	volatile size_t xTail;				/* Index to the next item to read within the buffer. */
 144:Middlewares/Third_Party/FreeRTOS/Source/stream_buffer.c **** 	volatile size_t xHead;				/* Index to the next item to write within the buffer. */
 145:Middlewares/Third_Party/FreeRTOS/Source/stream_buffer.c **** 	size_t xLength;						/* The length of the buffer pointed to by pucBuffer. */
 146:Middlewares/Third_Party/FreeRTOS/Source/stream_buffer.c **** 	size_t xTriggerLevelBytes;			/* The number of bytes that must be in the stream buffer before a tas
ARM GAS  /tmp/cctW9zGP.s 			page 4


 147:Middlewares/Third_Party/FreeRTOS/Source/stream_buffer.c **** 	volatile TaskHandle_t xTaskWaitingToReceive; /* Holds the handle of a task waiting for data, or NU
 148:Middlewares/Third_Party/FreeRTOS/Source/stream_buffer.c **** 	volatile TaskHandle_t xTaskWaitingToSend;	/* Holds the handle of a task waiting to send data to a 
 149:Middlewares/Third_Party/FreeRTOS/Source/stream_buffer.c **** 	uint8_t *pucBuffer;					/* Points to the buffer itself - that is - the RAM that stores the data pa
 150:Middlewares/Third_Party/FreeRTOS/Source/stream_buffer.c **** 	uint8_t ucFlags;
 151:Middlewares/Third_Party/FreeRTOS/Source/stream_buffer.c **** 
 152:Middlewares/Third_Party/FreeRTOS/Source/stream_buffer.c **** 	#if ( configUSE_TRACE_FACILITY == 1 )
 153:Middlewares/Third_Party/FreeRTOS/Source/stream_buffer.c **** 		UBaseType_t uxStreamBufferNumber;		/* Used for tracing purposes. */
 154:Middlewares/Third_Party/FreeRTOS/Source/stream_buffer.c **** 	#endif
 155:Middlewares/Third_Party/FreeRTOS/Source/stream_buffer.c **** } StreamBuffer_t;
 156:Middlewares/Third_Party/FreeRTOS/Source/stream_buffer.c **** 
 157:Middlewares/Third_Party/FreeRTOS/Source/stream_buffer.c **** /*
 158:Middlewares/Third_Party/FreeRTOS/Source/stream_buffer.c ****  * The number of bytes available to be read from the buffer.
 159:Middlewares/Third_Party/FreeRTOS/Source/stream_buffer.c ****  */
 160:Middlewares/Third_Party/FreeRTOS/Source/stream_buffer.c **** static size_t prvBytesInBuffer( const StreamBuffer_t * const pxStreamBuffer ) PRIVILEGED_FUNCTION;
 161:Middlewares/Third_Party/FreeRTOS/Source/stream_buffer.c **** 
 162:Middlewares/Third_Party/FreeRTOS/Source/stream_buffer.c **** /*
 163:Middlewares/Third_Party/FreeRTOS/Source/stream_buffer.c ****  * Add xCount bytes from pucData into the pxStreamBuffer message buffer.
 164:Middlewares/Third_Party/FreeRTOS/Source/stream_buffer.c ****  * Returns the number of bytes written, which will either equal xCount in the
 165:Middlewares/Third_Party/FreeRTOS/Source/stream_buffer.c ****  * success case, or 0 if there was not enough space in the buffer (in which case
 166:Middlewares/Third_Party/FreeRTOS/Source/stream_buffer.c ****  * no data is written into the buffer).
 167:Middlewares/Third_Party/FreeRTOS/Source/stream_buffer.c ****  */
 168:Middlewares/Third_Party/FreeRTOS/Source/stream_buffer.c **** static size_t prvWriteBytesToBuffer( StreamBuffer_t * const pxStreamBuffer, const uint8_t *pucData,
 169:Middlewares/Third_Party/FreeRTOS/Source/stream_buffer.c **** 
 170:Middlewares/Third_Party/FreeRTOS/Source/stream_buffer.c **** /*
 171:Middlewares/Third_Party/FreeRTOS/Source/stream_buffer.c ****  * If the stream buffer is being used as a message buffer, then reads an entire
 172:Middlewares/Third_Party/FreeRTOS/Source/stream_buffer.c ****  * message out of the buffer.  If the stream buffer is being used as a stream
 173:Middlewares/Third_Party/FreeRTOS/Source/stream_buffer.c ****  * buffer then read as many bytes as possible from the buffer.
 174:Middlewares/Third_Party/FreeRTOS/Source/stream_buffer.c ****  * prvReadBytesFromBuffer() is called to actually extract the bytes from the
 175:Middlewares/Third_Party/FreeRTOS/Source/stream_buffer.c ****  * buffer's data storage area.
 176:Middlewares/Third_Party/FreeRTOS/Source/stream_buffer.c ****  */
 177:Middlewares/Third_Party/FreeRTOS/Source/stream_buffer.c **** static size_t prvReadMessageFromBuffer( StreamBuffer_t *pxStreamBuffer,
 178:Middlewares/Third_Party/FreeRTOS/Source/stream_buffer.c **** 										void *pvRxData,
 179:Middlewares/Third_Party/FreeRTOS/Source/stream_buffer.c **** 										size_t xBufferLengthBytes,
 180:Middlewares/Third_Party/FreeRTOS/Source/stream_buffer.c **** 										size_t xBytesAvailable,
 181:Middlewares/Third_Party/FreeRTOS/Source/stream_buffer.c **** 										size_t xBytesToStoreMessageLength ) PRIVILEGED_FUNCTION;
 182:Middlewares/Third_Party/FreeRTOS/Source/stream_buffer.c **** 
 183:Middlewares/Third_Party/FreeRTOS/Source/stream_buffer.c **** /*
 184:Middlewares/Third_Party/FreeRTOS/Source/stream_buffer.c ****  * If the stream buffer is being used as a message buffer, then writes an entire
 185:Middlewares/Third_Party/FreeRTOS/Source/stream_buffer.c ****  * message to the buffer.  If the stream buffer is being used as a stream
 186:Middlewares/Third_Party/FreeRTOS/Source/stream_buffer.c ****  * buffer then write as many bytes as possible to the buffer.
 187:Middlewares/Third_Party/FreeRTOS/Source/stream_buffer.c ****  * prvWriteBytestoBuffer() is called to actually send the bytes to the buffer's
 188:Middlewares/Third_Party/FreeRTOS/Source/stream_buffer.c ****  * data storage area.
 189:Middlewares/Third_Party/FreeRTOS/Source/stream_buffer.c ****  */
 190:Middlewares/Third_Party/FreeRTOS/Source/stream_buffer.c **** static size_t prvWriteMessageToBuffer(  StreamBuffer_t * const pxStreamBuffer,
 191:Middlewares/Third_Party/FreeRTOS/Source/stream_buffer.c **** 										const void * pvTxData,
 192:Middlewares/Third_Party/FreeRTOS/Source/stream_buffer.c **** 										size_t xDataLengthBytes,
 193:Middlewares/Third_Party/FreeRTOS/Source/stream_buffer.c **** 										size_t xSpace,
 194:Middlewares/Third_Party/FreeRTOS/Source/stream_buffer.c **** 										size_t xRequiredSpace ) PRIVILEGED_FUNCTION;
 195:Middlewares/Third_Party/FreeRTOS/Source/stream_buffer.c **** 
 196:Middlewares/Third_Party/FreeRTOS/Source/stream_buffer.c **** /*
 197:Middlewares/Third_Party/FreeRTOS/Source/stream_buffer.c ****  * Read xMaxCount bytes from the pxStreamBuffer message buffer and write them
 198:Middlewares/Third_Party/FreeRTOS/Source/stream_buffer.c ****  * to pucData.
 199:Middlewares/Third_Party/FreeRTOS/Source/stream_buffer.c ****  */
 200:Middlewares/Third_Party/FreeRTOS/Source/stream_buffer.c **** static size_t prvReadBytesFromBuffer( StreamBuffer_t *pxStreamBuffer,
 201:Middlewares/Third_Party/FreeRTOS/Source/stream_buffer.c **** 									  uint8_t *pucData,
 202:Middlewares/Third_Party/FreeRTOS/Source/stream_buffer.c **** 									  size_t xMaxCount,
 203:Middlewares/Third_Party/FreeRTOS/Source/stream_buffer.c **** 									  size_t xBytesAvailable ) PRIVILEGED_FUNCTION;
ARM GAS  /tmp/cctW9zGP.s 			page 5


 204:Middlewares/Third_Party/FreeRTOS/Source/stream_buffer.c **** 
 205:Middlewares/Third_Party/FreeRTOS/Source/stream_buffer.c **** /*
 206:Middlewares/Third_Party/FreeRTOS/Source/stream_buffer.c ****  * Called by both pxStreamBufferCreate() and pxStreamBufferCreateStatic() to
 207:Middlewares/Third_Party/FreeRTOS/Source/stream_buffer.c ****  * initialise the members of the newly created stream buffer structure.
 208:Middlewares/Third_Party/FreeRTOS/Source/stream_buffer.c ****  */
 209:Middlewares/Third_Party/FreeRTOS/Source/stream_buffer.c **** static void prvInitialiseNewStreamBuffer( StreamBuffer_t * const pxStreamBuffer,
 210:Middlewares/Third_Party/FreeRTOS/Source/stream_buffer.c **** 										  uint8_t * const pucBuffer,
 211:Middlewares/Third_Party/FreeRTOS/Source/stream_buffer.c **** 										  size_t xBufferSizeBytes,
 212:Middlewares/Third_Party/FreeRTOS/Source/stream_buffer.c **** 										  size_t xTriggerLevelBytes,
 213:Middlewares/Third_Party/FreeRTOS/Source/stream_buffer.c **** 										  uint8_t ucFlags ) PRIVILEGED_FUNCTION;
 214:Middlewares/Third_Party/FreeRTOS/Source/stream_buffer.c **** 
 215:Middlewares/Third_Party/FreeRTOS/Source/stream_buffer.c **** /*-----------------------------------------------------------*/
 216:Middlewares/Third_Party/FreeRTOS/Source/stream_buffer.c **** 
 217:Middlewares/Third_Party/FreeRTOS/Source/stream_buffer.c **** #if( configSUPPORT_DYNAMIC_ALLOCATION == 1 )
 218:Middlewares/Third_Party/FreeRTOS/Source/stream_buffer.c **** 
 219:Middlewares/Third_Party/FreeRTOS/Source/stream_buffer.c **** 	StreamBufferHandle_t xStreamBufferGenericCreate( size_t xBufferSizeBytes, size_t xTriggerLevelByte
 220:Middlewares/Third_Party/FreeRTOS/Source/stream_buffer.c **** 	{
 221:Middlewares/Third_Party/FreeRTOS/Source/stream_buffer.c **** 	uint8_t *pucAllocatedMemory;
 222:Middlewares/Third_Party/FreeRTOS/Source/stream_buffer.c **** 	uint8_t ucFlags;
 223:Middlewares/Third_Party/FreeRTOS/Source/stream_buffer.c **** 
 224:Middlewares/Third_Party/FreeRTOS/Source/stream_buffer.c **** 		/* In case the stream buffer is going to be used as a message buffer
 225:Middlewares/Third_Party/FreeRTOS/Source/stream_buffer.c **** 		(that is, it will hold discrete messages with a little meta data that
 226:Middlewares/Third_Party/FreeRTOS/Source/stream_buffer.c **** 		says how big the next message is) check the buffer will be large enough
 227:Middlewares/Third_Party/FreeRTOS/Source/stream_buffer.c **** 		to hold at least one message. */
 228:Middlewares/Third_Party/FreeRTOS/Source/stream_buffer.c **** 		if( xIsMessageBuffer == pdTRUE )
 229:Middlewares/Third_Party/FreeRTOS/Source/stream_buffer.c **** 		{
 230:Middlewares/Third_Party/FreeRTOS/Source/stream_buffer.c **** 			/* Is a message buffer but not statically allocated. */
 231:Middlewares/Third_Party/FreeRTOS/Source/stream_buffer.c **** 			ucFlags = sbFLAGS_IS_MESSAGE_BUFFER;
 232:Middlewares/Third_Party/FreeRTOS/Source/stream_buffer.c **** 			configASSERT( xBufferSizeBytes > sbBYTES_TO_STORE_MESSAGE_LENGTH );
 233:Middlewares/Third_Party/FreeRTOS/Source/stream_buffer.c **** 		}
 234:Middlewares/Third_Party/FreeRTOS/Source/stream_buffer.c **** 		else
 235:Middlewares/Third_Party/FreeRTOS/Source/stream_buffer.c **** 		{
 236:Middlewares/Third_Party/FreeRTOS/Source/stream_buffer.c **** 			/* Not a message buffer and not statically allocated. */
 237:Middlewares/Third_Party/FreeRTOS/Source/stream_buffer.c **** 			ucFlags = 0;
 238:Middlewares/Third_Party/FreeRTOS/Source/stream_buffer.c **** 			configASSERT( xBufferSizeBytes > 0 );
 239:Middlewares/Third_Party/FreeRTOS/Source/stream_buffer.c **** 		}
 240:Middlewares/Third_Party/FreeRTOS/Source/stream_buffer.c **** 		configASSERT( xTriggerLevelBytes <= xBufferSizeBytes );
 241:Middlewares/Third_Party/FreeRTOS/Source/stream_buffer.c **** 
 242:Middlewares/Third_Party/FreeRTOS/Source/stream_buffer.c **** 		/* A trigger level of 0 would cause a waiting task to unblock even when
 243:Middlewares/Third_Party/FreeRTOS/Source/stream_buffer.c **** 		the buffer was empty. */
 244:Middlewares/Third_Party/FreeRTOS/Source/stream_buffer.c **** 		if( xTriggerLevelBytes == ( size_t ) 0 )
 245:Middlewares/Third_Party/FreeRTOS/Source/stream_buffer.c **** 		{
 246:Middlewares/Third_Party/FreeRTOS/Source/stream_buffer.c **** 			xTriggerLevelBytes = ( size_t ) 1;
 247:Middlewares/Third_Party/FreeRTOS/Source/stream_buffer.c **** 		}
 248:Middlewares/Third_Party/FreeRTOS/Source/stream_buffer.c **** 
 249:Middlewares/Third_Party/FreeRTOS/Source/stream_buffer.c **** 		/* A stream buffer requires a StreamBuffer_t structure and a buffer.
 250:Middlewares/Third_Party/FreeRTOS/Source/stream_buffer.c **** 		Both are allocated in a single call to pvPortMalloc().  The
 251:Middlewares/Third_Party/FreeRTOS/Source/stream_buffer.c **** 		StreamBuffer_t structure is placed at the start of the allocated memory
 252:Middlewares/Third_Party/FreeRTOS/Source/stream_buffer.c **** 		and the buffer follows immediately after.  The requested size is
 253:Middlewares/Third_Party/FreeRTOS/Source/stream_buffer.c **** 		incremented so the free space is returned as the user would expect -
 254:Middlewares/Third_Party/FreeRTOS/Source/stream_buffer.c **** 		this is a quirk of the implementation that means otherwise the free
 255:Middlewares/Third_Party/FreeRTOS/Source/stream_buffer.c **** 		space would be reported as one byte smaller than would be logically
 256:Middlewares/Third_Party/FreeRTOS/Source/stream_buffer.c **** 		expected. */
 257:Middlewares/Third_Party/FreeRTOS/Source/stream_buffer.c **** 		xBufferSizeBytes++;
 258:Middlewares/Third_Party/FreeRTOS/Source/stream_buffer.c **** 		pucAllocatedMemory = ( uint8_t * ) pvPortMalloc( xBufferSizeBytes + sizeof( StreamBuffer_t ) ); /
 259:Middlewares/Third_Party/FreeRTOS/Source/stream_buffer.c **** 
 260:Middlewares/Third_Party/FreeRTOS/Source/stream_buffer.c **** 		if( pucAllocatedMemory != NULL )
ARM GAS  /tmp/cctW9zGP.s 			page 6


 261:Middlewares/Third_Party/FreeRTOS/Source/stream_buffer.c **** 		{
 262:Middlewares/Third_Party/FreeRTOS/Source/stream_buffer.c **** 			prvInitialiseNewStreamBuffer( ( StreamBuffer_t * ) pucAllocatedMemory, /* Structure at the start
 263:Middlewares/Third_Party/FreeRTOS/Source/stream_buffer.c **** 										   pucAllocatedMemory + sizeof( StreamBuffer_t ),  /* Storage area follows. */ /*lint !e9
 264:Middlewares/Third_Party/FreeRTOS/Source/stream_buffer.c **** 										   xBufferSizeBytes,
 265:Middlewares/Third_Party/FreeRTOS/Source/stream_buffer.c **** 										   xTriggerLevelBytes,
 266:Middlewares/Third_Party/FreeRTOS/Source/stream_buffer.c **** 										   ucFlags );
 267:Middlewares/Third_Party/FreeRTOS/Source/stream_buffer.c **** 
 268:Middlewares/Third_Party/FreeRTOS/Source/stream_buffer.c **** 			traceSTREAM_BUFFER_CREATE( ( ( StreamBuffer_t * ) pucAllocatedMemory ), xIsMessageBuffer );
 269:Middlewares/Third_Party/FreeRTOS/Source/stream_buffer.c **** 		}
 270:Middlewares/Third_Party/FreeRTOS/Source/stream_buffer.c **** 		else
 271:Middlewares/Third_Party/FreeRTOS/Source/stream_buffer.c **** 		{
 272:Middlewares/Third_Party/FreeRTOS/Source/stream_buffer.c **** 			traceSTREAM_BUFFER_CREATE_FAILED( xIsMessageBuffer );
 273:Middlewares/Third_Party/FreeRTOS/Source/stream_buffer.c **** 		}
 274:Middlewares/Third_Party/FreeRTOS/Source/stream_buffer.c **** 
 275:Middlewares/Third_Party/FreeRTOS/Source/stream_buffer.c **** 		return ( StreamBufferHandle_t ) pucAllocatedMemory; /*lint !e9087 !e826 Safe cast as allocated me
 276:Middlewares/Third_Party/FreeRTOS/Source/stream_buffer.c **** 	}
 277:Middlewares/Third_Party/FreeRTOS/Source/stream_buffer.c **** 
 278:Middlewares/Third_Party/FreeRTOS/Source/stream_buffer.c **** #endif /* configSUPPORT_DYNAMIC_ALLOCATION */
 279:Middlewares/Third_Party/FreeRTOS/Source/stream_buffer.c **** /*-----------------------------------------------------------*/
 280:Middlewares/Third_Party/FreeRTOS/Source/stream_buffer.c **** 
 281:Middlewares/Third_Party/FreeRTOS/Source/stream_buffer.c **** #if( configSUPPORT_STATIC_ALLOCATION == 1 )
 282:Middlewares/Third_Party/FreeRTOS/Source/stream_buffer.c **** 
 283:Middlewares/Third_Party/FreeRTOS/Source/stream_buffer.c **** 	StreamBufferHandle_t xStreamBufferGenericCreateStatic( size_t xBufferSizeBytes,
 284:Middlewares/Third_Party/FreeRTOS/Source/stream_buffer.c **** 														   size_t xTriggerLevelBytes,
 285:Middlewares/Third_Party/FreeRTOS/Source/stream_buffer.c **** 														   BaseType_t xIsMessageBuffer,
 286:Middlewares/Third_Party/FreeRTOS/Source/stream_buffer.c **** 														   uint8_t * const pucStreamBufferStorageArea,
 287:Middlewares/Third_Party/FreeRTOS/Source/stream_buffer.c **** 														   StaticStreamBuffer_t * const pxStaticStreamBuffer )
 288:Middlewares/Third_Party/FreeRTOS/Source/stream_buffer.c **** 	{
 289:Middlewares/Third_Party/FreeRTOS/Source/stream_buffer.c **** 	StreamBuffer_t * const pxStreamBuffer = ( StreamBuffer_t * ) pxStaticStreamBuffer; /*lint !e740 !e
 290:Middlewares/Third_Party/FreeRTOS/Source/stream_buffer.c **** 	StreamBufferHandle_t xReturn;
 291:Middlewares/Third_Party/FreeRTOS/Source/stream_buffer.c **** 	uint8_t ucFlags;
 292:Middlewares/Third_Party/FreeRTOS/Source/stream_buffer.c **** 
 293:Middlewares/Third_Party/FreeRTOS/Source/stream_buffer.c **** 		configASSERT( pucStreamBufferStorageArea );
 294:Middlewares/Third_Party/FreeRTOS/Source/stream_buffer.c **** 		configASSERT( pxStaticStreamBuffer );
 295:Middlewares/Third_Party/FreeRTOS/Source/stream_buffer.c **** 		configASSERT( xTriggerLevelBytes <= xBufferSizeBytes );
 296:Middlewares/Third_Party/FreeRTOS/Source/stream_buffer.c **** 
 297:Middlewares/Third_Party/FreeRTOS/Source/stream_buffer.c **** 		/* A trigger level of 0 would cause a waiting task to unblock even when
 298:Middlewares/Third_Party/FreeRTOS/Source/stream_buffer.c **** 		the buffer was empty. */
 299:Middlewares/Third_Party/FreeRTOS/Source/stream_buffer.c **** 		if( xTriggerLevelBytes == ( size_t ) 0 )
 300:Middlewares/Third_Party/FreeRTOS/Source/stream_buffer.c **** 		{
 301:Middlewares/Third_Party/FreeRTOS/Source/stream_buffer.c **** 			xTriggerLevelBytes = ( size_t ) 1;
 302:Middlewares/Third_Party/FreeRTOS/Source/stream_buffer.c **** 		}
 303:Middlewares/Third_Party/FreeRTOS/Source/stream_buffer.c **** 
 304:Middlewares/Third_Party/FreeRTOS/Source/stream_buffer.c **** 		if( xIsMessageBuffer != pdFALSE )
 305:Middlewares/Third_Party/FreeRTOS/Source/stream_buffer.c **** 		{
 306:Middlewares/Third_Party/FreeRTOS/Source/stream_buffer.c **** 			/* Statically allocated message buffer. */
 307:Middlewares/Third_Party/FreeRTOS/Source/stream_buffer.c **** 			ucFlags = sbFLAGS_IS_MESSAGE_BUFFER | sbFLAGS_IS_STATICALLY_ALLOCATED;
 308:Middlewares/Third_Party/FreeRTOS/Source/stream_buffer.c **** 		}
 309:Middlewares/Third_Party/FreeRTOS/Source/stream_buffer.c **** 		else
 310:Middlewares/Third_Party/FreeRTOS/Source/stream_buffer.c **** 		{
 311:Middlewares/Third_Party/FreeRTOS/Source/stream_buffer.c **** 			/* Statically allocated stream buffer. */
 312:Middlewares/Third_Party/FreeRTOS/Source/stream_buffer.c **** 			ucFlags = sbFLAGS_IS_STATICALLY_ALLOCATED;
 313:Middlewares/Third_Party/FreeRTOS/Source/stream_buffer.c **** 		}
 314:Middlewares/Third_Party/FreeRTOS/Source/stream_buffer.c **** 
 315:Middlewares/Third_Party/FreeRTOS/Source/stream_buffer.c **** 		/* In case the stream buffer is going to be used as a message buffer
 316:Middlewares/Third_Party/FreeRTOS/Source/stream_buffer.c **** 		(that is, it will hold discrete messages with a little meta data that
 317:Middlewares/Third_Party/FreeRTOS/Source/stream_buffer.c **** 		says how big the next message is) check the buffer will be large enough
ARM GAS  /tmp/cctW9zGP.s 			page 7


 318:Middlewares/Third_Party/FreeRTOS/Source/stream_buffer.c **** 		to hold at least one message. */
 319:Middlewares/Third_Party/FreeRTOS/Source/stream_buffer.c **** 		configASSERT( xBufferSizeBytes > sbBYTES_TO_STORE_MESSAGE_LENGTH );
 320:Middlewares/Third_Party/FreeRTOS/Source/stream_buffer.c **** 
 321:Middlewares/Third_Party/FreeRTOS/Source/stream_buffer.c **** 		#if( configASSERT_DEFINED == 1 )
 322:Middlewares/Third_Party/FreeRTOS/Source/stream_buffer.c **** 		{
 323:Middlewares/Third_Party/FreeRTOS/Source/stream_buffer.c **** 			/* Sanity check that the size of the structure used to declare a
 324:Middlewares/Third_Party/FreeRTOS/Source/stream_buffer.c **** 			variable of type StaticStreamBuffer_t equals the size of the real
 325:Middlewares/Third_Party/FreeRTOS/Source/stream_buffer.c **** 			message buffer structure. */
 326:Middlewares/Third_Party/FreeRTOS/Source/stream_buffer.c **** 			volatile size_t xSize = sizeof( StaticStreamBuffer_t );
 327:Middlewares/Third_Party/FreeRTOS/Source/stream_buffer.c **** 			configASSERT( xSize == sizeof( StreamBuffer_t ) );
 328:Middlewares/Third_Party/FreeRTOS/Source/stream_buffer.c **** 		} /*lint !e529 xSize is referenced is configASSERT() is defined. */
 329:Middlewares/Third_Party/FreeRTOS/Source/stream_buffer.c **** 		#endif /* configASSERT_DEFINED */
 330:Middlewares/Third_Party/FreeRTOS/Source/stream_buffer.c **** 
 331:Middlewares/Third_Party/FreeRTOS/Source/stream_buffer.c **** 		if( ( pucStreamBufferStorageArea != NULL ) && ( pxStaticStreamBuffer != NULL ) )
 332:Middlewares/Third_Party/FreeRTOS/Source/stream_buffer.c **** 		{
 333:Middlewares/Third_Party/FreeRTOS/Source/stream_buffer.c **** 			prvInitialiseNewStreamBuffer( pxStreamBuffer,
 334:Middlewares/Third_Party/FreeRTOS/Source/stream_buffer.c **** 										  pucStreamBufferStorageArea,
 335:Middlewares/Third_Party/FreeRTOS/Source/stream_buffer.c **** 										  xBufferSizeBytes,
 336:Middlewares/Third_Party/FreeRTOS/Source/stream_buffer.c **** 										  xTriggerLevelBytes,
 337:Middlewares/Third_Party/FreeRTOS/Source/stream_buffer.c **** 										  ucFlags );
 338:Middlewares/Third_Party/FreeRTOS/Source/stream_buffer.c **** 
 339:Middlewares/Third_Party/FreeRTOS/Source/stream_buffer.c **** 			/* Remember this was statically allocated in case it is ever deleted
 340:Middlewares/Third_Party/FreeRTOS/Source/stream_buffer.c **** 			again. */
 341:Middlewares/Third_Party/FreeRTOS/Source/stream_buffer.c **** 			pxStreamBuffer->ucFlags |= sbFLAGS_IS_STATICALLY_ALLOCATED;
 342:Middlewares/Third_Party/FreeRTOS/Source/stream_buffer.c **** 
 343:Middlewares/Third_Party/FreeRTOS/Source/stream_buffer.c **** 			traceSTREAM_BUFFER_CREATE( pxStreamBuffer, xIsMessageBuffer );
 344:Middlewares/Third_Party/FreeRTOS/Source/stream_buffer.c **** 
 345:Middlewares/Third_Party/FreeRTOS/Source/stream_buffer.c **** 			xReturn = ( StreamBufferHandle_t ) pxStaticStreamBuffer; /*lint !e9087 Data hiding requires cast
 346:Middlewares/Third_Party/FreeRTOS/Source/stream_buffer.c **** 		}
 347:Middlewares/Third_Party/FreeRTOS/Source/stream_buffer.c **** 		else
 348:Middlewares/Third_Party/FreeRTOS/Source/stream_buffer.c **** 		{
 349:Middlewares/Third_Party/FreeRTOS/Source/stream_buffer.c **** 			xReturn = NULL;
 350:Middlewares/Third_Party/FreeRTOS/Source/stream_buffer.c **** 			traceSTREAM_BUFFER_CREATE_STATIC_FAILED( xReturn, xIsMessageBuffer );
 351:Middlewares/Third_Party/FreeRTOS/Source/stream_buffer.c **** 		}
 352:Middlewares/Third_Party/FreeRTOS/Source/stream_buffer.c **** 
 353:Middlewares/Third_Party/FreeRTOS/Source/stream_buffer.c **** 		return xReturn;
 354:Middlewares/Third_Party/FreeRTOS/Source/stream_buffer.c **** 	}
 355:Middlewares/Third_Party/FreeRTOS/Source/stream_buffer.c **** 
 356:Middlewares/Third_Party/FreeRTOS/Source/stream_buffer.c **** #endif /* ( configSUPPORT_STATIC_ALLOCATION == 1 ) */
 357:Middlewares/Third_Party/FreeRTOS/Source/stream_buffer.c **** /*-----------------------------------------------------------*/
 358:Middlewares/Third_Party/FreeRTOS/Source/stream_buffer.c **** 
 359:Middlewares/Third_Party/FreeRTOS/Source/stream_buffer.c **** void vStreamBufferDelete( StreamBufferHandle_t xStreamBuffer )
 360:Middlewares/Third_Party/FreeRTOS/Source/stream_buffer.c **** {
 361:Middlewares/Third_Party/FreeRTOS/Source/stream_buffer.c **** StreamBuffer_t * pxStreamBuffer = xStreamBuffer;
 362:Middlewares/Third_Party/FreeRTOS/Source/stream_buffer.c **** 
 363:Middlewares/Third_Party/FreeRTOS/Source/stream_buffer.c **** 	configASSERT( pxStreamBuffer );
 364:Middlewares/Third_Party/FreeRTOS/Source/stream_buffer.c **** 
 365:Middlewares/Third_Party/FreeRTOS/Source/stream_buffer.c **** 	traceSTREAM_BUFFER_DELETE( xStreamBuffer );
 366:Middlewares/Third_Party/FreeRTOS/Source/stream_buffer.c **** 
 367:Middlewares/Third_Party/FreeRTOS/Source/stream_buffer.c **** 	if( ( pxStreamBuffer->ucFlags & sbFLAGS_IS_STATICALLY_ALLOCATED ) == ( uint8_t ) pdFALSE )
 368:Middlewares/Third_Party/FreeRTOS/Source/stream_buffer.c **** 	{
 369:Middlewares/Third_Party/FreeRTOS/Source/stream_buffer.c **** 		#if( configSUPPORT_DYNAMIC_ALLOCATION == 1 )
 370:Middlewares/Third_Party/FreeRTOS/Source/stream_buffer.c **** 		{
 371:Middlewares/Third_Party/FreeRTOS/Source/stream_buffer.c **** 			/* Both the structure and the buffer were allocated using a single call
 372:Middlewares/Third_Party/FreeRTOS/Source/stream_buffer.c **** 			to pvPortMalloc(), hence only one call to vPortFree() is required. */
 373:Middlewares/Third_Party/FreeRTOS/Source/stream_buffer.c **** 			vPortFree( ( void * ) pxStreamBuffer ); /*lint !e9087 Standard free() semantics require void *, 
 374:Middlewares/Third_Party/FreeRTOS/Source/stream_buffer.c **** 		}
ARM GAS  /tmp/cctW9zGP.s 			page 8


 375:Middlewares/Third_Party/FreeRTOS/Source/stream_buffer.c **** 		#else
 376:Middlewares/Third_Party/FreeRTOS/Source/stream_buffer.c **** 		{
 377:Middlewares/Third_Party/FreeRTOS/Source/stream_buffer.c **** 			/* Should not be possible to get here, ucFlags must be corrupt.
 378:Middlewares/Third_Party/FreeRTOS/Source/stream_buffer.c **** 			Force an assert. */
 379:Middlewares/Third_Party/FreeRTOS/Source/stream_buffer.c **** 			configASSERT( xStreamBuffer == ( StreamBufferHandle_t ) ~0 );
 380:Middlewares/Third_Party/FreeRTOS/Source/stream_buffer.c **** 		}
 381:Middlewares/Third_Party/FreeRTOS/Source/stream_buffer.c **** 		#endif
 382:Middlewares/Third_Party/FreeRTOS/Source/stream_buffer.c **** 	}
 383:Middlewares/Third_Party/FreeRTOS/Source/stream_buffer.c **** 	else
 384:Middlewares/Third_Party/FreeRTOS/Source/stream_buffer.c **** 	{
 385:Middlewares/Third_Party/FreeRTOS/Source/stream_buffer.c **** 		/* The structure and buffer were not allocated dynamically and cannot be
 386:Middlewares/Third_Party/FreeRTOS/Source/stream_buffer.c **** 		freed - just scrub the structure so future use will assert. */
 387:Middlewares/Third_Party/FreeRTOS/Source/stream_buffer.c **** 		( void ) memset( pxStreamBuffer, 0x00, sizeof( StreamBuffer_t ) );
 388:Middlewares/Third_Party/FreeRTOS/Source/stream_buffer.c **** 	}
 389:Middlewares/Third_Party/FreeRTOS/Source/stream_buffer.c **** }
 390:Middlewares/Third_Party/FreeRTOS/Source/stream_buffer.c **** /*-----------------------------------------------------------*/
 391:Middlewares/Third_Party/FreeRTOS/Source/stream_buffer.c **** 
 392:Middlewares/Third_Party/FreeRTOS/Source/stream_buffer.c **** BaseType_t xStreamBufferReset( StreamBufferHandle_t xStreamBuffer )
 393:Middlewares/Third_Party/FreeRTOS/Source/stream_buffer.c **** {
 394:Middlewares/Third_Party/FreeRTOS/Source/stream_buffer.c **** StreamBuffer_t * const pxStreamBuffer = xStreamBuffer;
 395:Middlewares/Third_Party/FreeRTOS/Source/stream_buffer.c **** BaseType_t xReturn = pdFAIL;
 396:Middlewares/Third_Party/FreeRTOS/Source/stream_buffer.c **** 
 397:Middlewares/Third_Party/FreeRTOS/Source/stream_buffer.c **** #if( configUSE_TRACE_FACILITY == 1 )
 398:Middlewares/Third_Party/FreeRTOS/Source/stream_buffer.c **** 	UBaseType_t uxStreamBufferNumber;
 399:Middlewares/Third_Party/FreeRTOS/Source/stream_buffer.c **** #endif
 400:Middlewares/Third_Party/FreeRTOS/Source/stream_buffer.c **** 
 401:Middlewares/Third_Party/FreeRTOS/Source/stream_buffer.c **** 	configASSERT( pxStreamBuffer );
 402:Middlewares/Third_Party/FreeRTOS/Source/stream_buffer.c **** 
 403:Middlewares/Third_Party/FreeRTOS/Source/stream_buffer.c **** 	#if( configUSE_TRACE_FACILITY == 1 )
 404:Middlewares/Third_Party/FreeRTOS/Source/stream_buffer.c **** 	{
 405:Middlewares/Third_Party/FreeRTOS/Source/stream_buffer.c **** 		/* Store the stream buffer number so it can be restored after the
 406:Middlewares/Third_Party/FreeRTOS/Source/stream_buffer.c **** 		reset. */
 407:Middlewares/Third_Party/FreeRTOS/Source/stream_buffer.c **** 		uxStreamBufferNumber = pxStreamBuffer->uxStreamBufferNumber;
 408:Middlewares/Third_Party/FreeRTOS/Source/stream_buffer.c **** 	}
 409:Middlewares/Third_Party/FreeRTOS/Source/stream_buffer.c **** 	#endif
 410:Middlewares/Third_Party/FreeRTOS/Source/stream_buffer.c **** 
 411:Middlewares/Third_Party/FreeRTOS/Source/stream_buffer.c **** 	/* Can only reset a message buffer if there are no tasks blocked on it. */
 412:Middlewares/Third_Party/FreeRTOS/Source/stream_buffer.c **** 	taskENTER_CRITICAL();
 413:Middlewares/Third_Party/FreeRTOS/Source/stream_buffer.c **** 	{
 414:Middlewares/Third_Party/FreeRTOS/Source/stream_buffer.c **** 		if( pxStreamBuffer->xTaskWaitingToReceive == NULL )
 415:Middlewares/Third_Party/FreeRTOS/Source/stream_buffer.c **** 		{
 416:Middlewares/Third_Party/FreeRTOS/Source/stream_buffer.c **** 			if( pxStreamBuffer->xTaskWaitingToSend == NULL )
 417:Middlewares/Third_Party/FreeRTOS/Source/stream_buffer.c **** 			{
 418:Middlewares/Third_Party/FreeRTOS/Source/stream_buffer.c **** 				prvInitialiseNewStreamBuffer( pxStreamBuffer,
 419:Middlewares/Third_Party/FreeRTOS/Source/stream_buffer.c **** 											  pxStreamBuffer->pucBuffer,
 420:Middlewares/Third_Party/FreeRTOS/Source/stream_buffer.c **** 											  pxStreamBuffer->xLength,
 421:Middlewares/Third_Party/FreeRTOS/Source/stream_buffer.c **** 											  pxStreamBuffer->xTriggerLevelBytes,
 422:Middlewares/Third_Party/FreeRTOS/Source/stream_buffer.c **** 											  pxStreamBuffer->ucFlags );
 423:Middlewares/Third_Party/FreeRTOS/Source/stream_buffer.c **** 				xReturn = pdPASS;
 424:Middlewares/Third_Party/FreeRTOS/Source/stream_buffer.c **** 
 425:Middlewares/Third_Party/FreeRTOS/Source/stream_buffer.c **** 				#if( configUSE_TRACE_FACILITY == 1 )
 426:Middlewares/Third_Party/FreeRTOS/Source/stream_buffer.c **** 				{
 427:Middlewares/Third_Party/FreeRTOS/Source/stream_buffer.c **** 					pxStreamBuffer->uxStreamBufferNumber = uxStreamBufferNumber;
 428:Middlewares/Third_Party/FreeRTOS/Source/stream_buffer.c **** 				}
 429:Middlewares/Third_Party/FreeRTOS/Source/stream_buffer.c **** 				#endif
 430:Middlewares/Third_Party/FreeRTOS/Source/stream_buffer.c **** 
 431:Middlewares/Third_Party/FreeRTOS/Source/stream_buffer.c **** 				traceSTREAM_BUFFER_RESET( xStreamBuffer );
ARM GAS  /tmp/cctW9zGP.s 			page 9


 432:Middlewares/Third_Party/FreeRTOS/Source/stream_buffer.c **** 			}
 433:Middlewares/Third_Party/FreeRTOS/Source/stream_buffer.c **** 		}
 434:Middlewares/Third_Party/FreeRTOS/Source/stream_buffer.c **** 	}
 435:Middlewares/Third_Party/FreeRTOS/Source/stream_buffer.c **** 	taskEXIT_CRITICAL();
 436:Middlewares/Third_Party/FreeRTOS/Source/stream_buffer.c **** 
 437:Middlewares/Third_Party/FreeRTOS/Source/stream_buffer.c **** 	return xReturn;
 438:Middlewares/Third_Party/FreeRTOS/Source/stream_buffer.c **** }
 439:Middlewares/Third_Party/FreeRTOS/Source/stream_buffer.c **** /*-----------------------------------------------------------*/
 440:Middlewares/Third_Party/FreeRTOS/Source/stream_buffer.c **** 
 441:Middlewares/Third_Party/FreeRTOS/Source/stream_buffer.c **** BaseType_t xStreamBufferSetTriggerLevel( StreamBufferHandle_t xStreamBuffer, size_t xTriggerLevel )
 442:Middlewares/Third_Party/FreeRTOS/Source/stream_buffer.c **** {
 443:Middlewares/Third_Party/FreeRTOS/Source/stream_buffer.c **** StreamBuffer_t * const pxStreamBuffer = xStreamBuffer;
 444:Middlewares/Third_Party/FreeRTOS/Source/stream_buffer.c **** BaseType_t xReturn;
 445:Middlewares/Third_Party/FreeRTOS/Source/stream_buffer.c **** 
 446:Middlewares/Third_Party/FreeRTOS/Source/stream_buffer.c **** 	configASSERT( pxStreamBuffer );
 447:Middlewares/Third_Party/FreeRTOS/Source/stream_buffer.c **** 
 448:Middlewares/Third_Party/FreeRTOS/Source/stream_buffer.c **** 	/* It is not valid for the trigger level to be 0. */
 449:Middlewares/Third_Party/FreeRTOS/Source/stream_buffer.c **** 	if( xTriggerLevel == ( size_t ) 0 )
 450:Middlewares/Third_Party/FreeRTOS/Source/stream_buffer.c **** 	{
 451:Middlewares/Third_Party/FreeRTOS/Source/stream_buffer.c **** 		xTriggerLevel = ( size_t ) 1;
 452:Middlewares/Third_Party/FreeRTOS/Source/stream_buffer.c **** 	}
 453:Middlewares/Third_Party/FreeRTOS/Source/stream_buffer.c **** 
 454:Middlewares/Third_Party/FreeRTOS/Source/stream_buffer.c **** 	/* The trigger level is the number of bytes that must be in the stream
 455:Middlewares/Third_Party/FreeRTOS/Source/stream_buffer.c **** 	buffer before a task that is waiting for data is unblocked. */
 456:Middlewares/Third_Party/FreeRTOS/Source/stream_buffer.c **** 	if( xTriggerLevel <= pxStreamBuffer->xLength )
 457:Middlewares/Third_Party/FreeRTOS/Source/stream_buffer.c **** 	{
 458:Middlewares/Third_Party/FreeRTOS/Source/stream_buffer.c **** 		pxStreamBuffer->xTriggerLevelBytes = xTriggerLevel;
 459:Middlewares/Third_Party/FreeRTOS/Source/stream_buffer.c **** 		xReturn = pdPASS;
 460:Middlewares/Third_Party/FreeRTOS/Source/stream_buffer.c **** 	}
 461:Middlewares/Third_Party/FreeRTOS/Source/stream_buffer.c **** 	else
 462:Middlewares/Third_Party/FreeRTOS/Source/stream_buffer.c **** 	{
 463:Middlewares/Third_Party/FreeRTOS/Source/stream_buffer.c **** 		xReturn = pdFALSE;
 464:Middlewares/Third_Party/FreeRTOS/Source/stream_buffer.c **** 	}
 465:Middlewares/Third_Party/FreeRTOS/Source/stream_buffer.c **** 
 466:Middlewares/Third_Party/FreeRTOS/Source/stream_buffer.c **** 	return xReturn;
 467:Middlewares/Third_Party/FreeRTOS/Source/stream_buffer.c **** }
 468:Middlewares/Third_Party/FreeRTOS/Source/stream_buffer.c **** /*-----------------------------------------------------------*/
 469:Middlewares/Third_Party/FreeRTOS/Source/stream_buffer.c **** 
 470:Middlewares/Third_Party/FreeRTOS/Source/stream_buffer.c **** size_t xStreamBufferSpacesAvailable( StreamBufferHandle_t xStreamBuffer )
 471:Middlewares/Third_Party/FreeRTOS/Source/stream_buffer.c **** {
 472:Middlewares/Third_Party/FreeRTOS/Source/stream_buffer.c **** const StreamBuffer_t * const pxStreamBuffer = xStreamBuffer;
 473:Middlewares/Third_Party/FreeRTOS/Source/stream_buffer.c **** size_t xSpace;
 474:Middlewares/Third_Party/FreeRTOS/Source/stream_buffer.c **** 
 475:Middlewares/Third_Party/FreeRTOS/Source/stream_buffer.c **** 	configASSERT( pxStreamBuffer );
 476:Middlewares/Third_Party/FreeRTOS/Source/stream_buffer.c **** 
 477:Middlewares/Third_Party/FreeRTOS/Source/stream_buffer.c **** 	xSpace = pxStreamBuffer->xLength + pxStreamBuffer->xTail;
 478:Middlewares/Third_Party/FreeRTOS/Source/stream_buffer.c **** 	xSpace -= pxStreamBuffer->xHead;
 479:Middlewares/Third_Party/FreeRTOS/Source/stream_buffer.c **** 	xSpace -= ( size_t ) 1;
 480:Middlewares/Third_Party/FreeRTOS/Source/stream_buffer.c **** 
 481:Middlewares/Third_Party/FreeRTOS/Source/stream_buffer.c **** 	if( xSpace >= pxStreamBuffer->xLength )
 482:Middlewares/Third_Party/FreeRTOS/Source/stream_buffer.c **** 	{
 483:Middlewares/Third_Party/FreeRTOS/Source/stream_buffer.c **** 		xSpace -= pxStreamBuffer->xLength;
 484:Middlewares/Third_Party/FreeRTOS/Source/stream_buffer.c **** 	}
 485:Middlewares/Third_Party/FreeRTOS/Source/stream_buffer.c **** 	else
 486:Middlewares/Third_Party/FreeRTOS/Source/stream_buffer.c **** 	{
 487:Middlewares/Third_Party/FreeRTOS/Source/stream_buffer.c **** 		mtCOVERAGE_TEST_MARKER();
 488:Middlewares/Third_Party/FreeRTOS/Source/stream_buffer.c **** 	}
ARM GAS  /tmp/cctW9zGP.s 			page 10


 489:Middlewares/Third_Party/FreeRTOS/Source/stream_buffer.c **** 
 490:Middlewares/Third_Party/FreeRTOS/Source/stream_buffer.c **** 	return xSpace;
 491:Middlewares/Third_Party/FreeRTOS/Source/stream_buffer.c **** }
 492:Middlewares/Third_Party/FreeRTOS/Source/stream_buffer.c **** /*-----------------------------------------------------------*/
 493:Middlewares/Third_Party/FreeRTOS/Source/stream_buffer.c **** 
 494:Middlewares/Third_Party/FreeRTOS/Source/stream_buffer.c **** size_t xStreamBufferBytesAvailable( StreamBufferHandle_t xStreamBuffer )
 495:Middlewares/Third_Party/FreeRTOS/Source/stream_buffer.c **** {
 496:Middlewares/Third_Party/FreeRTOS/Source/stream_buffer.c **** const StreamBuffer_t * const pxStreamBuffer = xStreamBuffer;
 497:Middlewares/Third_Party/FreeRTOS/Source/stream_buffer.c **** size_t xReturn;
 498:Middlewares/Third_Party/FreeRTOS/Source/stream_buffer.c **** 
 499:Middlewares/Third_Party/FreeRTOS/Source/stream_buffer.c **** 	configASSERT( pxStreamBuffer );
 500:Middlewares/Third_Party/FreeRTOS/Source/stream_buffer.c **** 
 501:Middlewares/Third_Party/FreeRTOS/Source/stream_buffer.c **** 	xReturn = prvBytesInBuffer( pxStreamBuffer );
 502:Middlewares/Third_Party/FreeRTOS/Source/stream_buffer.c **** 	return xReturn;
 503:Middlewares/Third_Party/FreeRTOS/Source/stream_buffer.c **** }
 504:Middlewares/Third_Party/FreeRTOS/Source/stream_buffer.c **** /*-----------------------------------------------------------*/
 505:Middlewares/Third_Party/FreeRTOS/Source/stream_buffer.c **** 
 506:Middlewares/Third_Party/FreeRTOS/Source/stream_buffer.c **** size_t xStreamBufferSend( StreamBufferHandle_t xStreamBuffer,
 507:Middlewares/Third_Party/FreeRTOS/Source/stream_buffer.c **** 						  const void *pvTxData,
 508:Middlewares/Third_Party/FreeRTOS/Source/stream_buffer.c **** 						  size_t xDataLengthBytes,
 509:Middlewares/Third_Party/FreeRTOS/Source/stream_buffer.c **** 						  TickType_t xTicksToWait )
 510:Middlewares/Third_Party/FreeRTOS/Source/stream_buffer.c **** {
 511:Middlewares/Third_Party/FreeRTOS/Source/stream_buffer.c **** StreamBuffer_t * const pxStreamBuffer = xStreamBuffer;
 512:Middlewares/Third_Party/FreeRTOS/Source/stream_buffer.c **** size_t xReturn, xSpace = 0;
 513:Middlewares/Third_Party/FreeRTOS/Source/stream_buffer.c **** size_t xRequiredSpace = xDataLengthBytes;
 514:Middlewares/Third_Party/FreeRTOS/Source/stream_buffer.c **** TimeOut_t xTimeOut;
 515:Middlewares/Third_Party/FreeRTOS/Source/stream_buffer.c **** 
 516:Middlewares/Third_Party/FreeRTOS/Source/stream_buffer.c **** 	configASSERT( pvTxData );
 517:Middlewares/Third_Party/FreeRTOS/Source/stream_buffer.c **** 	configASSERT( pxStreamBuffer );
 518:Middlewares/Third_Party/FreeRTOS/Source/stream_buffer.c **** 
 519:Middlewares/Third_Party/FreeRTOS/Source/stream_buffer.c **** 	/* This send function is used to write to both message buffers and stream
 520:Middlewares/Third_Party/FreeRTOS/Source/stream_buffer.c **** 	buffers.  If this is a message buffer then the space needed must be
 521:Middlewares/Third_Party/FreeRTOS/Source/stream_buffer.c **** 	increased by the amount of bytes needed to store the length of the
 522:Middlewares/Third_Party/FreeRTOS/Source/stream_buffer.c **** 	message. */
 523:Middlewares/Third_Party/FreeRTOS/Source/stream_buffer.c **** 	if( ( pxStreamBuffer->ucFlags & sbFLAGS_IS_MESSAGE_BUFFER ) != ( uint8_t ) 0 )
 524:Middlewares/Third_Party/FreeRTOS/Source/stream_buffer.c **** 	{
 525:Middlewares/Third_Party/FreeRTOS/Source/stream_buffer.c **** 		xRequiredSpace += sbBYTES_TO_STORE_MESSAGE_LENGTH;
 526:Middlewares/Third_Party/FreeRTOS/Source/stream_buffer.c **** 
 527:Middlewares/Third_Party/FreeRTOS/Source/stream_buffer.c **** 		/* Overflow? */
 528:Middlewares/Third_Party/FreeRTOS/Source/stream_buffer.c **** 		configASSERT( xRequiredSpace > xDataLengthBytes );
 529:Middlewares/Third_Party/FreeRTOS/Source/stream_buffer.c **** 	}
 530:Middlewares/Third_Party/FreeRTOS/Source/stream_buffer.c **** 	else
 531:Middlewares/Third_Party/FreeRTOS/Source/stream_buffer.c **** 	{
 532:Middlewares/Third_Party/FreeRTOS/Source/stream_buffer.c **** 		mtCOVERAGE_TEST_MARKER();
 533:Middlewares/Third_Party/FreeRTOS/Source/stream_buffer.c **** 	}
 534:Middlewares/Third_Party/FreeRTOS/Source/stream_buffer.c **** 
 535:Middlewares/Third_Party/FreeRTOS/Source/stream_buffer.c **** 	if( xTicksToWait != ( TickType_t ) 0 )
 536:Middlewares/Third_Party/FreeRTOS/Source/stream_buffer.c **** 	{
 537:Middlewares/Third_Party/FreeRTOS/Source/stream_buffer.c **** 		vTaskSetTimeOutState( &xTimeOut );
 538:Middlewares/Third_Party/FreeRTOS/Source/stream_buffer.c **** 
 539:Middlewares/Third_Party/FreeRTOS/Source/stream_buffer.c **** 		do
 540:Middlewares/Third_Party/FreeRTOS/Source/stream_buffer.c **** 		{
 541:Middlewares/Third_Party/FreeRTOS/Source/stream_buffer.c **** 			/* Wait until the required number of bytes are free in the message
 542:Middlewares/Third_Party/FreeRTOS/Source/stream_buffer.c **** 			buffer. */
 543:Middlewares/Third_Party/FreeRTOS/Source/stream_buffer.c **** 			taskENTER_CRITICAL();
 544:Middlewares/Third_Party/FreeRTOS/Source/stream_buffer.c **** 			{
 545:Middlewares/Third_Party/FreeRTOS/Source/stream_buffer.c **** 				xSpace = xStreamBufferSpacesAvailable( pxStreamBuffer );
ARM GAS  /tmp/cctW9zGP.s 			page 11


 546:Middlewares/Third_Party/FreeRTOS/Source/stream_buffer.c **** 
 547:Middlewares/Third_Party/FreeRTOS/Source/stream_buffer.c **** 				if( xSpace < xRequiredSpace )
 548:Middlewares/Third_Party/FreeRTOS/Source/stream_buffer.c **** 				{
 549:Middlewares/Third_Party/FreeRTOS/Source/stream_buffer.c **** 					/* Clear notification state as going to wait for space. */
 550:Middlewares/Third_Party/FreeRTOS/Source/stream_buffer.c **** 					( void ) xTaskNotifyStateClear( NULL );
 551:Middlewares/Third_Party/FreeRTOS/Source/stream_buffer.c **** 
 552:Middlewares/Third_Party/FreeRTOS/Source/stream_buffer.c **** 					/* Should only be one writer. */
 553:Middlewares/Third_Party/FreeRTOS/Source/stream_buffer.c **** 					configASSERT( pxStreamBuffer->xTaskWaitingToSend == NULL );
 554:Middlewares/Third_Party/FreeRTOS/Source/stream_buffer.c **** 					pxStreamBuffer->xTaskWaitingToSend = xTaskGetCurrentTaskHandle();
 555:Middlewares/Third_Party/FreeRTOS/Source/stream_buffer.c **** 				}
 556:Middlewares/Third_Party/FreeRTOS/Source/stream_buffer.c **** 				else
 557:Middlewares/Third_Party/FreeRTOS/Source/stream_buffer.c **** 				{
 558:Middlewares/Third_Party/FreeRTOS/Source/stream_buffer.c **** 					taskEXIT_CRITICAL();
 559:Middlewares/Third_Party/FreeRTOS/Source/stream_buffer.c **** 					break;
 560:Middlewares/Third_Party/FreeRTOS/Source/stream_buffer.c **** 				}
 561:Middlewares/Third_Party/FreeRTOS/Source/stream_buffer.c **** 			}
 562:Middlewares/Third_Party/FreeRTOS/Source/stream_buffer.c **** 			taskEXIT_CRITICAL();
 563:Middlewares/Third_Party/FreeRTOS/Source/stream_buffer.c **** 
 564:Middlewares/Third_Party/FreeRTOS/Source/stream_buffer.c **** 			traceBLOCKING_ON_STREAM_BUFFER_SEND( xStreamBuffer );
 565:Middlewares/Third_Party/FreeRTOS/Source/stream_buffer.c **** 			( void ) xTaskNotifyWait( ( uint32_t ) 0, ( uint32_t ) 0, NULL, xTicksToWait );
 566:Middlewares/Third_Party/FreeRTOS/Source/stream_buffer.c **** 			pxStreamBuffer->xTaskWaitingToSend = NULL;
 567:Middlewares/Third_Party/FreeRTOS/Source/stream_buffer.c **** 
 568:Middlewares/Third_Party/FreeRTOS/Source/stream_buffer.c **** 		} while( xTaskCheckForTimeOut( &xTimeOut, &xTicksToWait ) == pdFALSE );
 569:Middlewares/Third_Party/FreeRTOS/Source/stream_buffer.c **** 	}
 570:Middlewares/Third_Party/FreeRTOS/Source/stream_buffer.c **** 	else
 571:Middlewares/Third_Party/FreeRTOS/Source/stream_buffer.c **** 	{
 572:Middlewares/Third_Party/FreeRTOS/Source/stream_buffer.c **** 		mtCOVERAGE_TEST_MARKER();
 573:Middlewares/Third_Party/FreeRTOS/Source/stream_buffer.c **** 	}
 574:Middlewares/Third_Party/FreeRTOS/Source/stream_buffer.c **** 
 575:Middlewares/Third_Party/FreeRTOS/Source/stream_buffer.c **** 	if( xSpace == ( size_t ) 0 )
 576:Middlewares/Third_Party/FreeRTOS/Source/stream_buffer.c **** 	{
 577:Middlewares/Third_Party/FreeRTOS/Source/stream_buffer.c **** 		xSpace = xStreamBufferSpacesAvailable( pxStreamBuffer );
 578:Middlewares/Third_Party/FreeRTOS/Source/stream_buffer.c **** 	}
 579:Middlewares/Third_Party/FreeRTOS/Source/stream_buffer.c **** 	else
 580:Middlewares/Third_Party/FreeRTOS/Source/stream_buffer.c **** 	{
 581:Middlewares/Third_Party/FreeRTOS/Source/stream_buffer.c **** 		mtCOVERAGE_TEST_MARKER();
 582:Middlewares/Third_Party/FreeRTOS/Source/stream_buffer.c **** 	}
 583:Middlewares/Third_Party/FreeRTOS/Source/stream_buffer.c **** 
 584:Middlewares/Third_Party/FreeRTOS/Source/stream_buffer.c **** 	xReturn = prvWriteMessageToBuffer( pxStreamBuffer, pvTxData, xDataLengthBytes, xSpace, xRequiredSp
 585:Middlewares/Third_Party/FreeRTOS/Source/stream_buffer.c **** 
 586:Middlewares/Third_Party/FreeRTOS/Source/stream_buffer.c **** 	if( xReturn > ( size_t ) 0 )
 587:Middlewares/Third_Party/FreeRTOS/Source/stream_buffer.c **** 	{
 588:Middlewares/Third_Party/FreeRTOS/Source/stream_buffer.c **** 		traceSTREAM_BUFFER_SEND( xStreamBuffer, xReturn );
 589:Middlewares/Third_Party/FreeRTOS/Source/stream_buffer.c **** 
 590:Middlewares/Third_Party/FreeRTOS/Source/stream_buffer.c **** 		/* Was a task waiting for the data? */
 591:Middlewares/Third_Party/FreeRTOS/Source/stream_buffer.c **** 		if( prvBytesInBuffer( pxStreamBuffer ) >= pxStreamBuffer->xTriggerLevelBytes )
 592:Middlewares/Third_Party/FreeRTOS/Source/stream_buffer.c **** 		{
 593:Middlewares/Third_Party/FreeRTOS/Source/stream_buffer.c **** 			sbSEND_COMPLETED( pxStreamBuffer );
 594:Middlewares/Third_Party/FreeRTOS/Source/stream_buffer.c **** 		}
 595:Middlewares/Third_Party/FreeRTOS/Source/stream_buffer.c **** 		else
 596:Middlewares/Third_Party/FreeRTOS/Source/stream_buffer.c **** 		{
 597:Middlewares/Third_Party/FreeRTOS/Source/stream_buffer.c **** 			mtCOVERAGE_TEST_MARKER();
 598:Middlewares/Third_Party/FreeRTOS/Source/stream_buffer.c **** 		}
 599:Middlewares/Third_Party/FreeRTOS/Source/stream_buffer.c **** 	}
 600:Middlewares/Third_Party/FreeRTOS/Source/stream_buffer.c **** 	else
 601:Middlewares/Third_Party/FreeRTOS/Source/stream_buffer.c **** 	{
 602:Middlewares/Third_Party/FreeRTOS/Source/stream_buffer.c **** 		mtCOVERAGE_TEST_MARKER();
ARM GAS  /tmp/cctW9zGP.s 			page 12


 603:Middlewares/Third_Party/FreeRTOS/Source/stream_buffer.c **** 		traceSTREAM_BUFFER_SEND_FAILED( xStreamBuffer );
 604:Middlewares/Third_Party/FreeRTOS/Source/stream_buffer.c **** 	}
 605:Middlewares/Third_Party/FreeRTOS/Source/stream_buffer.c **** 
 606:Middlewares/Third_Party/FreeRTOS/Source/stream_buffer.c **** 	return xReturn;
 607:Middlewares/Third_Party/FreeRTOS/Source/stream_buffer.c **** }
 608:Middlewares/Third_Party/FreeRTOS/Source/stream_buffer.c **** /*-----------------------------------------------------------*/
 609:Middlewares/Third_Party/FreeRTOS/Source/stream_buffer.c **** 
 610:Middlewares/Third_Party/FreeRTOS/Source/stream_buffer.c **** size_t xStreamBufferSendFromISR( StreamBufferHandle_t xStreamBuffer,
 611:Middlewares/Third_Party/FreeRTOS/Source/stream_buffer.c **** 								 const void *pvTxData,
 612:Middlewares/Third_Party/FreeRTOS/Source/stream_buffer.c **** 								 size_t xDataLengthBytes,
 613:Middlewares/Third_Party/FreeRTOS/Source/stream_buffer.c **** 								 BaseType_t * const pxHigherPriorityTaskWoken )
 614:Middlewares/Third_Party/FreeRTOS/Source/stream_buffer.c **** {
 615:Middlewares/Third_Party/FreeRTOS/Source/stream_buffer.c **** StreamBuffer_t * const pxStreamBuffer = xStreamBuffer;
 616:Middlewares/Third_Party/FreeRTOS/Source/stream_buffer.c **** size_t xReturn, xSpace;
 617:Middlewares/Third_Party/FreeRTOS/Source/stream_buffer.c **** size_t xRequiredSpace = xDataLengthBytes;
 618:Middlewares/Third_Party/FreeRTOS/Source/stream_buffer.c **** 
 619:Middlewares/Third_Party/FreeRTOS/Source/stream_buffer.c **** 	configASSERT( pvTxData );
 620:Middlewares/Third_Party/FreeRTOS/Source/stream_buffer.c **** 	configASSERT( pxStreamBuffer );
 621:Middlewares/Third_Party/FreeRTOS/Source/stream_buffer.c **** 
 622:Middlewares/Third_Party/FreeRTOS/Source/stream_buffer.c **** 	/* This send function is used to write to both message buffers and stream
 623:Middlewares/Third_Party/FreeRTOS/Source/stream_buffer.c **** 	buffers.  If this is a message buffer then the space needed must be
 624:Middlewares/Third_Party/FreeRTOS/Source/stream_buffer.c **** 	increased by the amount of bytes needed to store the length of the
 625:Middlewares/Third_Party/FreeRTOS/Source/stream_buffer.c **** 	message. */
 626:Middlewares/Third_Party/FreeRTOS/Source/stream_buffer.c **** 	if( ( pxStreamBuffer->ucFlags & sbFLAGS_IS_MESSAGE_BUFFER ) != ( uint8_t ) 0 )
 627:Middlewares/Third_Party/FreeRTOS/Source/stream_buffer.c **** 	{
 628:Middlewares/Third_Party/FreeRTOS/Source/stream_buffer.c **** 		xRequiredSpace += sbBYTES_TO_STORE_MESSAGE_LENGTH;
 629:Middlewares/Third_Party/FreeRTOS/Source/stream_buffer.c **** 	}
 630:Middlewares/Third_Party/FreeRTOS/Source/stream_buffer.c **** 	else
 631:Middlewares/Third_Party/FreeRTOS/Source/stream_buffer.c **** 	{
 632:Middlewares/Third_Party/FreeRTOS/Source/stream_buffer.c **** 		mtCOVERAGE_TEST_MARKER();
 633:Middlewares/Third_Party/FreeRTOS/Source/stream_buffer.c **** 	}
 634:Middlewares/Third_Party/FreeRTOS/Source/stream_buffer.c **** 
 635:Middlewares/Third_Party/FreeRTOS/Source/stream_buffer.c **** 	xSpace = xStreamBufferSpacesAvailable( pxStreamBuffer );
 636:Middlewares/Third_Party/FreeRTOS/Source/stream_buffer.c **** 	xReturn = prvWriteMessageToBuffer( pxStreamBuffer, pvTxData, xDataLengthBytes, xSpace, xRequiredSp
 637:Middlewares/Third_Party/FreeRTOS/Source/stream_buffer.c **** 
 638:Middlewares/Third_Party/FreeRTOS/Source/stream_buffer.c **** 	if( xReturn > ( size_t ) 0 )
 639:Middlewares/Third_Party/FreeRTOS/Source/stream_buffer.c **** 	{
 640:Middlewares/Third_Party/FreeRTOS/Source/stream_buffer.c **** 		/* Was a task waiting for the data? */
 641:Middlewares/Third_Party/FreeRTOS/Source/stream_buffer.c **** 		if( prvBytesInBuffer( pxStreamBuffer ) >= pxStreamBuffer->xTriggerLevelBytes )
 642:Middlewares/Third_Party/FreeRTOS/Source/stream_buffer.c **** 		{
 643:Middlewares/Third_Party/FreeRTOS/Source/stream_buffer.c **** 			sbSEND_COMPLETE_FROM_ISR( pxStreamBuffer, pxHigherPriorityTaskWoken );
 644:Middlewares/Third_Party/FreeRTOS/Source/stream_buffer.c **** 		}
 645:Middlewares/Third_Party/FreeRTOS/Source/stream_buffer.c **** 		else
 646:Middlewares/Third_Party/FreeRTOS/Source/stream_buffer.c **** 		{
 647:Middlewares/Third_Party/FreeRTOS/Source/stream_buffer.c **** 			mtCOVERAGE_TEST_MARKER();
 648:Middlewares/Third_Party/FreeRTOS/Source/stream_buffer.c **** 		}
 649:Middlewares/Third_Party/FreeRTOS/Source/stream_buffer.c **** 	}
 650:Middlewares/Third_Party/FreeRTOS/Source/stream_buffer.c **** 	else
 651:Middlewares/Third_Party/FreeRTOS/Source/stream_buffer.c **** 	{
 652:Middlewares/Third_Party/FreeRTOS/Source/stream_buffer.c **** 		mtCOVERAGE_TEST_MARKER();
 653:Middlewares/Third_Party/FreeRTOS/Source/stream_buffer.c **** 	}
 654:Middlewares/Third_Party/FreeRTOS/Source/stream_buffer.c **** 
 655:Middlewares/Third_Party/FreeRTOS/Source/stream_buffer.c **** 	traceSTREAM_BUFFER_SEND_FROM_ISR( xStreamBuffer, xReturn );
 656:Middlewares/Third_Party/FreeRTOS/Source/stream_buffer.c **** 
 657:Middlewares/Third_Party/FreeRTOS/Source/stream_buffer.c **** 	return xReturn;
 658:Middlewares/Third_Party/FreeRTOS/Source/stream_buffer.c **** }
 659:Middlewares/Third_Party/FreeRTOS/Source/stream_buffer.c **** /*-----------------------------------------------------------*/
ARM GAS  /tmp/cctW9zGP.s 			page 13


 660:Middlewares/Third_Party/FreeRTOS/Source/stream_buffer.c **** 
 661:Middlewares/Third_Party/FreeRTOS/Source/stream_buffer.c **** static size_t prvWriteMessageToBuffer( StreamBuffer_t * const pxStreamBuffer,
 662:Middlewares/Third_Party/FreeRTOS/Source/stream_buffer.c **** 									   const void * pvTxData,
 663:Middlewares/Third_Party/FreeRTOS/Source/stream_buffer.c **** 									   size_t xDataLengthBytes,
 664:Middlewares/Third_Party/FreeRTOS/Source/stream_buffer.c **** 									   size_t xSpace,
 665:Middlewares/Third_Party/FreeRTOS/Source/stream_buffer.c **** 									   size_t xRequiredSpace )
 666:Middlewares/Third_Party/FreeRTOS/Source/stream_buffer.c **** {
 667:Middlewares/Third_Party/FreeRTOS/Source/stream_buffer.c **** 	BaseType_t xShouldWrite;
 668:Middlewares/Third_Party/FreeRTOS/Source/stream_buffer.c **** 	size_t xReturn;
 669:Middlewares/Third_Party/FreeRTOS/Source/stream_buffer.c **** 
 670:Middlewares/Third_Party/FreeRTOS/Source/stream_buffer.c **** 	if( xSpace == ( size_t ) 0 )
 671:Middlewares/Third_Party/FreeRTOS/Source/stream_buffer.c **** 	{
 672:Middlewares/Third_Party/FreeRTOS/Source/stream_buffer.c **** 		/* Doesn't matter if this is a stream buffer or a message buffer, there
 673:Middlewares/Third_Party/FreeRTOS/Source/stream_buffer.c **** 		is no space to write. */
 674:Middlewares/Third_Party/FreeRTOS/Source/stream_buffer.c **** 		xShouldWrite = pdFALSE;
 675:Middlewares/Third_Party/FreeRTOS/Source/stream_buffer.c **** 	}
 676:Middlewares/Third_Party/FreeRTOS/Source/stream_buffer.c **** 	else if( ( pxStreamBuffer->ucFlags & sbFLAGS_IS_MESSAGE_BUFFER ) == ( uint8_t ) 0 )
 677:Middlewares/Third_Party/FreeRTOS/Source/stream_buffer.c **** 	{
 678:Middlewares/Third_Party/FreeRTOS/Source/stream_buffer.c **** 		/* This is a stream buffer, as opposed to a message buffer, so writing a
 679:Middlewares/Third_Party/FreeRTOS/Source/stream_buffer.c **** 		stream of bytes rather than discrete messages.  Write as many bytes as
 680:Middlewares/Third_Party/FreeRTOS/Source/stream_buffer.c **** 		possible. */
 681:Middlewares/Third_Party/FreeRTOS/Source/stream_buffer.c **** 		xShouldWrite = pdTRUE;
 682:Middlewares/Third_Party/FreeRTOS/Source/stream_buffer.c **** 		xDataLengthBytes = configMIN( xDataLengthBytes, xSpace );
 683:Middlewares/Third_Party/FreeRTOS/Source/stream_buffer.c **** 	}
 684:Middlewares/Third_Party/FreeRTOS/Source/stream_buffer.c **** 	else if( xSpace >= xRequiredSpace )
 685:Middlewares/Third_Party/FreeRTOS/Source/stream_buffer.c **** 	{
 686:Middlewares/Third_Party/FreeRTOS/Source/stream_buffer.c **** 		/* This is a message buffer, as opposed to a stream buffer, and there
 687:Middlewares/Third_Party/FreeRTOS/Source/stream_buffer.c **** 		is enough space to write both the message length and the message itself
 688:Middlewares/Third_Party/FreeRTOS/Source/stream_buffer.c **** 		into the buffer.  Start by writing the length of the data, the data
 689:Middlewares/Third_Party/FreeRTOS/Source/stream_buffer.c **** 		itself will be written later in this function. */
 690:Middlewares/Third_Party/FreeRTOS/Source/stream_buffer.c **** 		xShouldWrite = pdTRUE;
 691:Middlewares/Third_Party/FreeRTOS/Source/stream_buffer.c **** 		( void ) prvWriteBytesToBuffer( pxStreamBuffer, ( const uint8_t * ) &( xDataLengthBytes ), sbBYTE
 692:Middlewares/Third_Party/FreeRTOS/Source/stream_buffer.c **** 	}
 693:Middlewares/Third_Party/FreeRTOS/Source/stream_buffer.c **** 	else
 694:Middlewares/Third_Party/FreeRTOS/Source/stream_buffer.c **** 	{
 695:Middlewares/Third_Party/FreeRTOS/Source/stream_buffer.c **** 		/* There is space available, but not enough space. */
 696:Middlewares/Third_Party/FreeRTOS/Source/stream_buffer.c **** 		xShouldWrite = pdFALSE;
 697:Middlewares/Third_Party/FreeRTOS/Source/stream_buffer.c **** 	}
 698:Middlewares/Third_Party/FreeRTOS/Source/stream_buffer.c **** 
 699:Middlewares/Third_Party/FreeRTOS/Source/stream_buffer.c **** 	if( xShouldWrite != pdFALSE )
 700:Middlewares/Third_Party/FreeRTOS/Source/stream_buffer.c **** 	{
 701:Middlewares/Third_Party/FreeRTOS/Source/stream_buffer.c **** 		/* Writes the data itself. */
 702:Middlewares/Third_Party/FreeRTOS/Source/stream_buffer.c **** 		xReturn = prvWriteBytesToBuffer( pxStreamBuffer, ( const uint8_t * ) pvTxData, xDataLengthBytes )
 703:Middlewares/Third_Party/FreeRTOS/Source/stream_buffer.c **** 	}
 704:Middlewares/Third_Party/FreeRTOS/Source/stream_buffer.c **** 	else
 705:Middlewares/Third_Party/FreeRTOS/Source/stream_buffer.c **** 	{
 706:Middlewares/Third_Party/FreeRTOS/Source/stream_buffer.c **** 		xReturn = 0;
 707:Middlewares/Third_Party/FreeRTOS/Source/stream_buffer.c **** 	}
 708:Middlewares/Third_Party/FreeRTOS/Source/stream_buffer.c **** 
 709:Middlewares/Third_Party/FreeRTOS/Source/stream_buffer.c **** 	return xReturn;
 710:Middlewares/Third_Party/FreeRTOS/Source/stream_buffer.c **** }
 711:Middlewares/Third_Party/FreeRTOS/Source/stream_buffer.c **** /*-----------------------------------------------------------*/
 712:Middlewares/Third_Party/FreeRTOS/Source/stream_buffer.c **** 
 713:Middlewares/Third_Party/FreeRTOS/Source/stream_buffer.c **** size_t xStreamBufferReceive( StreamBufferHandle_t xStreamBuffer,
 714:Middlewares/Third_Party/FreeRTOS/Source/stream_buffer.c **** 							 void *pvRxData,
 715:Middlewares/Third_Party/FreeRTOS/Source/stream_buffer.c **** 							 size_t xBufferLengthBytes,
 716:Middlewares/Third_Party/FreeRTOS/Source/stream_buffer.c **** 							 TickType_t xTicksToWait )
ARM GAS  /tmp/cctW9zGP.s 			page 14


 717:Middlewares/Third_Party/FreeRTOS/Source/stream_buffer.c **** {
 718:Middlewares/Third_Party/FreeRTOS/Source/stream_buffer.c **** StreamBuffer_t * const pxStreamBuffer = xStreamBuffer;
 719:Middlewares/Third_Party/FreeRTOS/Source/stream_buffer.c **** size_t xReceivedLength = 0, xBytesAvailable, xBytesToStoreMessageLength;
 720:Middlewares/Third_Party/FreeRTOS/Source/stream_buffer.c **** 
 721:Middlewares/Third_Party/FreeRTOS/Source/stream_buffer.c **** 	configASSERT( pvRxData );
 722:Middlewares/Third_Party/FreeRTOS/Source/stream_buffer.c **** 	configASSERT( pxStreamBuffer );
 723:Middlewares/Third_Party/FreeRTOS/Source/stream_buffer.c **** 
 724:Middlewares/Third_Party/FreeRTOS/Source/stream_buffer.c **** 	/* This receive function is used by both message buffers, which store
 725:Middlewares/Third_Party/FreeRTOS/Source/stream_buffer.c **** 	discrete messages, and stream buffers, which store a continuous stream of
 726:Middlewares/Third_Party/FreeRTOS/Source/stream_buffer.c **** 	bytes.  Discrete messages include an additional
 727:Middlewares/Third_Party/FreeRTOS/Source/stream_buffer.c **** 	sbBYTES_TO_STORE_MESSAGE_LENGTH bytes that hold the length of the
 728:Middlewares/Third_Party/FreeRTOS/Source/stream_buffer.c **** 	message. */
 729:Middlewares/Third_Party/FreeRTOS/Source/stream_buffer.c **** 	if( ( pxStreamBuffer->ucFlags & sbFLAGS_IS_MESSAGE_BUFFER ) != ( uint8_t ) 0 )
 730:Middlewares/Third_Party/FreeRTOS/Source/stream_buffer.c **** 	{
 731:Middlewares/Third_Party/FreeRTOS/Source/stream_buffer.c **** 		xBytesToStoreMessageLength = sbBYTES_TO_STORE_MESSAGE_LENGTH;
 732:Middlewares/Third_Party/FreeRTOS/Source/stream_buffer.c **** 	}
 733:Middlewares/Third_Party/FreeRTOS/Source/stream_buffer.c **** 	else
 734:Middlewares/Third_Party/FreeRTOS/Source/stream_buffer.c **** 	{
 735:Middlewares/Third_Party/FreeRTOS/Source/stream_buffer.c **** 		xBytesToStoreMessageLength = 0;
 736:Middlewares/Third_Party/FreeRTOS/Source/stream_buffer.c **** 	}
 737:Middlewares/Third_Party/FreeRTOS/Source/stream_buffer.c **** 
 738:Middlewares/Third_Party/FreeRTOS/Source/stream_buffer.c **** 	if( xTicksToWait != ( TickType_t ) 0 )
 739:Middlewares/Third_Party/FreeRTOS/Source/stream_buffer.c **** 	{
 740:Middlewares/Third_Party/FreeRTOS/Source/stream_buffer.c **** 		/* Checking if there is data and clearing the notification state must be
 741:Middlewares/Third_Party/FreeRTOS/Source/stream_buffer.c **** 		performed atomically. */
 742:Middlewares/Third_Party/FreeRTOS/Source/stream_buffer.c **** 		taskENTER_CRITICAL();
 743:Middlewares/Third_Party/FreeRTOS/Source/stream_buffer.c **** 		{
 744:Middlewares/Third_Party/FreeRTOS/Source/stream_buffer.c **** 			xBytesAvailable = prvBytesInBuffer( pxStreamBuffer );
 745:Middlewares/Third_Party/FreeRTOS/Source/stream_buffer.c **** 
 746:Middlewares/Third_Party/FreeRTOS/Source/stream_buffer.c **** 			/* If this function was invoked by a message buffer read then
 747:Middlewares/Third_Party/FreeRTOS/Source/stream_buffer.c **** 			xBytesToStoreMessageLength holds the number of bytes used to hold
 748:Middlewares/Third_Party/FreeRTOS/Source/stream_buffer.c **** 			the length of the next discrete message.  If this function was
 749:Middlewares/Third_Party/FreeRTOS/Source/stream_buffer.c **** 			invoked by a stream buffer read then xBytesToStoreMessageLength will
 750:Middlewares/Third_Party/FreeRTOS/Source/stream_buffer.c **** 			be 0. */
 751:Middlewares/Third_Party/FreeRTOS/Source/stream_buffer.c **** 			if( xBytesAvailable <= xBytesToStoreMessageLength )
 752:Middlewares/Third_Party/FreeRTOS/Source/stream_buffer.c **** 			{
 753:Middlewares/Third_Party/FreeRTOS/Source/stream_buffer.c **** 				/* Clear notification state as going to wait for data. */
 754:Middlewares/Third_Party/FreeRTOS/Source/stream_buffer.c **** 				( void ) xTaskNotifyStateClear( NULL );
 755:Middlewares/Third_Party/FreeRTOS/Source/stream_buffer.c **** 
 756:Middlewares/Third_Party/FreeRTOS/Source/stream_buffer.c **** 				/* Should only be one reader. */
 757:Middlewares/Third_Party/FreeRTOS/Source/stream_buffer.c **** 				configASSERT( pxStreamBuffer->xTaskWaitingToReceive == NULL );
 758:Middlewares/Third_Party/FreeRTOS/Source/stream_buffer.c **** 				pxStreamBuffer->xTaskWaitingToReceive = xTaskGetCurrentTaskHandle();
 759:Middlewares/Third_Party/FreeRTOS/Source/stream_buffer.c **** 			}
 760:Middlewares/Third_Party/FreeRTOS/Source/stream_buffer.c **** 			else
 761:Middlewares/Third_Party/FreeRTOS/Source/stream_buffer.c **** 			{
 762:Middlewares/Third_Party/FreeRTOS/Source/stream_buffer.c **** 				mtCOVERAGE_TEST_MARKER();
 763:Middlewares/Third_Party/FreeRTOS/Source/stream_buffer.c **** 			}
 764:Middlewares/Third_Party/FreeRTOS/Source/stream_buffer.c **** 		}
 765:Middlewares/Third_Party/FreeRTOS/Source/stream_buffer.c **** 		taskEXIT_CRITICAL();
 766:Middlewares/Third_Party/FreeRTOS/Source/stream_buffer.c **** 
 767:Middlewares/Third_Party/FreeRTOS/Source/stream_buffer.c **** 		if( xBytesAvailable <= xBytesToStoreMessageLength )
 768:Middlewares/Third_Party/FreeRTOS/Source/stream_buffer.c **** 		{
 769:Middlewares/Third_Party/FreeRTOS/Source/stream_buffer.c **** 			/* Wait for data to be available. */
 770:Middlewares/Third_Party/FreeRTOS/Source/stream_buffer.c **** 			traceBLOCKING_ON_STREAM_BUFFER_RECEIVE( xStreamBuffer );
 771:Middlewares/Third_Party/FreeRTOS/Source/stream_buffer.c **** 			( void ) xTaskNotifyWait( ( uint32_t ) 0, ( uint32_t ) 0, NULL, xTicksToWait );
 772:Middlewares/Third_Party/FreeRTOS/Source/stream_buffer.c **** 			pxStreamBuffer->xTaskWaitingToReceive = NULL;
 773:Middlewares/Third_Party/FreeRTOS/Source/stream_buffer.c **** 
ARM GAS  /tmp/cctW9zGP.s 			page 15


 774:Middlewares/Third_Party/FreeRTOS/Source/stream_buffer.c **** 			/* Recheck the data available after blocking. */
 775:Middlewares/Third_Party/FreeRTOS/Source/stream_buffer.c **** 			xBytesAvailable = prvBytesInBuffer( pxStreamBuffer );
 776:Middlewares/Third_Party/FreeRTOS/Source/stream_buffer.c **** 		}
 777:Middlewares/Third_Party/FreeRTOS/Source/stream_buffer.c **** 		else
 778:Middlewares/Third_Party/FreeRTOS/Source/stream_buffer.c **** 		{
 779:Middlewares/Third_Party/FreeRTOS/Source/stream_buffer.c **** 			mtCOVERAGE_TEST_MARKER();
 780:Middlewares/Third_Party/FreeRTOS/Source/stream_buffer.c **** 		}
 781:Middlewares/Third_Party/FreeRTOS/Source/stream_buffer.c **** 	}
 782:Middlewares/Third_Party/FreeRTOS/Source/stream_buffer.c **** 	else
 783:Middlewares/Third_Party/FreeRTOS/Source/stream_buffer.c **** 	{
 784:Middlewares/Third_Party/FreeRTOS/Source/stream_buffer.c **** 		xBytesAvailable = prvBytesInBuffer( pxStreamBuffer );
 785:Middlewares/Third_Party/FreeRTOS/Source/stream_buffer.c **** 	}
 786:Middlewares/Third_Party/FreeRTOS/Source/stream_buffer.c **** 
 787:Middlewares/Third_Party/FreeRTOS/Source/stream_buffer.c **** 	/* Whether receiving a discrete message (where xBytesToStoreMessageLength
 788:Middlewares/Third_Party/FreeRTOS/Source/stream_buffer.c **** 	holds the number of bytes used to store the message length) or a stream of
 789:Middlewares/Third_Party/FreeRTOS/Source/stream_buffer.c **** 	bytes (where xBytesToStoreMessageLength is zero), the number of bytes
 790:Middlewares/Third_Party/FreeRTOS/Source/stream_buffer.c **** 	available must be greater than xBytesToStoreMessageLength to be able to
 791:Middlewares/Third_Party/FreeRTOS/Source/stream_buffer.c **** 	read bytes from the buffer. */
 792:Middlewares/Third_Party/FreeRTOS/Source/stream_buffer.c **** 	if( xBytesAvailable > xBytesToStoreMessageLength )
 793:Middlewares/Third_Party/FreeRTOS/Source/stream_buffer.c **** 	{
 794:Middlewares/Third_Party/FreeRTOS/Source/stream_buffer.c **** 		xReceivedLength = prvReadMessageFromBuffer( pxStreamBuffer, pvRxData, xBufferLengthBytes, xBytesA
 795:Middlewares/Third_Party/FreeRTOS/Source/stream_buffer.c **** 
 796:Middlewares/Third_Party/FreeRTOS/Source/stream_buffer.c **** 		/* Was a task waiting for space in the buffer? */
 797:Middlewares/Third_Party/FreeRTOS/Source/stream_buffer.c **** 		if( xReceivedLength != ( size_t ) 0 )
 798:Middlewares/Third_Party/FreeRTOS/Source/stream_buffer.c **** 		{
 799:Middlewares/Third_Party/FreeRTOS/Source/stream_buffer.c **** 			traceSTREAM_BUFFER_RECEIVE( xStreamBuffer, xReceivedLength );
 800:Middlewares/Third_Party/FreeRTOS/Source/stream_buffer.c **** 			sbRECEIVE_COMPLETED( pxStreamBuffer );
 801:Middlewares/Third_Party/FreeRTOS/Source/stream_buffer.c **** 		}
 802:Middlewares/Third_Party/FreeRTOS/Source/stream_buffer.c **** 		else
 803:Middlewares/Third_Party/FreeRTOS/Source/stream_buffer.c **** 		{
 804:Middlewares/Third_Party/FreeRTOS/Source/stream_buffer.c **** 			mtCOVERAGE_TEST_MARKER();
 805:Middlewares/Third_Party/FreeRTOS/Source/stream_buffer.c **** 		}
 806:Middlewares/Third_Party/FreeRTOS/Source/stream_buffer.c **** 	}
 807:Middlewares/Third_Party/FreeRTOS/Source/stream_buffer.c **** 	else
 808:Middlewares/Third_Party/FreeRTOS/Source/stream_buffer.c **** 	{
 809:Middlewares/Third_Party/FreeRTOS/Source/stream_buffer.c **** 		traceSTREAM_BUFFER_RECEIVE_FAILED( xStreamBuffer );
 810:Middlewares/Third_Party/FreeRTOS/Source/stream_buffer.c **** 		mtCOVERAGE_TEST_MARKER();
 811:Middlewares/Third_Party/FreeRTOS/Source/stream_buffer.c **** 	}
 812:Middlewares/Third_Party/FreeRTOS/Source/stream_buffer.c **** 
 813:Middlewares/Third_Party/FreeRTOS/Source/stream_buffer.c **** 	return xReceivedLength;
 814:Middlewares/Third_Party/FreeRTOS/Source/stream_buffer.c **** }
 815:Middlewares/Third_Party/FreeRTOS/Source/stream_buffer.c **** /*-----------------------------------------------------------*/
 816:Middlewares/Third_Party/FreeRTOS/Source/stream_buffer.c **** 
 817:Middlewares/Third_Party/FreeRTOS/Source/stream_buffer.c **** size_t xStreamBufferNextMessageLengthBytes( StreamBufferHandle_t xStreamBuffer )
 818:Middlewares/Third_Party/FreeRTOS/Source/stream_buffer.c **** {
 819:Middlewares/Third_Party/FreeRTOS/Source/stream_buffer.c **** StreamBuffer_t * const pxStreamBuffer = xStreamBuffer;
 820:Middlewares/Third_Party/FreeRTOS/Source/stream_buffer.c **** size_t xReturn, xBytesAvailable, xOriginalTail;
 821:Middlewares/Third_Party/FreeRTOS/Source/stream_buffer.c **** configMESSAGE_BUFFER_LENGTH_TYPE xTempReturn;
 822:Middlewares/Third_Party/FreeRTOS/Source/stream_buffer.c **** 
 823:Middlewares/Third_Party/FreeRTOS/Source/stream_buffer.c **** 	configASSERT( pxStreamBuffer );
 824:Middlewares/Third_Party/FreeRTOS/Source/stream_buffer.c **** 
 825:Middlewares/Third_Party/FreeRTOS/Source/stream_buffer.c **** 	/* Ensure the stream buffer is being used as a message buffer. */
 826:Middlewares/Third_Party/FreeRTOS/Source/stream_buffer.c **** 	if( ( pxStreamBuffer->ucFlags & sbFLAGS_IS_MESSAGE_BUFFER ) != ( uint8_t ) 0 )
 827:Middlewares/Third_Party/FreeRTOS/Source/stream_buffer.c **** 	{
 828:Middlewares/Third_Party/FreeRTOS/Source/stream_buffer.c **** 		xBytesAvailable = prvBytesInBuffer( pxStreamBuffer );
 829:Middlewares/Third_Party/FreeRTOS/Source/stream_buffer.c **** 		if( xBytesAvailable > sbBYTES_TO_STORE_MESSAGE_LENGTH )
 830:Middlewares/Third_Party/FreeRTOS/Source/stream_buffer.c **** 		{
ARM GAS  /tmp/cctW9zGP.s 			page 16


 831:Middlewares/Third_Party/FreeRTOS/Source/stream_buffer.c **** 			/* The number of bytes available is greater than the number of bytes
 832:Middlewares/Third_Party/FreeRTOS/Source/stream_buffer.c **** 			required to hold the length of the next message, so another message
 833:Middlewares/Third_Party/FreeRTOS/Source/stream_buffer.c **** 			is available.  Return its length without removing the length bytes
 834:Middlewares/Third_Party/FreeRTOS/Source/stream_buffer.c **** 			from the buffer.  A copy of the tail is stored so the buffer can be
 835:Middlewares/Third_Party/FreeRTOS/Source/stream_buffer.c **** 			returned to its prior state as the message is not actually being
 836:Middlewares/Third_Party/FreeRTOS/Source/stream_buffer.c **** 			removed from the buffer. */
 837:Middlewares/Third_Party/FreeRTOS/Source/stream_buffer.c **** 			xOriginalTail = pxStreamBuffer->xTail;
 838:Middlewares/Third_Party/FreeRTOS/Source/stream_buffer.c **** 			( void ) prvReadBytesFromBuffer( pxStreamBuffer, ( uint8_t * ) &xTempReturn, sbBYTES_TO_STORE_ME
 839:Middlewares/Third_Party/FreeRTOS/Source/stream_buffer.c **** 			xReturn = ( size_t ) xTempReturn;
 840:Middlewares/Third_Party/FreeRTOS/Source/stream_buffer.c **** 			pxStreamBuffer->xTail = xOriginalTail;
 841:Middlewares/Third_Party/FreeRTOS/Source/stream_buffer.c **** 		}
 842:Middlewares/Third_Party/FreeRTOS/Source/stream_buffer.c **** 		else
 843:Middlewares/Third_Party/FreeRTOS/Source/stream_buffer.c **** 		{
 844:Middlewares/Third_Party/FreeRTOS/Source/stream_buffer.c **** 			/* The minimum amount of bytes in a message buffer is
 845:Middlewares/Third_Party/FreeRTOS/Source/stream_buffer.c **** 			( sbBYTES_TO_STORE_MESSAGE_LENGTH + 1 ), so if xBytesAvailable is
 846:Middlewares/Third_Party/FreeRTOS/Source/stream_buffer.c **** 			less than sbBYTES_TO_STORE_MESSAGE_LENGTH the only other valid
 847:Middlewares/Third_Party/FreeRTOS/Source/stream_buffer.c **** 			value is 0. */
 848:Middlewares/Third_Party/FreeRTOS/Source/stream_buffer.c **** 			configASSERT( xBytesAvailable == 0 );
 849:Middlewares/Third_Party/FreeRTOS/Source/stream_buffer.c **** 			xReturn = 0;
 850:Middlewares/Third_Party/FreeRTOS/Source/stream_buffer.c **** 		}
 851:Middlewares/Third_Party/FreeRTOS/Source/stream_buffer.c **** 	}
 852:Middlewares/Third_Party/FreeRTOS/Source/stream_buffer.c **** 	else
 853:Middlewares/Third_Party/FreeRTOS/Source/stream_buffer.c **** 	{
 854:Middlewares/Third_Party/FreeRTOS/Source/stream_buffer.c **** 		xReturn = 0;
 855:Middlewares/Third_Party/FreeRTOS/Source/stream_buffer.c **** 	}
 856:Middlewares/Third_Party/FreeRTOS/Source/stream_buffer.c **** 
 857:Middlewares/Third_Party/FreeRTOS/Source/stream_buffer.c **** 	return xReturn;
 858:Middlewares/Third_Party/FreeRTOS/Source/stream_buffer.c **** }
 859:Middlewares/Third_Party/FreeRTOS/Source/stream_buffer.c **** /*-----------------------------------------------------------*/
 860:Middlewares/Third_Party/FreeRTOS/Source/stream_buffer.c **** 
 861:Middlewares/Third_Party/FreeRTOS/Source/stream_buffer.c **** size_t xStreamBufferReceiveFromISR( StreamBufferHandle_t xStreamBuffer,
 862:Middlewares/Third_Party/FreeRTOS/Source/stream_buffer.c **** 									void *pvRxData,
 863:Middlewares/Third_Party/FreeRTOS/Source/stream_buffer.c **** 									size_t xBufferLengthBytes,
 864:Middlewares/Third_Party/FreeRTOS/Source/stream_buffer.c **** 									BaseType_t * const pxHigherPriorityTaskWoken )
 865:Middlewares/Third_Party/FreeRTOS/Source/stream_buffer.c **** {
 866:Middlewares/Third_Party/FreeRTOS/Source/stream_buffer.c **** StreamBuffer_t * const pxStreamBuffer = xStreamBuffer;
 867:Middlewares/Third_Party/FreeRTOS/Source/stream_buffer.c **** size_t xReceivedLength = 0, xBytesAvailable, xBytesToStoreMessageLength;
 868:Middlewares/Third_Party/FreeRTOS/Source/stream_buffer.c **** 
 869:Middlewares/Third_Party/FreeRTOS/Source/stream_buffer.c **** 	configASSERT( pvRxData );
 870:Middlewares/Third_Party/FreeRTOS/Source/stream_buffer.c **** 	configASSERT( pxStreamBuffer );
 871:Middlewares/Third_Party/FreeRTOS/Source/stream_buffer.c **** 
 872:Middlewares/Third_Party/FreeRTOS/Source/stream_buffer.c **** 	/* This receive function is used by both message buffers, which store
 873:Middlewares/Third_Party/FreeRTOS/Source/stream_buffer.c **** 	discrete messages, and stream buffers, which store a continuous stream of
 874:Middlewares/Third_Party/FreeRTOS/Source/stream_buffer.c **** 	bytes.  Discrete messages include an additional
 875:Middlewares/Third_Party/FreeRTOS/Source/stream_buffer.c **** 	sbBYTES_TO_STORE_MESSAGE_LENGTH bytes that hold the length of the
 876:Middlewares/Third_Party/FreeRTOS/Source/stream_buffer.c **** 	message. */
 877:Middlewares/Third_Party/FreeRTOS/Source/stream_buffer.c **** 	if( ( pxStreamBuffer->ucFlags & sbFLAGS_IS_MESSAGE_BUFFER ) != ( uint8_t ) 0 )
 878:Middlewares/Third_Party/FreeRTOS/Source/stream_buffer.c **** 	{
 879:Middlewares/Third_Party/FreeRTOS/Source/stream_buffer.c **** 		xBytesToStoreMessageLength = sbBYTES_TO_STORE_MESSAGE_LENGTH;
 880:Middlewares/Third_Party/FreeRTOS/Source/stream_buffer.c **** 	}
 881:Middlewares/Third_Party/FreeRTOS/Source/stream_buffer.c **** 	else
 882:Middlewares/Third_Party/FreeRTOS/Source/stream_buffer.c **** 	{
 883:Middlewares/Third_Party/FreeRTOS/Source/stream_buffer.c **** 		xBytesToStoreMessageLength = 0;
 884:Middlewares/Third_Party/FreeRTOS/Source/stream_buffer.c **** 	}
 885:Middlewares/Third_Party/FreeRTOS/Source/stream_buffer.c **** 
 886:Middlewares/Third_Party/FreeRTOS/Source/stream_buffer.c **** 	xBytesAvailable = prvBytesInBuffer( pxStreamBuffer );
 887:Middlewares/Third_Party/FreeRTOS/Source/stream_buffer.c **** 
ARM GAS  /tmp/cctW9zGP.s 			page 17


 888:Middlewares/Third_Party/FreeRTOS/Source/stream_buffer.c **** 	/* Whether receiving a discrete message (where xBytesToStoreMessageLength
 889:Middlewares/Third_Party/FreeRTOS/Source/stream_buffer.c **** 	holds the number of bytes used to store the message length) or a stream of
 890:Middlewares/Third_Party/FreeRTOS/Source/stream_buffer.c **** 	bytes (where xBytesToStoreMessageLength is zero), the number of bytes
 891:Middlewares/Third_Party/FreeRTOS/Source/stream_buffer.c **** 	available must be greater than xBytesToStoreMessageLength to be able to
 892:Middlewares/Third_Party/FreeRTOS/Source/stream_buffer.c **** 	read bytes from the buffer. */
 893:Middlewares/Third_Party/FreeRTOS/Source/stream_buffer.c **** 	if( xBytesAvailable > xBytesToStoreMessageLength )
 894:Middlewares/Third_Party/FreeRTOS/Source/stream_buffer.c **** 	{
 895:Middlewares/Third_Party/FreeRTOS/Source/stream_buffer.c **** 		xReceivedLength = prvReadMessageFromBuffer( pxStreamBuffer, pvRxData, xBufferLengthBytes, xBytesA
 896:Middlewares/Third_Party/FreeRTOS/Source/stream_buffer.c **** 
 897:Middlewares/Third_Party/FreeRTOS/Source/stream_buffer.c **** 		/* Was a task waiting for space in the buffer? */
 898:Middlewares/Third_Party/FreeRTOS/Source/stream_buffer.c **** 		if( xReceivedLength != ( size_t ) 0 )
 899:Middlewares/Third_Party/FreeRTOS/Source/stream_buffer.c **** 		{
 900:Middlewares/Third_Party/FreeRTOS/Source/stream_buffer.c **** 			sbRECEIVE_COMPLETED_FROM_ISR( pxStreamBuffer, pxHigherPriorityTaskWoken );
 901:Middlewares/Third_Party/FreeRTOS/Source/stream_buffer.c **** 		}
 902:Middlewares/Third_Party/FreeRTOS/Source/stream_buffer.c **** 		else
 903:Middlewares/Third_Party/FreeRTOS/Source/stream_buffer.c **** 		{
 904:Middlewares/Third_Party/FreeRTOS/Source/stream_buffer.c **** 			mtCOVERAGE_TEST_MARKER();
 905:Middlewares/Third_Party/FreeRTOS/Source/stream_buffer.c **** 		}
 906:Middlewares/Third_Party/FreeRTOS/Source/stream_buffer.c **** 	}
 907:Middlewares/Third_Party/FreeRTOS/Source/stream_buffer.c **** 	else
 908:Middlewares/Third_Party/FreeRTOS/Source/stream_buffer.c **** 	{
 909:Middlewares/Third_Party/FreeRTOS/Source/stream_buffer.c **** 		mtCOVERAGE_TEST_MARKER();
 910:Middlewares/Third_Party/FreeRTOS/Source/stream_buffer.c **** 	}
 911:Middlewares/Third_Party/FreeRTOS/Source/stream_buffer.c **** 
 912:Middlewares/Third_Party/FreeRTOS/Source/stream_buffer.c **** 	traceSTREAM_BUFFER_RECEIVE_FROM_ISR( xStreamBuffer, xReceivedLength );
 913:Middlewares/Third_Party/FreeRTOS/Source/stream_buffer.c **** 
 914:Middlewares/Third_Party/FreeRTOS/Source/stream_buffer.c **** 	return xReceivedLength;
 915:Middlewares/Third_Party/FreeRTOS/Source/stream_buffer.c **** }
 916:Middlewares/Third_Party/FreeRTOS/Source/stream_buffer.c **** /*-----------------------------------------------------------*/
 917:Middlewares/Third_Party/FreeRTOS/Source/stream_buffer.c **** 
 918:Middlewares/Third_Party/FreeRTOS/Source/stream_buffer.c **** static size_t prvReadMessageFromBuffer( StreamBuffer_t *pxStreamBuffer,
 919:Middlewares/Third_Party/FreeRTOS/Source/stream_buffer.c **** 										void *pvRxData,
 920:Middlewares/Third_Party/FreeRTOS/Source/stream_buffer.c **** 										size_t xBufferLengthBytes,
 921:Middlewares/Third_Party/FreeRTOS/Source/stream_buffer.c **** 										size_t xBytesAvailable,
 922:Middlewares/Third_Party/FreeRTOS/Source/stream_buffer.c **** 										size_t xBytesToStoreMessageLength )
 923:Middlewares/Third_Party/FreeRTOS/Source/stream_buffer.c **** {
 924:Middlewares/Third_Party/FreeRTOS/Source/stream_buffer.c **** size_t xOriginalTail, xReceivedLength, xNextMessageLength;
 925:Middlewares/Third_Party/FreeRTOS/Source/stream_buffer.c **** configMESSAGE_BUFFER_LENGTH_TYPE xTempNextMessageLength;
 926:Middlewares/Third_Party/FreeRTOS/Source/stream_buffer.c **** 
 927:Middlewares/Third_Party/FreeRTOS/Source/stream_buffer.c **** 	if( xBytesToStoreMessageLength != ( size_t ) 0 )
 928:Middlewares/Third_Party/FreeRTOS/Source/stream_buffer.c **** 	{
 929:Middlewares/Third_Party/FreeRTOS/Source/stream_buffer.c **** 		/* A discrete message is being received.  First receive the length
 930:Middlewares/Third_Party/FreeRTOS/Source/stream_buffer.c **** 		of the message.  A copy of the tail is stored so the buffer can be
 931:Middlewares/Third_Party/FreeRTOS/Source/stream_buffer.c **** 		returned to its prior state if the length of the message is too
 932:Middlewares/Third_Party/FreeRTOS/Source/stream_buffer.c **** 		large for the provided buffer. */
 933:Middlewares/Third_Party/FreeRTOS/Source/stream_buffer.c **** 		xOriginalTail = pxStreamBuffer->xTail;
 934:Middlewares/Third_Party/FreeRTOS/Source/stream_buffer.c **** 		( void ) prvReadBytesFromBuffer( pxStreamBuffer, ( uint8_t * ) &xTempNextMessageLength, xBytesToS
 935:Middlewares/Third_Party/FreeRTOS/Source/stream_buffer.c **** 		xNextMessageLength = ( size_t ) xTempNextMessageLength;
 936:Middlewares/Third_Party/FreeRTOS/Source/stream_buffer.c **** 
 937:Middlewares/Third_Party/FreeRTOS/Source/stream_buffer.c **** 		/* Reduce the number of bytes available by the number of bytes just
 938:Middlewares/Third_Party/FreeRTOS/Source/stream_buffer.c **** 		read out. */
 939:Middlewares/Third_Party/FreeRTOS/Source/stream_buffer.c **** 		xBytesAvailable -= xBytesToStoreMessageLength;
 940:Middlewares/Third_Party/FreeRTOS/Source/stream_buffer.c **** 
 941:Middlewares/Third_Party/FreeRTOS/Source/stream_buffer.c **** 		/* Check there is enough space in the buffer provided by the
 942:Middlewares/Third_Party/FreeRTOS/Source/stream_buffer.c **** 		user. */
 943:Middlewares/Third_Party/FreeRTOS/Source/stream_buffer.c **** 		if( xNextMessageLength > xBufferLengthBytes )
 944:Middlewares/Third_Party/FreeRTOS/Source/stream_buffer.c **** 		{
ARM GAS  /tmp/cctW9zGP.s 			page 18


 945:Middlewares/Third_Party/FreeRTOS/Source/stream_buffer.c **** 			/* The user has provided insufficient space to read the message
 946:Middlewares/Third_Party/FreeRTOS/Source/stream_buffer.c **** 			so return the buffer to its previous state (so the length of
 947:Middlewares/Third_Party/FreeRTOS/Source/stream_buffer.c **** 			the message is in the buffer again). */
 948:Middlewares/Third_Party/FreeRTOS/Source/stream_buffer.c **** 			pxStreamBuffer->xTail = xOriginalTail;
 949:Middlewares/Third_Party/FreeRTOS/Source/stream_buffer.c **** 			xNextMessageLength = 0;
 950:Middlewares/Third_Party/FreeRTOS/Source/stream_buffer.c **** 		}
 951:Middlewares/Third_Party/FreeRTOS/Source/stream_buffer.c **** 		else
 952:Middlewares/Third_Party/FreeRTOS/Source/stream_buffer.c **** 		{
 953:Middlewares/Third_Party/FreeRTOS/Source/stream_buffer.c **** 			mtCOVERAGE_TEST_MARKER();
 954:Middlewares/Third_Party/FreeRTOS/Source/stream_buffer.c **** 		}
 955:Middlewares/Third_Party/FreeRTOS/Source/stream_buffer.c **** 	}
 956:Middlewares/Third_Party/FreeRTOS/Source/stream_buffer.c **** 	else
 957:Middlewares/Third_Party/FreeRTOS/Source/stream_buffer.c **** 	{
 958:Middlewares/Third_Party/FreeRTOS/Source/stream_buffer.c **** 		/* A stream of bytes is being received (as opposed to a discrete
 959:Middlewares/Third_Party/FreeRTOS/Source/stream_buffer.c **** 		message), so read as many bytes as possible. */
 960:Middlewares/Third_Party/FreeRTOS/Source/stream_buffer.c **** 		xNextMessageLength = xBufferLengthBytes;
 961:Middlewares/Third_Party/FreeRTOS/Source/stream_buffer.c **** 	}
 962:Middlewares/Third_Party/FreeRTOS/Source/stream_buffer.c **** 
 963:Middlewares/Third_Party/FreeRTOS/Source/stream_buffer.c **** 	/* Read the actual data. */
 964:Middlewares/Third_Party/FreeRTOS/Source/stream_buffer.c **** 	xReceivedLength = prvReadBytesFromBuffer( pxStreamBuffer, ( uint8_t * ) pvRxData, xNextMessageLeng
 965:Middlewares/Third_Party/FreeRTOS/Source/stream_buffer.c **** 
 966:Middlewares/Third_Party/FreeRTOS/Source/stream_buffer.c **** 	return xReceivedLength;
 967:Middlewares/Third_Party/FreeRTOS/Source/stream_buffer.c **** }
 968:Middlewares/Third_Party/FreeRTOS/Source/stream_buffer.c **** /*-----------------------------------------------------------*/
 969:Middlewares/Third_Party/FreeRTOS/Source/stream_buffer.c **** 
 970:Middlewares/Third_Party/FreeRTOS/Source/stream_buffer.c **** BaseType_t xStreamBufferIsEmpty( StreamBufferHandle_t xStreamBuffer )
 971:Middlewares/Third_Party/FreeRTOS/Source/stream_buffer.c **** {
 972:Middlewares/Third_Party/FreeRTOS/Source/stream_buffer.c **** const StreamBuffer_t * const pxStreamBuffer = xStreamBuffer;
 973:Middlewares/Third_Party/FreeRTOS/Source/stream_buffer.c **** BaseType_t xReturn;
 974:Middlewares/Third_Party/FreeRTOS/Source/stream_buffer.c **** size_t xTail;
 975:Middlewares/Third_Party/FreeRTOS/Source/stream_buffer.c **** 
 976:Middlewares/Third_Party/FreeRTOS/Source/stream_buffer.c **** 	configASSERT( pxStreamBuffer );
 977:Middlewares/Third_Party/FreeRTOS/Source/stream_buffer.c **** 
 978:Middlewares/Third_Party/FreeRTOS/Source/stream_buffer.c **** 	/* True if no bytes are available. */
 979:Middlewares/Third_Party/FreeRTOS/Source/stream_buffer.c **** 	xTail = pxStreamBuffer->xTail;
 980:Middlewares/Third_Party/FreeRTOS/Source/stream_buffer.c **** 	if( pxStreamBuffer->xHead == xTail )
 981:Middlewares/Third_Party/FreeRTOS/Source/stream_buffer.c **** 	{
 982:Middlewares/Third_Party/FreeRTOS/Source/stream_buffer.c **** 		xReturn = pdTRUE;
 983:Middlewares/Third_Party/FreeRTOS/Source/stream_buffer.c **** 	}
 984:Middlewares/Third_Party/FreeRTOS/Source/stream_buffer.c **** 	else
 985:Middlewares/Third_Party/FreeRTOS/Source/stream_buffer.c **** 	{
 986:Middlewares/Third_Party/FreeRTOS/Source/stream_buffer.c **** 		xReturn = pdFALSE;
 987:Middlewares/Third_Party/FreeRTOS/Source/stream_buffer.c **** 	}
 988:Middlewares/Third_Party/FreeRTOS/Source/stream_buffer.c **** 
 989:Middlewares/Third_Party/FreeRTOS/Source/stream_buffer.c **** 	return xReturn;
 990:Middlewares/Third_Party/FreeRTOS/Source/stream_buffer.c **** }
 991:Middlewares/Third_Party/FreeRTOS/Source/stream_buffer.c **** /*-----------------------------------------------------------*/
 992:Middlewares/Third_Party/FreeRTOS/Source/stream_buffer.c **** 
 993:Middlewares/Third_Party/FreeRTOS/Source/stream_buffer.c **** BaseType_t xStreamBufferIsFull( StreamBufferHandle_t xStreamBuffer )
 994:Middlewares/Third_Party/FreeRTOS/Source/stream_buffer.c **** {
 995:Middlewares/Third_Party/FreeRTOS/Source/stream_buffer.c **** BaseType_t xReturn;
 996:Middlewares/Third_Party/FreeRTOS/Source/stream_buffer.c **** size_t xBytesToStoreMessageLength;
 997:Middlewares/Third_Party/FreeRTOS/Source/stream_buffer.c **** const StreamBuffer_t * const pxStreamBuffer = xStreamBuffer;
 998:Middlewares/Third_Party/FreeRTOS/Source/stream_buffer.c **** 
 999:Middlewares/Third_Party/FreeRTOS/Source/stream_buffer.c **** 	configASSERT( pxStreamBuffer );
1000:Middlewares/Third_Party/FreeRTOS/Source/stream_buffer.c **** 
1001:Middlewares/Third_Party/FreeRTOS/Source/stream_buffer.c **** 	/* This generic version of the receive function is used by both message
ARM GAS  /tmp/cctW9zGP.s 			page 19


1002:Middlewares/Third_Party/FreeRTOS/Source/stream_buffer.c **** 	buffers, which store discrete messages, and stream buffers, which store a
1003:Middlewares/Third_Party/FreeRTOS/Source/stream_buffer.c **** 	continuous stream of bytes.  Discrete messages include an additional
1004:Middlewares/Third_Party/FreeRTOS/Source/stream_buffer.c **** 	sbBYTES_TO_STORE_MESSAGE_LENGTH bytes that hold the length of the message. */
1005:Middlewares/Third_Party/FreeRTOS/Source/stream_buffer.c **** 	if( ( pxStreamBuffer->ucFlags & sbFLAGS_IS_MESSAGE_BUFFER ) != ( uint8_t ) 0 )
1006:Middlewares/Third_Party/FreeRTOS/Source/stream_buffer.c **** 	{
1007:Middlewares/Third_Party/FreeRTOS/Source/stream_buffer.c **** 		xBytesToStoreMessageLength = sbBYTES_TO_STORE_MESSAGE_LENGTH;
1008:Middlewares/Third_Party/FreeRTOS/Source/stream_buffer.c **** 	}
1009:Middlewares/Third_Party/FreeRTOS/Source/stream_buffer.c **** 	else
1010:Middlewares/Third_Party/FreeRTOS/Source/stream_buffer.c **** 	{
1011:Middlewares/Third_Party/FreeRTOS/Source/stream_buffer.c **** 		xBytesToStoreMessageLength = 0;
1012:Middlewares/Third_Party/FreeRTOS/Source/stream_buffer.c **** 	}
1013:Middlewares/Third_Party/FreeRTOS/Source/stream_buffer.c **** 
1014:Middlewares/Third_Party/FreeRTOS/Source/stream_buffer.c **** 	/* True if the available space equals zero. */
1015:Middlewares/Third_Party/FreeRTOS/Source/stream_buffer.c **** 	if( xStreamBufferSpacesAvailable( xStreamBuffer ) <= xBytesToStoreMessageLength )
1016:Middlewares/Third_Party/FreeRTOS/Source/stream_buffer.c **** 	{
1017:Middlewares/Third_Party/FreeRTOS/Source/stream_buffer.c **** 		xReturn = pdTRUE;
1018:Middlewares/Third_Party/FreeRTOS/Source/stream_buffer.c **** 	}
1019:Middlewares/Third_Party/FreeRTOS/Source/stream_buffer.c **** 	else
1020:Middlewares/Third_Party/FreeRTOS/Source/stream_buffer.c **** 	{
1021:Middlewares/Third_Party/FreeRTOS/Source/stream_buffer.c **** 		xReturn = pdFALSE;
1022:Middlewares/Third_Party/FreeRTOS/Source/stream_buffer.c **** 	}
1023:Middlewares/Third_Party/FreeRTOS/Source/stream_buffer.c **** 
1024:Middlewares/Third_Party/FreeRTOS/Source/stream_buffer.c **** 	return xReturn;
1025:Middlewares/Third_Party/FreeRTOS/Source/stream_buffer.c **** }
1026:Middlewares/Third_Party/FreeRTOS/Source/stream_buffer.c **** /*-----------------------------------------------------------*/
1027:Middlewares/Third_Party/FreeRTOS/Source/stream_buffer.c **** 
1028:Middlewares/Third_Party/FreeRTOS/Source/stream_buffer.c **** BaseType_t xStreamBufferSendCompletedFromISR( StreamBufferHandle_t xStreamBuffer, BaseType_t *pxHig
1029:Middlewares/Third_Party/FreeRTOS/Source/stream_buffer.c **** {
1030:Middlewares/Third_Party/FreeRTOS/Source/stream_buffer.c **** StreamBuffer_t * const pxStreamBuffer = xStreamBuffer;
1031:Middlewares/Third_Party/FreeRTOS/Source/stream_buffer.c **** BaseType_t xReturn;
1032:Middlewares/Third_Party/FreeRTOS/Source/stream_buffer.c **** UBaseType_t uxSavedInterruptStatus;
1033:Middlewares/Third_Party/FreeRTOS/Source/stream_buffer.c **** 
1034:Middlewares/Third_Party/FreeRTOS/Source/stream_buffer.c **** 	configASSERT( pxStreamBuffer );
1035:Middlewares/Third_Party/FreeRTOS/Source/stream_buffer.c **** 
1036:Middlewares/Third_Party/FreeRTOS/Source/stream_buffer.c **** 	uxSavedInterruptStatus = ( UBaseType_t ) portSET_INTERRUPT_MASK_FROM_ISR();
1037:Middlewares/Third_Party/FreeRTOS/Source/stream_buffer.c **** 	{
1038:Middlewares/Third_Party/FreeRTOS/Source/stream_buffer.c **** 		if( ( pxStreamBuffer )->xTaskWaitingToReceive != NULL )
1039:Middlewares/Third_Party/FreeRTOS/Source/stream_buffer.c **** 		{
1040:Middlewares/Third_Party/FreeRTOS/Source/stream_buffer.c **** 			( void ) xTaskNotifyFromISR( ( pxStreamBuffer )->xTaskWaitingToReceive,
1041:Middlewares/Third_Party/FreeRTOS/Source/stream_buffer.c **** 										 ( uint32_t ) 0,
1042:Middlewares/Third_Party/FreeRTOS/Source/stream_buffer.c **** 										 eNoAction,
1043:Middlewares/Third_Party/FreeRTOS/Source/stream_buffer.c **** 										 pxHigherPriorityTaskWoken );
1044:Middlewares/Third_Party/FreeRTOS/Source/stream_buffer.c **** 			( pxStreamBuffer )->xTaskWaitingToReceive = NULL;
1045:Middlewares/Third_Party/FreeRTOS/Source/stream_buffer.c **** 			xReturn = pdTRUE;
1046:Middlewares/Third_Party/FreeRTOS/Source/stream_buffer.c **** 		}
1047:Middlewares/Third_Party/FreeRTOS/Source/stream_buffer.c **** 		else
1048:Middlewares/Third_Party/FreeRTOS/Source/stream_buffer.c **** 		{
1049:Middlewares/Third_Party/FreeRTOS/Source/stream_buffer.c **** 			xReturn = pdFALSE;
1050:Middlewares/Third_Party/FreeRTOS/Source/stream_buffer.c **** 		}
1051:Middlewares/Third_Party/FreeRTOS/Source/stream_buffer.c **** 	}
1052:Middlewares/Third_Party/FreeRTOS/Source/stream_buffer.c **** 	portCLEAR_INTERRUPT_MASK_FROM_ISR( uxSavedInterruptStatus );
1053:Middlewares/Third_Party/FreeRTOS/Source/stream_buffer.c **** 
1054:Middlewares/Third_Party/FreeRTOS/Source/stream_buffer.c **** 	return xReturn;
1055:Middlewares/Third_Party/FreeRTOS/Source/stream_buffer.c **** }
1056:Middlewares/Third_Party/FreeRTOS/Source/stream_buffer.c **** /*-----------------------------------------------------------*/
1057:Middlewares/Third_Party/FreeRTOS/Source/stream_buffer.c **** 
1058:Middlewares/Third_Party/FreeRTOS/Source/stream_buffer.c **** BaseType_t xStreamBufferReceiveCompletedFromISR( StreamBufferHandle_t xStreamBuffer, BaseType_t *px
ARM GAS  /tmp/cctW9zGP.s 			page 20


1059:Middlewares/Third_Party/FreeRTOS/Source/stream_buffer.c **** {
1060:Middlewares/Third_Party/FreeRTOS/Source/stream_buffer.c **** StreamBuffer_t * const pxStreamBuffer = xStreamBuffer;
1061:Middlewares/Third_Party/FreeRTOS/Source/stream_buffer.c **** BaseType_t xReturn;
1062:Middlewares/Third_Party/FreeRTOS/Source/stream_buffer.c **** UBaseType_t uxSavedInterruptStatus;
1063:Middlewares/Third_Party/FreeRTOS/Source/stream_buffer.c **** 
1064:Middlewares/Third_Party/FreeRTOS/Source/stream_buffer.c **** 	configASSERT( pxStreamBuffer );
1065:Middlewares/Third_Party/FreeRTOS/Source/stream_buffer.c **** 
1066:Middlewares/Third_Party/FreeRTOS/Source/stream_buffer.c **** 	uxSavedInterruptStatus = ( UBaseType_t ) portSET_INTERRUPT_MASK_FROM_ISR();
1067:Middlewares/Third_Party/FreeRTOS/Source/stream_buffer.c **** 	{
1068:Middlewares/Third_Party/FreeRTOS/Source/stream_buffer.c **** 		if( ( pxStreamBuffer )->xTaskWaitingToSend != NULL )
1069:Middlewares/Third_Party/FreeRTOS/Source/stream_buffer.c **** 		{
1070:Middlewares/Third_Party/FreeRTOS/Source/stream_buffer.c **** 			( void ) xTaskNotifyFromISR( ( pxStreamBuffer )->xTaskWaitingToSend,
1071:Middlewares/Third_Party/FreeRTOS/Source/stream_buffer.c **** 										 ( uint32_t ) 0,
1072:Middlewares/Third_Party/FreeRTOS/Source/stream_buffer.c **** 										 eNoAction,
1073:Middlewares/Third_Party/FreeRTOS/Source/stream_buffer.c **** 										 pxHigherPriorityTaskWoken );
1074:Middlewares/Third_Party/FreeRTOS/Source/stream_buffer.c **** 			( pxStreamBuffer )->xTaskWaitingToSend = NULL;
1075:Middlewares/Third_Party/FreeRTOS/Source/stream_buffer.c **** 			xReturn = pdTRUE;
1076:Middlewares/Third_Party/FreeRTOS/Source/stream_buffer.c **** 		}
1077:Middlewares/Third_Party/FreeRTOS/Source/stream_buffer.c **** 		else
1078:Middlewares/Third_Party/FreeRTOS/Source/stream_buffer.c **** 		{
1079:Middlewares/Third_Party/FreeRTOS/Source/stream_buffer.c **** 			xReturn = pdFALSE;
1080:Middlewares/Third_Party/FreeRTOS/Source/stream_buffer.c **** 		}
1081:Middlewares/Third_Party/FreeRTOS/Source/stream_buffer.c **** 	}
1082:Middlewares/Third_Party/FreeRTOS/Source/stream_buffer.c **** 	portCLEAR_INTERRUPT_MASK_FROM_ISR( uxSavedInterruptStatus );
1083:Middlewares/Third_Party/FreeRTOS/Source/stream_buffer.c **** 
1084:Middlewares/Third_Party/FreeRTOS/Source/stream_buffer.c **** 	return xReturn;
1085:Middlewares/Third_Party/FreeRTOS/Source/stream_buffer.c **** }
1086:Middlewares/Third_Party/FreeRTOS/Source/stream_buffer.c **** /*-----------------------------------------------------------*/
1087:Middlewares/Third_Party/FreeRTOS/Source/stream_buffer.c **** 
1088:Middlewares/Third_Party/FreeRTOS/Source/stream_buffer.c **** static size_t prvWriteBytesToBuffer( StreamBuffer_t * const pxStreamBuffer, const uint8_t *pucData,
1089:Middlewares/Third_Party/FreeRTOS/Source/stream_buffer.c **** {
1090:Middlewares/Third_Party/FreeRTOS/Source/stream_buffer.c **** size_t xNextHead, xFirstLength;
1091:Middlewares/Third_Party/FreeRTOS/Source/stream_buffer.c **** 
1092:Middlewares/Third_Party/FreeRTOS/Source/stream_buffer.c **** 	configASSERT( xCount > ( size_t ) 0 );
1093:Middlewares/Third_Party/FreeRTOS/Source/stream_buffer.c **** 
1094:Middlewares/Third_Party/FreeRTOS/Source/stream_buffer.c **** 	xNextHead = pxStreamBuffer->xHead;
1095:Middlewares/Third_Party/FreeRTOS/Source/stream_buffer.c **** 
1096:Middlewares/Third_Party/FreeRTOS/Source/stream_buffer.c **** 	/* Calculate the number of bytes that can be added in the first write -
1097:Middlewares/Third_Party/FreeRTOS/Source/stream_buffer.c **** 	which may be less than the total number of bytes that need to be added if
1098:Middlewares/Third_Party/FreeRTOS/Source/stream_buffer.c **** 	the buffer will wrap back to the beginning. */
1099:Middlewares/Third_Party/FreeRTOS/Source/stream_buffer.c **** 	xFirstLength = configMIN( pxStreamBuffer->xLength - xNextHead, xCount );
1100:Middlewares/Third_Party/FreeRTOS/Source/stream_buffer.c **** 
1101:Middlewares/Third_Party/FreeRTOS/Source/stream_buffer.c **** 	/* Write as many bytes as can be written in the first write. */
1102:Middlewares/Third_Party/FreeRTOS/Source/stream_buffer.c **** 	configASSERT( ( xNextHead + xFirstLength ) <= pxStreamBuffer->xLength );
1103:Middlewares/Third_Party/FreeRTOS/Source/stream_buffer.c **** 	( void ) memcpy( ( void* ) ( &( pxStreamBuffer->pucBuffer[ xNextHead ] ) ), ( const void * ) pucDa
1104:Middlewares/Third_Party/FreeRTOS/Source/stream_buffer.c **** 
1105:Middlewares/Third_Party/FreeRTOS/Source/stream_buffer.c **** 	/* If the number of bytes written was less than the number that could be
1106:Middlewares/Third_Party/FreeRTOS/Source/stream_buffer.c **** 	written in the first write... */
1107:Middlewares/Third_Party/FreeRTOS/Source/stream_buffer.c **** 	if( xCount > xFirstLength )
1108:Middlewares/Third_Party/FreeRTOS/Source/stream_buffer.c **** 	{
1109:Middlewares/Third_Party/FreeRTOS/Source/stream_buffer.c **** 		/* ...then write the remaining bytes to the start of the buffer. */
1110:Middlewares/Third_Party/FreeRTOS/Source/stream_buffer.c **** 		configASSERT( ( xCount - xFirstLength ) <= pxStreamBuffer->xLength );
1111:Middlewares/Third_Party/FreeRTOS/Source/stream_buffer.c **** 		( void ) memcpy( ( void * ) pxStreamBuffer->pucBuffer, ( const void * ) &( pucData[ xFirstLength 
1112:Middlewares/Third_Party/FreeRTOS/Source/stream_buffer.c **** 	}
1113:Middlewares/Third_Party/FreeRTOS/Source/stream_buffer.c **** 	else
1114:Middlewares/Third_Party/FreeRTOS/Source/stream_buffer.c **** 	{
1115:Middlewares/Third_Party/FreeRTOS/Source/stream_buffer.c **** 		mtCOVERAGE_TEST_MARKER();
ARM GAS  /tmp/cctW9zGP.s 			page 21


1116:Middlewares/Third_Party/FreeRTOS/Source/stream_buffer.c **** 	}
1117:Middlewares/Third_Party/FreeRTOS/Source/stream_buffer.c **** 
1118:Middlewares/Third_Party/FreeRTOS/Source/stream_buffer.c **** 	xNextHead += xCount;
1119:Middlewares/Third_Party/FreeRTOS/Source/stream_buffer.c **** 	if( xNextHead >= pxStreamBuffer->xLength )
1120:Middlewares/Third_Party/FreeRTOS/Source/stream_buffer.c **** 	{
1121:Middlewares/Third_Party/FreeRTOS/Source/stream_buffer.c **** 		xNextHead -= pxStreamBuffer->xLength;
1122:Middlewares/Third_Party/FreeRTOS/Source/stream_buffer.c **** 	}
1123:Middlewares/Third_Party/FreeRTOS/Source/stream_buffer.c **** 	else
1124:Middlewares/Third_Party/FreeRTOS/Source/stream_buffer.c **** 	{
1125:Middlewares/Third_Party/FreeRTOS/Source/stream_buffer.c **** 		mtCOVERAGE_TEST_MARKER();
1126:Middlewares/Third_Party/FreeRTOS/Source/stream_buffer.c **** 	}
1127:Middlewares/Third_Party/FreeRTOS/Source/stream_buffer.c **** 
1128:Middlewares/Third_Party/FreeRTOS/Source/stream_buffer.c **** 	pxStreamBuffer->xHead = xNextHead;
1129:Middlewares/Third_Party/FreeRTOS/Source/stream_buffer.c **** 
1130:Middlewares/Third_Party/FreeRTOS/Source/stream_buffer.c **** 	return xCount;
1131:Middlewares/Third_Party/FreeRTOS/Source/stream_buffer.c **** }
1132:Middlewares/Third_Party/FreeRTOS/Source/stream_buffer.c **** /*-----------------------------------------------------------*/
1133:Middlewares/Third_Party/FreeRTOS/Source/stream_buffer.c **** 
1134:Middlewares/Third_Party/FreeRTOS/Source/stream_buffer.c **** static size_t prvReadBytesFromBuffer( StreamBuffer_t *pxStreamBuffer, uint8_t *pucData, size_t xMax
1135:Middlewares/Third_Party/FreeRTOS/Source/stream_buffer.c **** {
1136:Middlewares/Third_Party/FreeRTOS/Source/stream_buffer.c **** size_t xCount, xFirstLength, xNextTail;
1137:Middlewares/Third_Party/FreeRTOS/Source/stream_buffer.c **** 
1138:Middlewares/Third_Party/FreeRTOS/Source/stream_buffer.c **** 	/* Use the minimum of the wanted bytes and the available bytes. */
1139:Middlewares/Third_Party/FreeRTOS/Source/stream_buffer.c **** 	xCount = configMIN( xBytesAvailable, xMaxCount );
1140:Middlewares/Third_Party/FreeRTOS/Source/stream_buffer.c **** 
1141:Middlewares/Third_Party/FreeRTOS/Source/stream_buffer.c **** 	if( xCount > ( size_t ) 0 )
1142:Middlewares/Third_Party/FreeRTOS/Source/stream_buffer.c **** 	{
1143:Middlewares/Third_Party/FreeRTOS/Source/stream_buffer.c **** 		xNextTail = pxStreamBuffer->xTail;
1144:Middlewares/Third_Party/FreeRTOS/Source/stream_buffer.c **** 
1145:Middlewares/Third_Party/FreeRTOS/Source/stream_buffer.c **** 		/* Calculate the number of bytes that can be read - which may be
1146:Middlewares/Third_Party/FreeRTOS/Source/stream_buffer.c **** 		less than the number wanted if the data wraps around to the start of
1147:Middlewares/Third_Party/FreeRTOS/Source/stream_buffer.c **** 		the buffer. */
1148:Middlewares/Third_Party/FreeRTOS/Source/stream_buffer.c **** 		xFirstLength = configMIN( pxStreamBuffer->xLength - xNextTail, xCount );
1149:Middlewares/Third_Party/FreeRTOS/Source/stream_buffer.c **** 
1150:Middlewares/Third_Party/FreeRTOS/Source/stream_buffer.c **** 		/* Obtain the number of bytes it is possible to obtain in the first
1151:Middlewares/Third_Party/FreeRTOS/Source/stream_buffer.c **** 		read.  Asserts check bounds of read and write. */
1152:Middlewares/Third_Party/FreeRTOS/Source/stream_buffer.c **** 		configASSERT( xFirstLength <= xMaxCount );
1153:Middlewares/Third_Party/FreeRTOS/Source/stream_buffer.c **** 		configASSERT( ( xNextTail + xFirstLength ) <= pxStreamBuffer->xLength );
1154:Middlewares/Third_Party/FreeRTOS/Source/stream_buffer.c **** 		( void ) memcpy( ( void * ) pucData, ( const void * ) &( pxStreamBuffer->pucBuffer[ xNextTail ] )
1155:Middlewares/Third_Party/FreeRTOS/Source/stream_buffer.c **** 
1156:Middlewares/Third_Party/FreeRTOS/Source/stream_buffer.c **** 		/* If the total number of wanted bytes is greater than the number
1157:Middlewares/Third_Party/FreeRTOS/Source/stream_buffer.c **** 		that could be read in the first read... */
1158:Middlewares/Third_Party/FreeRTOS/Source/stream_buffer.c **** 		if( xCount > xFirstLength )
1159:Middlewares/Third_Party/FreeRTOS/Source/stream_buffer.c **** 		{
1160:Middlewares/Third_Party/FreeRTOS/Source/stream_buffer.c **** 			/*...then read the remaining bytes from the start of the buffer. */
1161:Middlewares/Third_Party/FreeRTOS/Source/stream_buffer.c **** 			configASSERT( xCount <= xMaxCount );
1162:Middlewares/Third_Party/FreeRTOS/Source/stream_buffer.c **** 			( void ) memcpy( ( void * ) &( pucData[ xFirstLength ] ), ( void * ) ( pxStreamBuffer->pucBuffer
1163:Middlewares/Third_Party/FreeRTOS/Source/stream_buffer.c **** 		}
1164:Middlewares/Third_Party/FreeRTOS/Source/stream_buffer.c **** 		else
1165:Middlewares/Third_Party/FreeRTOS/Source/stream_buffer.c **** 		{
1166:Middlewares/Third_Party/FreeRTOS/Source/stream_buffer.c **** 			mtCOVERAGE_TEST_MARKER();
1167:Middlewares/Third_Party/FreeRTOS/Source/stream_buffer.c **** 		}
1168:Middlewares/Third_Party/FreeRTOS/Source/stream_buffer.c **** 
1169:Middlewares/Third_Party/FreeRTOS/Source/stream_buffer.c **** 		/* Move the tail pointer to effectively remove the data read from
1170:Middlewares/Third_Party/FreeRTOS/Source/stream_buffer.c **** 		the buffer. */
1171:Middlewares/Third_Party/FreeRTOS/Source/stream_buffer.c **** 		xNextTail += xCount;
1172:Middlewares/Third_Party/FreeRTOS/Source/stream_buffer.c **** 
ARM GAS  /tmp/cctW9zGP.s 			page 22


1173:Middlewares/Third_Party/FreeRTOS/Source/stream_buffer.c **** 		if( xNextTail >= pxStreamBuffer->xLength )
1174:Middlewares/Third_Party/FreeRTOS/Source/stream_buffer.c **** 		{
1175:Middlewares/Third_Party/FreeRTOS/Source/stream_buffer.c **** 			xNextTail -= pxStreamBuffer->xLength;
1176:Middlewares/Third_Party/FreeRTOS/Source/stream_buffer.c **** 		}
1177:Middlewares/Third_Party/FreeRTOS/Source/stream_buffer.c **** 
1178:Middlewares/Third_Party/FreeRTOS/Source/stream_buffer.c **** 		pxStreamBuffer->xTail = xNextTail;
1179:Middlewares/Third_Party/FreeRTOS/Source/stream_buffer.c **** 	}
1180:Middlewares/Third_Party/FreeRTOS/Source/stream_buffer.c **** 	else
1181:Middlewares/Third_Party/FreeRTOS/Source/stream_buffer.c **** 	{
1182:Middlewares/Third_Party/FreeRTOS/Source/stream_buffer.c **** 		mtCOVERAGE_TEST_MARKER();
1183:Middlewares/Third_Party/FreeRTOS/Source/stream_buffer.c **** 	}
1184:Middlewares/Third_Party/FreeRTOS/Source/stream_buffer.c **** 
1185:Middlewares/Third_Party/FreeRTOS/Source/stream_buffer.c **** 	return xCount;
1186:Middlewares/Third_Party/FreeRTOS/Source/stream_buffer.c **** }
1187:Middlewares/Third_Party/FreeRTOS/Source/stream_buffer.c **** /*-----------------------------------------------------------*/
1188:Middlewares/Third_Party/FreeRTOS/Source/stream_buffer.c **** 
1189:Middlewares/Third_Party/FreeRTOS/Source/stream_buffer.c **** static size_t prvBytesInBuffer( const StreamBuffer_t * const pxStreamBuffer )
1190:Middlewares/Third_Party/FreeRTOS/Source/stream_buffer.c **** {
  27              		.loc 1 1190 1 view -0
  28              		.cfi_startproc
  29              		@ args = 0, pretend = 0, frame = 0
  30              		@ frame_needed = 0, uses_anonymous_args = 0
  31              		@ link register save eliminated.
1191:Middlewares/Third_Party/FreeRTOS/Source/stream_buffer.c **** /* Returns the distance between xTail and xHead. */
1192:Middlewares/Third_Party/FreeRTOS/Source/stream_buffer.c **** size_t xCount;
  32              		.loc 1 1192 1 view .LVU1
1193:Middlewares/Third_Party/FreeRTOS/Source/stream_buffer.c **** 
1194:Middlewares/Third_Party/FreeRTOS/Source/stream_buffer.c **** 	xCount = pxStreamBuffer->xLength + pxStreamBuffer->xHead;
  33              		.loc 1 1194 2 view .LVU2
  34              		.loc 1 1194 25 is_stmt 0 view .LVU3
  35 0000 8168     		ldr	r1, [r0, #8]
  36              		.loc 1 1194 51 view .LVU4
  37 0002 4368     		ldr	r3, [r0, #4]
  38              		.loc 1 1194 9 view .LVU5
  39 0004 CB18     		adds	r3, r1, r3
  40              	.LVL1:
1195:Middlewares/Third_Party/FreeRTOS/Source/stream_buffer.c **** 	xCount -= pxStreamBuffer->xTail;
  41              		.loc 1 1195 2 is_stmt 1 view .LVU6
  42              		.loc 1 1195 26 is_stmt 0 view .LVU7
  43 0006 0068     		ldr	r0, [r0]
  44              	.LVL2:
  45              		.loc 1 1195 9 view .LVU8
  46 0008 181A     		subs	r0, r3, r0
  47              	.LVL3:
1196:Middlewares/Third_Party/FreeRTOS/Source/stream_buffer.c **** 	if ( xCount >= pxStreamBuffer->xLength )
  48              		.loc 1 1196 2 is_stmt 1 view .LVU9
  49              		.loc 1 1196 5 is_stmt 0 view .LVU10
  50 000a 8142     		cmp	r1, r0
  51 000c 00D8     		bhi	.L1
1197:Middlewares/Third_Party/FreeRTOS/Source/stream_buffer.c **** 	{
1198:Middlewares/Third_Party/FreeRTOS/Source/stream_buffer.c **** 		xCount -= pxStreamBuffer->xLength;
  52              		.loc 1 1198 3 is_stmt 1 view .LVU11
  53              		.loc 1 1198 10 is_stmt 0 view .LVU12
  54 000e 401A     		subs	r0, r0, r1
  55              	.LVL4:
1199:Middlewares/Third_Party/FreeRTOS/Source/stream_buffer.c **** 	}
1200:Middlewares/Third_Party/FreeRTOS/Source/stream_buffer.c **** 	else
ARM GAS  /tmp/cctW9zGP.s 			page 23


1201:Middlewares/Third_Party/FreeRTOS/Source/stream_buffer.c **** 	{
1202:Middlewares/Third_Party/FreeRTOS/Source/stream_buffer.c **** 		mtCOVERAGE_TEST_MARKER();
  56              		.loc 1 1202 27 is_stmt 1 view .LVU13
1203:Middlewares/Third_Party/FreeRTOS/Source/stream_buffer.c **** 	}
1204:Middlewares/Third_Party/FreeRTOS/Source/stream_buffer.c **** 
1205:Middlewares/Third_Party/FreeRTOS/Source/stream_buffer.c **** 	return xCount;
  57              		.loc 1 1205 2 view .LVU14
  58              	.L1:
1206:Middlewares/Third_Party/FreeRTOS/Source/stream_buffer.c **** }
  59              		.loc 1 1206 1 is_stmt 0 view .LVU15
  60              		@ sp needed
  61 0010 7047     		bx	lr
  62              		.cfi_endproc
  63              	.LFE19:
  65              		.section	.text.prvInitialiseNewStreamBuffer,"ax",%progbits
  66              		.align	1
  67              		.syntax unified
  68              		.code	16
  69              		.thumb_func
  71              	prvInitialiseNewStreamBuffer:
  72              	.LVL5:
  73              	.LFB20:
1207:Middlewares/Third_Party/FreeRTOS/Source/stream_buffer.c **** /*-----------------------------------------------------------*/
1208:Middlewares/Third_Party/FreeRTOS/Source/stream_buffer.c **** 
1209:Middlewares/Third_Party/FreeRTOS/Source/stream_buffer.c **** static void prvInitialiseNewStreamBuffer( StreamBuffer_t * const pxStreamBuffer,
1210:Middlewares/Third_Party/FreeRTOS/Source/stream_buffer.c **** 										  uint8_t * const pucBuffer,
1211:Middlewares/Third_Party/FreeRTOS/Source/stream_buffer.c **** 										  size_t xBufferSizeBytes,
1212:Middlewares/Third_Party/FreeRTOS/Source/stream_buffer.c **** 										  size_t xTriggerLevelBytes,
1213:Middlewares/Third_Party/FreeRTOS/Source/stream_buffer.c **** 										  uint8_t ucFlags )
1214:Middlewares/Third_Party/FreeRTOS/Source/stream_buffer.c **** {
  74              		.loc 1 1214 1 is_stmt 1 view -0
  75              		.cfi_startproc
  76              		@ args = 4, pretend = 0, frame = 8
  77              		@ frame_needed = 0, uses_anonymous_args = 0
  78              		.loc 1 1214 1 is_stmt 0 view .LVU17
  79 0000 F0B5     		push	{r4, r5, r6, r7, lr}
  80              	.LCFI0:
  81              		.cfi_def_cfa_offset 20
  82              		.cfi_offset 4, -20
  83              		.cfi_offset 5, -16
  84              		.cfi_offset 6, -12
  85              		.cfi_offset 7, -8
  86              		.cfi_offset 14, -4
  87 0002 83B0     		sub	sp, sp, #12
  88              	.LCFI1:
  89              		.cfi_def_cfa_offset 32
  90 0004 0600     		movs	r6, r0
  91 0006 0C00     		movs	r4, r1
  92 0008 1500     		movs	r5, r2
  93 000a 0193     		str	r3, [sp, #4]
  94 000c 08AB     		add	r3, sp, #32
  95              	.LVL6:
  96              		.loc 1 1214 1 view .LVU18
  97 000e 1F78     		ldrb	r7, [r3]
  98              	.LBB2:
1215:Middlewares/Third_Party/FreeRTOS/Source/stream_buffer.c **** 	/* Assert here is deliberately writing to the entire buffer to ensure it can
1216:Middlewares/Third_Party/FreeRTOS/Source/stream_buffer.c **** 	be written to without generating exceptions, and is setting the buffer to a
ARM GAS  /tmp/cctW9zGP.s 			page 24


1217:Middlewares/Third_Party/FreeRTOS/Source/stream_buffer.c **** 	known value to assist in development/debugging. */
1218:Middlewares/Third_Party/FreeRTOS/Source/stream_buffer.c **** 	#if( configASSERT_DEFINED == 1 )
1219:Middlewares/Third_Party/FreeRTOS/Source/stream_buffer.c **** 	{
1220:Middlewares/Third_Party/FreeRTOS/Source/stream_buffer.c **** 		/* The value written just has to be identifiable when looking at the
1221:Middlewares/Third_Party/FreeRTOS/Source/stream_buffer.c **** 		memory.  Don't use 0xA5 as that is the stack fill value and could
1222:Middlewares/Third_Party/FreeRTOS/Source/stream_buffer.c **** 		result in confusion as to what is actually being observed. */
1223:Middlewares/Third_Party/FreeRTOS/Source/stream_buffer.c **** 		const BaseType_t xWriteValue = 0x55;
  99              		.loc 1 1223 3 is_stmt 1 view .LVU19
 100              	.LVL7:
1224:Middlewares/Third_Party/FreeRTOS/Source/stream_buffer.c **** 		configASSERT( memset( pucBuffer, ( int ) xWriteValue, xBufferSizeBytes ) == pucBuffer );
 101              		.loc 1 1224 3 view .LVU20
 102 0010 5521     		movs	r1, #85
 103              	.LVL8:
 104              		.loc 1 1224 3 is_stmt 0 view .LVU21
 105 0012 2000     		movs	r0, r4
 106              	.LVL9:
 107              		.loc 1 1224 3 view .LVU22
 108 0014 FFF7FEFF 		bl	memset
 109              	.LVL10:
 110              		.loc 1 1224 3 view .LVU23
 111 0018 8442     		cmp	r4, r0
 112 001a 01D0     		beq	.L4
 113              		.loc 1 1224 3 is_stmt 1 discriminator 1 view .LVU24
 114              		.syntax divided
 115              	@ 1224 "Middlewares/Third_Party/FreeRTOS/Source/stream_buffer.c" 1
 116 001c 72B6     		 cpsid i 
 117              	@ 0 "" 2
 118              		.thumb
 119              		.syntax unified
 120              	.L5:
 121              		.loc 1 1224 3 discriminator 1 view .LVU25
 122              		.loc 1 1224 3 discriminator 1 view .LVU26
 123              		.loc 1 1224 3 discriminator 1 view .LVU27
 124 001e FEE7     		b	.L5
 125              	.L4:
 126              		.loc 1 1224 90 discriminator 2 view .LVU28
 127              	.LBE2:
1225:Middlewares/Third_Party/FreeRTOS/Source/stream_buffer.c **** 	} /*lint !e529 !e438 xWriteValue is only used if configASSERT() is defined. */
1226:Middlewares/Third_Party/FreeRTOS/Source/stream_buffer.c **** 	#endif
1227:Middlewares/Third_Party/FreeRTOS/Source/stream_buffer.c **** 
1228:Middlewares/Third_Party/FreeRTOS/Source/stream_buffer.c **** 	( void ) memset( ( void * ) pxStreamBuffer, 0x00, sizeof( StreamBuffer_t ) ); /*lint !e9087 memset
 128              		.loc 1 1228 2 discriminator 2 view .LVU29
 129              		.loc 1 1228 11 is_stmt 0 discriminator 2 view .LVU30
 130 0020 2022     		movs	r2, #32
 131 0022 0021     		movs	r1, #0
 132 0024 3000     		movs	r0, r6
 133 0026 FFF7FEFF 		bl	memset
 134              	.LVL11:
1229:Middlewares/Third_Party/FreeRTOS/Source/stream_buffer.c **** 	pxStreamBuffer->pucBuffer = pucBuffer;
 135              		.loc 1 1229 2 is_stmt 1 discriminator 2 view .LVU31
 136              		.loc 1 1229 28 is_stmt 0 discriminator 2 view .LVU32
 137 002a B461     		str	r4, [r6, #24]
1230:Middlewares/Third_Party/FreeRTOS/Source/stream_buffer.c **** 	pxStreamBuffer->xLength = xBufferSizeBytes;
 138              		.loc 1 1230 2 is_stmt 1 discriminator 2 view .LVU33
 139              		.loc 1 1230 26 is_stmt 0 discriminator 2 view .LVU34
 140 002c B560     		str	r5, [r6, #8]
1231:Middlewares/Third_Party/FreeRTOS/Source/stream_buffer.c **** 	pxStreamBuffer->xTriggerLevelBytes = xTriggerLevelBytes;
ARM GAS  /tmp/cctW9zGP.s 			page 25


 141              		.loc 1 1231 2 is_stmt 1 discriminator 2 view .LVU35
 142              		.loc 1 1231 37 is_stmt 0 discriminator 2 view .LVU36
 143 002e 019B     		ldr	r3, [sp, #4]
 144 0030 F360     		str	r3, [r6, #12]
1232:Middlewares/Third_Party/FreeRTOS/Source/stream_buffer.c **** 	pxStreamBuffer->ucFlags = ucFlags;
 145              		.loc 1 1232 2 is_stmt 1 discriminator 2 view .LVU37
 146              		.loc 1 1232 26 is_stmt 0 discriminator 2 view .LVU38
 147 0032 3777     		strb	r7, [r6, #28]
1233:Middlewares/Third_Party/FreeRTOS/Source/stream_buffer.c **** }
 148              		.loc 1 1233 1 discriminator 2 view .LVU39
 149 0034 03B0     		add	sp, sp, #12
 150              		@ sp needed
 151              	.LVL12:
 152              	.LVL13:
 153              	.LVL14:
 154              		.loc 1 1233 1 discriminator 2 view .LVU40
 155 0036 F0BD     		pop	{r4, r5, r6, r7, pc}
 156              		.cfi_endproc
 157              	.LFE20:
 159              		.section	.text.prvWriteBytesToBuffer,"ax",%progbits
 160              		.align	1
 161              		.syntax unified
 162              		.code	16
 163              		.thumb_func
 165              	prvWriteBytesToBuffer:
 166              	.LVL15:
 167              	.LFB17:
1089:Middlewares/Third_Party/FreeRTOS/Source/stream_buffer.c **** size_t xNextHead, xFirstLength;
 168              		.loc 1 1089 1 is_stmt 1 view -0
 169              		.cfi_startproc
 170              		@ args = 0, pretend = 0, frame = 8
 171              		@ frame_needed = 0, uses_anonymous_args = 0
1089:Middlewares/Third_Party/FreeRTOS/Source/stream_buffer.c **** size_t xNextHead, xFirstLength;
 172              		.loc 1 1089 1 is_stmt 0 view .LVU42
 173 0000 F0B5     		push	{r4, r5, r6, r7, lr}
 174              	.LCFI2:
 175              		.cfi_def_cfa_offset 20
 176              		.cfi_offset 4, -20
 177              		.cfi_offset 5, -16
 178              		.cfi_offset 6, -12
 179              		.cfi_offset 7, -8
 180              		.cfi_offset 14, -4
 181 0002 83B0     		sub	sp, sp, #12
 182              	.LCFI3:
 183              		.cfi_def_cfa_offset 32
 184 0004 0500     		movs	r5, r0
 185 0006 0191     		str	r1, [sp, #4]
 186 0008 141E     		subs	r4, r2, #0
1090:Middlewares/Third_Party/FreeRTOS/Source/stream_buffer.c **** 
 187              		.loc 1 1090 1 is_stmt 1 view .LVU43
1092:Middlewares/Third_Party/FreeRTOS/Source/stream_buffer.c **** 
 188              		.loc 1 1092 2 view .LVU44
 189 000a 01D1     		bne	.L7
1092:Middlewares/Third_Party/FreeRTOS/Source/stream_buffer.c **** 
 190              		.loc 1 1092 2 discriminator 1 view .LVU45
 191              		.syntax divided
 192              	@ 1092 "Middlewares/Third_Party/FreeRTOS/Source/stream_buffer.c" 1
ARM GAS  /tmp/cctW9zGP.s 			page 26


 193 000c 72B6     		 cpsid i 
 194              	@ 0 "" 2
 195              		.thumb
 196              		.syntax unified
 197              	.L8:
1092:Middlewares/Third_Party/FreeRTOS/Source/stream_buffer.c **** 
 198              		.loc 1 1092 2 discriminator 1 view .LVU46
1092:Middlewares/Third_Party/FreeRTOS/Source/stream_buffer.c **** 
 199              		.loc 1 1092 2 discriminator 1 view .LVU47
1092:Middlewares/Third_Party/FreeRTOS/Source/stream_buffer.c **** 
 200              		.loc 1 1092 2 discriminator 1 view .LVU48
 201 000e FEE7     		b	.L8
 202              	.L7:
1092:Middlewares/Third_Party/FreeRTOS/Source/stream_buffer.c **** 
 203              		.loc 1 1092 39 discriminator 2 view .LVU49
1094:Middlewares/Third_Party/FreeRTOS/Source/stream_buffer.c **** 
 204              		.loc 1 1094 2 discriminator 2 view .LVU50
1094:Middlewares/Third_Party/FreeRTOS/Source/stream_buffer.c **** 
 205              		.loc 1 1094 12 is_stmt 0 discriminator 2 view .LVU51
 206 0010 4668     		ldr	r6, [r0, #4]
 207              	.LVL16:
1099:Middlewares/Third_Party/FreeRTOS/Source/stream_buffer.c **** 
 208              		.loc 1 1099 2 is_stmt 1 discriminator 2 view .LVU52
1099:Middlewares/Third_Party/FreeRTOS/Source/stream_buffer.c **** 
 209              		.loc 1 1099 17 is_stmt 0 discriminator 2 view .LVU53
 210 0012 8368     		ldr	r3, [r0, #8]
 211 0014 9F1B     		subs	r7, r3, r6
1099:Middlewares/Third_Party/FreeRTOS/Source/stream_buffer.c **** 
 212              		.loc 1 1099 15 discriminator 2 view .LVU54
 213 0016 9742     		cmp	r7, r2
 214 0018 00D9     		bls	.L9
 215 001a 1700     		movs	r7, r2
 216              	.L9:
 217              	.LVL17:
1102:Middlewares/Third_Party/FreeRTOS/Source/stream_buffer.c **** 	( void ) memcpy( ( void* ) ( &( pxStreamBuffer->pucBuffer[ xNextHead ] ) ), ( const void * ) pucDa
 218              		.loc 1 1102 2 is_stmt 1 discriminator 2 view .LVU55
 219 001c F219     		adds	r2, r6, r7
 220              	.LVL18:
1102:Middlewares/Third_Party/FreeRTOS/Source/stream_buffer.c **** 	( void ) memcpy( ( void* ) ( &( pxStreamBuffer->pucBuffer[ xNextHead ] ) ), ( const void * ) pucDa
 221              		.loc 1 1102 2 is_stmt 0 discriminator 2 view .LVU56
 222 001e 9342     		cmp	r3, r2
 223 0020 01D2     		bcs	.L10
1102:Middlewares/Third_Party/FreeRTOS/Source/stream_buffer.c **** 	( void ) memcpy( ( void* ) ( &( pxStreamBuffer->pucBuffer[ xNextHead ] ) ), ( const void * ) pucDa
 224              		.loc 1 1102 2 is_stmt 1 discriminator 1 view .LVU57
 225              		.syntax divided
 226              	@ 1102 "Middlewares/Third_Party/FreeRTOS/Source/stream_buffer.c" 1
 227 0022 72B6     		 cpsid i 
 228              	@ 0 "" 2
 229              		.thumb
 230              		.syntax unified
 231              	.L11:
1102:Middlewares/Third_Party/FreeRTOS/Source/stream_buffer.c **** 	( void ) memcpy( ( void* ) ( &( pxStreamBuffer->pucBuffer[ xNextHead ] ) ), ( const void * ) pucDa
 232              		.loc 1 1102 2 discriminator 2 view .LVU58
1102:Middlewares/Third_Party/FreeRTOS/Source/stream_buffer.c **** 	( void ) memcpy( ( void* ) ( &( pxStreamBuffer->pucBuffer[ xNextHead ] ) ), ( const void * ) pucDa
 233              		.loc 1 1102 2 discriminator 2 view .LVU59
1102:Middlewares/Third_Party/FreeRTOS/Source/stream_buffer.c **** 	( void ) memcpy( ( void* ) ( &( pxStreamBuffer->pucBuffer[ xNextHead ] ) ), ( const void * ) pucDa
 234              		.loc 1 1102 2 discriminator 2 view .LVU60
ARM GAS  /tmp/cctW9zGP.s 			page 27


 235 0024 FEE7     		b	.L11
 236              	.L10:
1102:Middlewares/Third_Party/FreeRTOS/Source/stream_buffer.c **** 	( void ) memcpy( ( void* ) ( &( pxStreamBuffer->pucBuffer[ xNextHead ] ) ), ( const void * ) pucDa
 237              		.loc 1 1102 73 discriminator 2 view .LVU61
1103:Middlewares/Third_Party/FreeRTOS/Source/stream_buffer.c **** 
 238              		.loc 1 1103 2 discriminator 2 view .LVU62
1103:Middlewares/Third_Party/FreeRTOS/Source/stream_buffer.c **** 
 239              		.loc 1 1103 31 is_stmt 0 discriminator 2 view .LVU63
 240 0026 AB69     		ldr	r3, [r5, #24]
 241 0028 9819     		adds	r0, r3, r6
 242              	.LVL19:
1103:Middlewares/Third_Party/FreeRTOS/Source/stream_buffer.c **** 
 243              		.loc 1 1103 11 discriminator 2 view .LVU64
 244 002a 3A00     		movs	r2, r7
 245 002c 0199     		ldr	r1, [sp, #4]
 246              	.LVL20:
1103:Middlewares/Third_Party/FreeRTOS/Source/stream_buffer.c **** 
 247              		.loc 1 1103 11 discriminator 2 view .LVU65
 248 002e FFF7FEFF 		bl	memcpy
 249              	.LVL21:
1107:Middlewares/Third_Party/FreeRTOS/Source/stream_buffer.c **** 	{
 250              		.loc 1 1107 2 is_stmt 1 discriminator 2 view .LVU66
1107:Middlewares/Third_Party/FreeRTOS/Source/stream_buffer.c **** 	{
 251              		.loc 1 1107 4 is_stmt 0 discriminator 2 view .LVU67
 252 0032 BC42     		cmp	r4, r7
 253 0034 0AD9     		bls	.L12
1110:Middlewares/Third_Party/FreeRTOS/Source/stream_buffer.c **** 		( void ) memcpy( ( void * ) pxStreamBuffer->pucBuffer, ( const void * ) &( pucData[ xFirstLength 
 254              		.loc 1 1110 3 is_stmt 1 view .LVU68
 255 0036 E21B     		subs	r2, r4, r7
 256 0038 AB68     		ldr	r3, [r5, #8]
 257 003a 9A42     		cmp	r2, r3
 258 003c 01D9     		bls	.L13
1110:Middlewares/Third_Party/FreeRTOS/Source/stream_buffer.c **** 		( void ) memcpy( ( void * ) pxStreamBuffer->pucBuffer, ( const void * ) &( pucData[ xFirstLength 
 259              		.loc 1 1110 3 discriminator 1 view .LVU69
 260              		.syntax divided
 261              	@ 1110 "Middlewares/Third_Party/FreeRTOS/Source/stream_buffer.c" 1
 262 003e 72B6     		 cpsid i 
 263              	@ 0 "" 2
 264              		.thumb
 265              		.syntax unified
 266              	.L14:
1110:Middlewares/Third_Party/FreeRTOS/Source/stream_buffer.c **** 		( void ) memcpy( ( void * ) pxStreamBuffer->pucBuffer, ( const void * ) &( pucData[ xFirstLength 
 267              		.loc 1 1110 3 discriminator 3 view .LVU70
1110:Middlewares/Third_Party/FreeRTOS/Source/stream_buffer.c **** 		( void ) memcpy( ( void * ) pxStreamBuffer->pucBuffer, ( const void * ) &( pucData[ xFirstLength 
 268              		.loc 1 1110 3 discriminator 3 view .LVU71
1110:Middlewares/Third_Party/FreeRTOS/Source/stream_buffer.c **** 		( void ) memcpy( ( void * ) pxStreamBuffer->pucBuffer, ( const void * ) &( pucData[ xFirstLength 
 269              		.loc 1 1110 3 discriminator 3 view .LVU72
 270 0040 FEE7     		b	.L14
 271              	.L13:
1110:Middlewares/Third_Party/FreeRTOS/Source/stream_buffer.c **** 		( void ) memcpy( ( void * ) pxStreamBuffer->pucBuffer, ( const void * ) &( pucData[ xFirstLength 
 272              		.loc 1 1110 71 discriminator 2 view .LVU73
1111:Middlewares/Third_Party/FreeRTOS/Source/stream_buffer.c **** 	}
 273              		.loc 1 1111 3 discriminator 2 view .LVU74
1111:Middlewares/Third_Party/FreeRTOS/Source/stream_buffer.c **** 	}
 274              		.loc 1 1111 75 is_stmt 0 discriminator 2 view .LVU75
 275 0042 019B     		ldr	r3, [sp, #4]
 276 0044 D919     		adds	r1, r3, r7
ARM GAS  /tmp/cctW9zGP.s 			page 28


1111:Middlewares/Third_Party/FreeRTOS/Source/stream_buffer.c **** 	}
 277              		.loc 1 1111 12 discriminator 2 view .LVU76
 278 0046 A869     		ldr	r0, [r5, #24]
 279 0048 FFF7FEFF 		bl	memcpy
 280              	.LVL22:
 281              	.L12:
1115:Middlewares/Third_Party/FreeRTOS/Source/stream_buffer.c **** 	}
 282              		.loc 1 1115 27 is_stmt 1 view .LVU77
1118:Middlewares/Third_Party/FreeRTOS/Source/stream_buffer.c **** 	if( xNextHead >= pxStreamBuffer->xLength )
 283              		.loc 1 1118 2 view .LVU78
1118:Middlewares/Third_Party/FreeRTOS/Source/stream_buffer.c **** 	if( xNextHead >= pxStreamBuffer->xLength )
 284              		.loc 1 1118 12 is_stmt 0 view .LVU79
 285 004c A619     		adds	r6, r4, r6
 286              	.LVL23:
1119:Middlewares/Third_Party/FreeRTOS/Source/stream_buffer.c **** 	{
 287              		.loc 1 1119 2 is_stmt 1 view .LVU80
1119:Middlewares/Third_Party/FreeRTOS/Source/stream_buffer.c **** 	{
 288              		.loc 1 1119 33 is_stmt 0 view .LVU81
 289 004e AB68     		ldr	r3, [r5, #8]
1119:Middlewares/Third_Party/FreeRTOS/Source/stream_buffer.c **** 	{
 290              		.loc 1 1119 4 view .LVU82
 291 0050 B342     		cmp	r3, r6
 292 0052 00D8     		bhi	.L15
1121:Middlewares/Third_Party/FreeRTOS/Source/stream_buffer.c **** 	}
 293              		.loc 1 1121 3 is_stmt 1 view .LVU83
1121:Middlewares/Third_Party/FreeRTOS/Source/stream_buffer.c **** 	}
 294              		.loc 1 1121 13 is_stmt 0 view .LVU84
 295 0054 F61A     		subs	r6, r6, r3
 296              	.LVL24:
 297              	.L15:
1125:Middlewares/Third_Party/FreeRTOS/Source/stream_buffer.c **** 	}
 298              		.loc 1 1125 27 is_stmt 1 view .LVU85
1128:Middlewares/Third_Party/FreeRTOS/Source/stream_buffer.c **** 
 299              		.loc 1 1128 2 view .LVU86
1128:Middlewares/Third_Party/FreeRTOS/Source/stream_buffer.c **** 
 300              		.loc 1 1128 24 is_stmt 0 view .LVU87
 301 0056 6E60     		str	r6, [r5, #4]
1130:Middlewares/Third_Party/FreeRTOS/Source/stream_buffer.c **** }
 302              		.loc 1 1130 2 is_stmt 1 view .LVU88
1131:Middlewares/Third_Party/FreeRTOS/Source/stream_buffer.c **** /*-----------------------------------------------------------*/
 303              		.loc 1 1131 1 is_stmt 0 view .LVU89
 304 0058 2000     		movs	r0, r4
 305 005a 03B0     		add	sp, sp, #12
 306              		@ sp needed
 307              	.LVL25:
 308              	.LVL26:
 309              	.LVL27:
 310              	.LVL28:
1131:Middlewares/Third_Party/FreeRTOS/Source/stream_buffer.c **** /*-----------------------------------------------------------*/
 311              		.loc 1 1131 1 view .LVU90
 312 005c F0BD     		pop	{r4, r5, r6, r7, pc}
 313              		.cfi_endproc
 314              	.LFE17:
 316              		.section	.text.prvWriteMessageToBuffer,"ax",%progbits
 317              		.align	1
 318              		.syntax unified
 319              		.code	16
ARM GAS  /tmp/cctW9zGP.s 			page 29


 320              		.thumb_func
 322              	prvWriteMessageToBuffer:
 323              	.LVL29:
 324              	.LFB8:
 666:Middlewares/Third_Party/FreeRTOS/Source/stream_buffer.c **** 	BaseType_t xShouldWrite;
 325              		.loc 1 666 1 is_stmt 1 view -0
 326              		.cfi_startproc
 327              		@ args = 4, pretend = 0, frame = 8
 328              		@ frame_needed = 0, uses_anonymous_args = 0
 666:Middlewares/Third_Party/FreeRTOS/Source/stream_buffer.c **** 	BaseType_t xShouldWrite;
 329              		.loc 1 666 1 is_stmt 0 view .LVU92
 330 0000 30B5     		push	{r4, r5, lr}
 331              	.LCFI4:
 332              		.cfi_def_cfa_offset 12
 333              		.cfi_offset 4, -12
 334              		.cfi_offset 5, -8
 335              		.cfi_offset 14, -4
 336 0002 83B0     		sub	sp, sp, #12
 337              	.LCFI5:
 338              		.cfi_def_cfa_offset 24
 339 0004 0400     		movs	r4, r0
 340 0006 0D00     		movs	r5, r1
 341 0008 0192     		str	r2, [sp, #4]
 342 000a 181E     		subs	r0, r3, #0
 343              	.LVL30:
 667:Middlewares/Third_Party/FreeRTOS/Source/stream_buffer.c **** 	size_t xReturn;
 344              		.loc 1 667 2 is_stmt 1 view .LVU93
 668:Middlewares/Third_Party/FreeRTOS/Source/stream_buffer.c **** 
 345              		.loc 1 668 2 view .LVU94
 670:Middlewares/Third_Party/FreeRTOS/Source/stream_buffer.c **** 	{
 346              		.loc 1 670 2 view .LVU95
 670:Middlewares/Third_Party/FreeRTOS/Source/stream_buffer.c **** 	{
 347              		.loc 1 670 4 is_stmt 0 view .LVU96
 348 000c 0CD0     		beq	.L17
 676:Middlewares/Third_Party/FreeRTOS/Source/stream_buffer.c **** 	{
 349              		.loc 1 676 7 is_stmt 1 view .LVU97
 676:Middlewares/Third_Party/FreeRTOS/Source/stream_buffer.c **** 	{
 350              		.loc 1 676 27 is_stmt 0 view .LVU98
 351 000e 237F     		ldrb	r3, [r4, #28]
 352              	.LVL31:
 676:Middlewares/Third_Party/FreeRTOS/Source/stream_buffer.c **** 	{
 353              		.loc 1 676 9 view .LVU99
 354 0010 DB07     		lsls	r3, r3, #31
 355 0012 0BD4     		bmi	.L18
 681:Middlewares/Third_Party/FreeRTOS/Source/stream_buffer.c **** 		xDataLengthBytes = configMIN( xDataLengthBytes, xSpace );
 356              		.loc 1 681 3 is_stmt 1 view .LVU100
 357              	.LVL32:
 682:Middlewares/Third_Party/FreeRTOS/Source/stream_buffer.c **** 	}
 358              		.loc 1 682 3 view .LVU101
 682:Middlewares/Third_Party/FreeRTOS/Source/stream_buffer.c **** 	}
 359              		.loc 1 682 22 is_stmt 0 view .LVU102
 360 0014 1300     		movs	r3, r2
 361 0016 8242     		cmp	r2, r0
 362 0018 00D9     		bls	.L19
 363 001a 0300     		movs	r3, r0
 364              	.L19:
 682:Middlewares/Third_Party/FreeRTOS/Source/stream_buffer.c **** 	}
ARM GAS  /tmp/cctW9zGP.s 			page 30


 365              		.loc 1 682 20 view .LVU103
 366 001c 0193     		str	r3, [sp, #4]
 699:Middlewares/Third_Party/FreeRTOS/Source/stream_buffer.c **** 	{
 367              		.loc 1 699 2 is_stmt 1 view .LVU104
 368              	.LVL33:
 369              	.L20:
 702:Middlewares/Third_Party/FreeRTOS/Source/stream_buffer.c **** 	}
 370              		.loc 1 702 3 view .LVU105
 702:Middlewares/Third_Party/FreeRTOS/Source/stream_buffer.c **** 	}
 371              		.loc 1 702 13 is_stmt 0 view .LVU106
 372 001e 019A     		ldr	r2, [sp, #4]
 373 0020 2900     		movs	r1, r5
 374 0022 2000     		movs	r0, r4
 375 0024 FFF7FEFF 		bl	prvWriteBytesToBuffer
 376              	.LVL34:
 377              	.L17:
 709:Middlewares/Third_Party/FreeRTOS/Source/stream_buffer.c **** }
 378              		.loc 1 709 2 is_stmt 1 view .LVU107
 710:Middlewares/Third_Party/FreeRTOS/Source/stream_buffer.c **** /*-----------------------------------------------------------*/
 379              		.loc 1 710 1 is_stmt 0 view .LVU108
 380 0028 03B0     		add	sp, sp, #12
 381              		@ sp needed
 382              	.LVL35:
 383              	.LVL36:
 710:Middlewares/Third_Party/FreeRTOS/Source/stream_buffer.c **** /*-----------------------------------------------------------*/
 384              		.loc 1 710 1 view .LVU109
 385 002a 30BD     		pop	{r4, r5, pc}
 386              	.LVL37:
 387              	.L18:
 684:Middlewares/Third_Party/FreeRTOS/Source/stream_buffer.c **** 	{
 388              		.loc 1 684 7 is_stmt 1 view .LVU110
 684:Middlewares/Third_Party/FreeRTOS/Source/stream_buffer.c **** 	{
 389              		.loc 1 684 9 is_stmt 0 view .LVU111
 390 002c 069B     		ldr	r3, [sp, #24]
 391 002e 9842     		cmp	r0, r3
 392 0030 01D2     		bcs	.L22
 706:Middlewares/Third_Party/FreeRTOS/Source/stream_buffer.c **** 	}
 393              		.loc 1 706 11 view .LVU112
 394 0032 0020     		movs	r0, #0
 395              	.LVL38:
 706:Middlewares/Third_Party/FreeRTOS/Source/stream_buffer.c **** 	}
 396              		.loc 1 706 11 view .LVU113
 397 0034 F8E7     		b	.L17
 398              	.LVL39:
 399              	.L22:
 690:Middlewares/Third_Party/FreeRTOS/Source/stream_buffer.c **** 		( void ) prvWriteBytesToBuffer( pxStreamBuffer, ( const uint8_t * ) &( xDataLengthBytes ), sbBYTE
 400              		.loc 1 690 3 is_stmt 1 view .LVU114
 691:Middlewares/Third_Party/FreeRTOS/Source/stream_buffer.c **** 	}
 401              		.loc 1 691 3 view .LVU115
 691:Middlewares/Third_Party/FreeRTOS/Source/stream_buffer.c **** 	}
 402              		.loc 1 691 12 is_stmt 0 view .LVU116
 403 0036 0422     		movs	r2, #4
 404              	.LVL40:
 691:Middlewares/Third_Party/FreeRTOS/Source/stream_buffer.c **** 	}
 405              		.loc 1 691 12 view .LVU117
 406 0038 01A9     		add	r1, sp, #4
 407              	.LVL41:
ARM GAS  /tmp/cctW9zGP.s 			page 31


 691:Middlewares/Third_Party/FreeRTOS/Source/stream_buffer.c **** 	}
 408              		.loc 1 691 12 view .LVU118
 409 003a 2000     		movs	r0, r4
 410              	.LVL42:
 691:Middlewares/Third_Party/FreeRTOS/Source/stream_buffer.c **** 	}
 411              		.loc 1 691 12 view .LVU119
 412 003c FFF7FEFF 		bl	prvWriteBytesToBuffer
 413              	.LVL43:
 699:Middlewares/Third_Party/FreeRTOS/Source/stream_buffer.c **** 	{
 414              		.loc 1 699 2 is_stmt 1 view .LVU120
 415 0040 EDE7     		b	.L20
 416              		.cfi_endproc
 417              	.LFE8:
 419              		.section	.text.prvReadBytesFromBuffer,"ax",%progbits
 420              		.align	1
 421              		.syntax unified
 422              		.code	16
 423              		.thumb_func
 425              	prvReadBytesFromBuffer:
 426              	.LVL44:
 427              	.LFB18:
1135:Middlewares/Third_Party/FreeRTOS/Source/stream_buffer.c **** size_t xCount, xFirstLength, xNextTail;
 428              		.loc 1 1135 1 view -0
 429              		.cfi_startproc
 430              		@ args = 0, pretend = 0, frame = 8
 431              		@ frame_needed = 0, uses_anonymous_args = 0
1135:Middlewares/Third_Party/FreeRTOS/Source/stream_buffer.c **** size_t xCount, xFirstLength, xNextTail;
 432              		.loc 1 1135 1 is_stmt 0 view .LVU122
 433 0000 F0B5     		push	{r4, r5, r6, r7, lr}
 434              	.LCFI6:
 435              		.cfi_def_cfa_offset 20
 436              		.cfi_offset 4, -20
 437              		.cfi_offset 5, -16
 438              		.cfi_offset 6, -12
 439              		.cfi_offset 7, -8
 440              		.cfi_offset 14, -4
 441 0002 CE46     		mov	lr, r9
 442 0004 00B5     		push	{lr}
 443              	.LCFI7:
 444              		.cfi_def_cfa_offset 24
 445              		.cfi_offset 9, -24
 446 0006 82B0     		sub	sp, sp, #8
 447              	.LCFI8:
 448              		.cfi_def_cfa_offset 32
 449 0008 0700     		movs	r7, r0
 450 000a 0191     		str	r1, [sp, #4]
 451 000c 1400     		movs	r4, r2
1136:Middlewares/Third_Party/FreeRTOS/Source/stream_buffer.c **** 
 452              		.loc 1 1136 1 is_stmt 1 view .LVU123
1139:Middlewares/Third_Party/FreeRTOS/Source/stream_buffer.c **** 
 453              		.loc 1 1139 2 view .LVU124
1139:Middlewares/Third_Party/FreeRTOS/Source/stream_buffer.c **** 
 454              		.loc 1 1139 9 is_stmt 0 view .LVU125
 455 000e 1500     		movs	r5, r2
 456 0010 9A42     		cmp	r2, r3
 457 0012 00D9     		bls	.L24
 458 0014 1D00     		movs	r5, r3
ARM GAS  /tmp/cctW9zGP.s 			page 32


 459              	.L24:
 460              	.LVL45:
1141:Middlewares/Third_Party/FreeRTOS/Source/stream_buffer.c **** 	{
 461              		.loc 1 1141 2 is_stmt 1 view .LVU126
1141:Middlewares/Third_Party/FreeRTOS/Source/stream_buffer.c **** 	{
 462              		.loc 1 1141 4 is_stmt 0 view .LVU127
 463 0016 002D     		cmp	r5, #0
 464 0018 2AD0     		beq	.L23
1143:Middlewares/Third_Party/FreeRTOS/Source/stream_buffer.c **** 
 465              		.loc 1 1143 3 is_stmt 1 view .LVU128
1143:Middlewares/Third_Party/FreeRTOS/Source/stream_buffer.c **** 
 466              		.loc 1 1143 13 is_stmt 0 view .LVU129
 467 001a 3B68     		ldr	r3, [r7]
 468              	.LVL46:
1143:Middlewares/Third_Party/FreeRTOS/Source/stream_buffer.c **** 
 469              		.loc 1 1143 13 view .LVU130
 470 001c 9946     		mov	r9, r3
 471              	.LVL47:
1148:Middlewares/Third_Party/FreeRTOS/Source/stream_buffer.c **** 
 472              		.loc 1 1148 3 is_stmt 1 view .LVU131
1148:Middlewares/Third_Party/FreeRTOS/Source/stream_buffer.c **** 
 473              		.loc 1 1148 18 is_stmt 0 view .LVU132
 474 001e BB68     		ldr	r3, [r7, #8]
 475              	.LVL48:
1148:Middlewares/Third_Party/FreeRTOS/Source/stream_buffer.c **** 
 476              		.loc 1 1148 18 view .LVU133
 477 0020 4A46     		mov	r2, r9
 478              	.LVL49:
1148:Middlewares/Third_Party/FreeRTOS/Source/stream_buffer.c **** 
 479              		.loc 1 1148 18 view .LVU134
 480 0022 9E1A     		subs	r6, r3, r2
1148:Middlewares/Third_Party/FreeRTOS/Source/stream_buffer.c **** 
 481              		.loc 1 1148 16 view .LVU135
 482 0024 AE42     		cmp	r6, r5
 483 0026 00D9     		bls	.L26
 484 0028 2E00     		movs	r6, r5
 485              	.L26:
 486              	.LVL50:
1152:Middlewares/Third_Party/FreeRTOS/Source/stream_buffer.c **** 		configASSERT( ( xNextTail + xFirstLength ) <= pxStreamBuffer->xLength );
 487              		.loc 1 1152 3 is_stmt 1 view .LVU136
 488 002a B442     		cmp	r4, r6
 489 002c 01D2     		bcs	.L27
1152:Middlewares/Third_Party/FreeRTOS/Source/stream_buffer.c **** 		configASSERT( ( xNextTail + xFirstLength ) <= pxStreamBuffer->xLength );
 490              		.loc 1 1152 3 discriminator 1 view .LVU137
 491              		.syntax divided
 492              	@ 1152 "Middlewares/Third_Party/FreeRTOS/Source/stream_buffer.c" 1
 493 002e 72B6     		 cpsid i 
 494              	@ 0 "" 2
 495              		.thumb
 496              		.syntax unified
 497              	.L28:
1152:Middlewares/Third_Party/FreeRTOS/Source/stream_buffer.c **** 		configASSERT( ( xNextTail + xFirstLength ) <= pxStreamBuffer->xLength );
 498              		.loc 1 1152 3 discriminator 1 view .LVU138
1152:Middlewares/Third_Party/FreeRTOS/Source/stream_buffer.c **** 		configASSERT( ( xNextTail + xFirstLength ) <= pxStreamBuffer->xLength );
 499              		.loc 1 1152 3 discriminator 1 view .LVU139
1152:Middlewares/Third_Party/FreeRTOS/Source/stream_buffer.c **** 		configASSERT( ( xNextTail + xFirstLength ) <= pxStreamBuffer->xLength );
 500              		.loc 1 1152 3 discriminator 1 view .LVU140
ARM GAS  /tmp/cctW9zGP.s 			page 33


 501 0030 FEE7     		b	.L28
 502              	.L27:
1152:Middlewares/Third_Party/FreeRTOS/Source/stream_buffer.c **** 		configASSERT( ( xNextTail + xFirstLength ) <= pxStreamBuffer->xLength );
 503              		.loc 1 1152 44 discriminator 2 view .LVU141
1153:Middlewares/Third_Party/FreeRTOS/Source/stream_buffer.c **** 		( void ) memcpy( ( void * ) pucData, ( const void * ) &( pxStreamBuffer->pucBuffer[ xNextTail ] )
 504              		.loc 1 1153 3 discriminator 2 view .LVU142
 505 0032 4A46     		mov	r2, r9
 506 0034 9219     		adds	r2, r2, r6
 507 0036 9342     		cmp	r3, r2
 508 0038 01D2     		bcs	.L29
1153:Middlewares/Third_Party/FreeRTOS/Source/stream_buffer.c **** 		( void ) memcpy( ( void * ) pucData, ( const void * ) &( pxStreamBuffer->pucBuffer[ xNextTail ] )
 509              		.loc 1 1153 3 discriminator 1 view .LVU143
 510              		.syntax divided
 511              	@ 1153 "Middlewares/Third_Party/FreeRTOS/Source/stream_buffer.c" 1
 512 003a 72B6     		 cpsid i 
 513              	@ 0 "" 2
 514              		.thumb
 515              		.syntax unified
 516              	.L30:
1153:Middlewares/Third_Party/FreeRTOS/Source/stream_buffer.c **** 		( void ) memcpy( ( void * ) pucData, ( const void * ) &( pxStreamBuffer->pucBuffer[ xNextTail ] )
 517              		.loc 1 1153 3 discriminator 2 view .LVU144
1153:Middlewares/Third_Party/FreeRTOS/Source/stream_buffer.c **** 		( void ) memcpy( ( void * ) pucData, ( const void * ) &( pxStreamBuffer->pucBuffer[ xNextTail ] )
 518              		.loc 1 1153 3 discriminator 2 view .LVU145
1153:Middlewares/Third_Party/FreeRTOS/Source/stream_buffer.c **** 		( void ) memcpy( ( void * ) pucData, ( const void * ) &( pxStreamBuffer->pucBuffer[ xNextTail ] )
 519              		.loc 1 1153 3 discriminator 2 view .LVU146
 520 003c FEE7     		b	.L30
 521              	.L29:
1153:Middlewares/Third_Party/FreeRTOS/Source/stream_buffer.c **** 		( void ) memcpy( ( void * ) pucData, ( const void * ) &( pxStreamBuffer->pucBuffer[ xNextTail ] )
 522              		.loc 1 1153 74 discriminator 2 view .LVU147
1154:Middlewares/Third_Party/FreeRTOS/Source/stream_buffer.c **** 
 523              		.loc 1 1154 3 discriminator 2 view .LVU148
1154:Middlewares/Third_Party/FreeRTOS/Source/stream_buffer.c **** 
 524              		.loc 1 1154 57 is_stmt 0 discriminator 2 view .LVU149
 525 003e B969     		ldr	r1, [r7, #24]
 526              	.LVL51:
1154:Middlewares/Third_Party/FreeRTOS/Source/stream_buffer.c **** 
 527              		.loc 1 1154 57 discriminator 2 view .LVU150
 528 0040 4944     		add	r1, r1, r9
1154:Middlewares/Third_Party/FreeRTOS/Source/stream_buffer.c **** 
 529              		.loc 1 1154 12 discriminator 2 view .LVU151
 530 0042 3200     		movs	r2, r6
 531 0044 0198     		ldr	r0, [sp, #4]
 532              	.LVL52:
1154:Middlewares/Third_Party/FreeRTOS/Source/stream_buffer.c **** 
 533              		.loc 1 1154 12 discriminator 2 view .LVU152
 534 0046 FFF7FEFF 		bl	memcpy
 535              	.LVL53:
1158:Middlewares/Third_Party/FreeRTOS/Source/stream_buffer.c **** 		{
 536              		.loc 1 1158 3 is_stmt 1 discriminator 2 view .LVU153
1158:Middlewares/Third_Party/FreeRTOS/Source/stream_buffer.c **** 		{
 537              		.loc 1 1158 5 is_stmt 0 discriminator 2 view .LVU154
 538 004a B542     		cmp	r5, r6
 539 004c 09D9     		bls	.L31
1161:Middlewares/Third_Party/FreeRTOS/Source/stream_buffer.c **** 			( void ) memcpy( ( void * ) &( pucData[ xFirstLength ] ), ( void * ) ( pxStreamBuffer->pucBuffer
 540              		.loc 1 1161 4 is_stmt 1 view .LVU155
 541 004e AC42     		cmp	r4, r5
 542 0050 01D2     		bcs	.L32
ARM GAS  /tmp/cctW9zGP.s 			page 34


1161:Middlewares/Third_Party/FreeRTOS/Source/stream_buffer.c **** 			( void ) memcpy( ( void * ) &( pucData[ xFirstLength ] ), ( void * ) ( pxStreamBuffer->pucBuffer
 543              		.loc 1 1161 4 discriminator 1 view .LVU156
 544              		.syntax divided
 545              	@ 1161 "Middlewares/Third_Party/FreeRTOS/Source/stream_buffer.c" 1
 546 0052 72B6     		 cpsid i 
 547              	@ 0 "" 2
 548              		.thumb
 549              		.syntax unified
 550              	.L33:
1161:Middlewares/Third_Party/FreeRTOS/Source/stream_buffer.c **** 			( void ) memcpy( ( void * ) &( pucData[ xFirstLength ] ), ( void * ) ( pxStreamBuffer->pucBuffer
 551              		.loc 1 1161 4 discriminator 3 view .LVU157
1161:Middlewares/Third_Party/FreeRTOS/Source/stream_buffer.c **** 			( void ) memcpy( ( void * ) &( pucData[ xFirstLength ] ), ( void * ) ( pxStreamBuffer->pucBuffer
 552              		.loc 1 1161 4 discriminator 3 view .LVU158
1161:Middlewares/Third_Party/FreeRTOS/Source/stream_buffer.c **** 			( void ) memcpy( ( void * ) &( pucData[ xFirstLength ] ), ( void * ) ( pxStreamBuffer->pucBuffer
 553              		.loc 1 1161 4 discriminator 3 view .LVU159
 554 0054 FEE7     		b	.L33
 555              	.L32:
1161:Middlewares/Third_Party/FreeRTOS/Source/stream_buffer.c **** 			( void ) memcpy( ( void * ) &( pucData[ xFirstLength ] ), ( void * ) ( pxStreamBuffer->pucBuffer
 556              		.loc 1 1161 39 discriminator 2 view .LVU160
1162:Middlewares/Third_Party/FreeRTOS/Source/stream_buffer.c **** 		}
 557              		.loc 1 1162 4 discriminator 2 view .LVU161
1162:Middlewares/Third_Party/FreeRTOS/Source/stream_buffer.c **** 		}
 558              		.loc 1 1162 32 is_stmt 0 discriminator 2 view .LVU162
 559 0056 019B     		ldr	r3, [sp, #4]
 560 0058 9819     		adds	r0, r3, r6
1162:Middlewares/Third_Party/FreeRTOS/Source/stream_buffer.c **** 		}
 561              		.loc 1 1162 13 discriminator 2 view .LVU163
 562 005a AA1B     		subs	r2, r5, r6
 563 005c B969     		ldr	r1, [r7, #24]
 564 005e FFF7FEFF 		bl	memcpy
 565              	.LVL54:
 566              	.L31:
1166:Middlewares/Third_Party/FreeRTOS/Source/stream_buffer.c **** 		}
 567              		.loc 1 1166 28 is_stmt 1 view .LVU164
1171:Middlewares/Third_Party/FreeRTOS/Source/stream_buffer.c **** 
 568              		.loc 1 1171 3 view .LVU165
1171:Middlewares/Third_Party/FreeRTOS/Source/stream_buffer.c **** 
 569              		.loc 1 1171 13 is_stmt 0 view .LVU166
 570 0062 4B46     		mov	r3, r9
 571 0064 EB18     		adds	r3, r5, r3
 572              	.LVL55:
1173:Middlewares/Third_Party/FreeRTOS/Source/stream_buffer.c **** 		{
 573              		.loc 1 1173 3 is_stmt 1 view .LVU167
1173:Middlewares/Third_Party/FreeRTOS/Source/stream_buffer.c **** 		{
 574              		.loc 1 1173 34 is_stmt 0 view .LVU168
 575 0066 BA68     		ldr	r2, [r7, #8]
1173:Middlewares/Third_Party/FreeRTOS/Source/stream_buffer.c **** 		{
 576              		.loc 1 1173 5 view .LVU169
 577 0068 9A42     		cmp	r2, r3
 578 006a 00D8     		bhi	.L34
1175:Middlewares/Third_Party/FreeRTOS/Source/stream_buffer.c **** 		}
 579              		.loc 1 1175 4 is_stmt 1 view .LVU170
1175:Middlewares/Third_Party/FreeRTOS/Source/stream_buffer.c **** 		}
 580              		.loc 1 1175 14 is_stmt 0 view .LVU171
 581 006c 9B1A     		subs	r3, r3, r2
 582              	.LVL56:
 583              	.L34:
ARM GAS  /tmp/cctW9zGP.s 			page 35


1178:Middlewares/Third_Party/FreeRTOS/Source/stream_buffer.c **** 	}
 584              		.loc 1 1178 3 is_stmt 1 view .LVU172
1178:Middlewares/Third_Party/FreeRTOS/Source/stream_buffer.c **** 	}
 585              		.loc 1 1178 25 is_stmt 0 view .LVU173
 586 006e 3B60     		str	r3, [r7]
1182:Middlewares/Third_Party/FreeRTOS/Source/stream_buffer.c **** 	}
 587              		.loc 1 1182 27 is_stmt 1 view .LVU174
1185:Middlewares/Third_Party/FreeRTOS/Source/stream_buffer.c **** }
 588              		.loc 1 1185 2 view .LVU175
 589              	.LVL57:
 590              	.L23:
1186:Middlewares/Third_Party/FreeRTOS/Source/stream_buffer.c **** /*-----------------------------------------------------------*/
 591              		.loc 1 1186 1 is_stmt 0 view .LVU176
 592 0070 2800     		movs	r0, r5
 593 0072 02B0     		add	sp, sp, #8
 594              		@ sp needed
 595              	.LVL58:
 596              	.LVL59:
 597              	.LVL60:
1186:Middlewares/Third_Party/FreeRTOS/Source/stream_buffer.c **** /*-----------------------------------------------------------*/
 598              		.loc 1 1186 1 view .LVU177
 599 0074 80BC     		pop	{r7}
 600 0076 B946     		mov	r9, r7
 601 0078 F0BD     		pop	{r4, r5, r6, r7, pc}
 602              		.cfi_endproc
 603              	.LFE18:
 605              		.section	.text.prvReadMessageFromBuffer,"ax",%progbits
 606              		.align	1
 607              		.syntax unified
 608              		.code	16
 609              		.thumb_func
 611              	prvReadMessageFromBuffer:
 612              	.LVL61:
 613              	.LFB12:
 923:Middlewares/Third_Party/FreeRTOS/Source/stream_buffer.c **** size_t xOriginalTail, xReceivedLength, xNextMessageLength;
 614              		.loc 1 923 1 is_stmt 1 view -0
 615              		.cfi_startproc
 616              		@ args = 4, pretend = 0, frame = 8
 617              		@ frame_needed = 0, uses_anonymous_args = 0
 923:Middlewares/Third_Party/FreeRTOS/Source/stream_buffer.c **** size_t xOriginalTail, xReceivedLength, xNextMessageLength;
 618              		.loc 1 923 1 is_stmt 0 view .LVU179
 619 0000 F0B5     		push	{r4, r5, r6, r7, lr}
 620              	.LCFI9:
 621              		.cfi_def_cfa_offset 20
 622              		.cfi_offset 4, -20
 623              		.cfi_offset 5, -16
 624              		.cfi_offset 6, -12
 625              		.cfi_offset 7, -8
 626              		.cfi_offset 14, -4
 627 0002 C646     		mov	lr, r8
 628 0004 00B5     		push	{lr}
 629              	.LCFI10:
 630              		.cfi_def_cfa_offset 24
 631              		.cfi_offset 8, -24
 632 0006 82B0     		sub	sp, sp, #8
 633              	.LCFI11:
 634              		.cfi_def_cfa_offset 32
ARM GAS  /tmp/cctW9zGP.s 			page 36


 635 0008 0500     		movs	r5, r0
 636 000a 0F00     		movs	r7, r1
 637 000c 1600     		movs	r6, r2
 638 000e 1C00     		movs	r4, r3
 924:Middlewares/Third_Party/FreeRTOS/Source/stream_buffer.c **** configMESSAGE_BUFFER_LENGTH_TYPE xTempNextMessageLength;
 639              		.loc 1 924 1 is_stmt 1 view .LVU180
 925:Middlewares/Third_Party/FreeRTOS/Source/stream_buffer.c **** 
 640              		.loc 1 925 1 view .LVU181
 927:Middlewares/Third_Party/FreeRTOS/Source/stream_buffer.c **** 	{
 641              		.loc 1 927 2 view .LVU182
 927:Middlewares/Third_Party/FreeRTOS/Source/stream_buffer.c **** 	{
 642              		.loc 1 927 4 is_stmt 0 view .LVU183
 643 0010 089B     		ldr	r3, [sp, #32]
 644              	.LVL62:
 927:Middlewares/Third_Party/FreeRTOS/Source/stream_buffer.c **** 	{
 645              		.loc 1 927 4 view .LVU184
 646 0012 002B     		cmp	r3, #0
 647 0014 09D1     		bne	.L38
 648              	.LVL63:
 649              	.L36:
 964:Middlewares/Third_Party/FreeRTOS/Source/stream_buffer.c **** 
 650              		.loc 1 964 2 is_stmt 1 view .LVU185
 964:Middlewares/Third_Party/FreeRTOS/Source/stream_buffer.c **** 
 651              		.loc 1 964 20 is_stmt 0 view .LVU186
 652 0016 2300     		movs	r3, r4
 653 0018 3200     		movs	r2, r6
 654 001a 3900     		movs	r1, r7
 655 001c 2800     		movs	r0, r5
 656 001e FFF7FEFF 		bl	prvReadBytesFromBuffer
 657              	.LVL64:
 966:Middlewares/Third_Party/FreeRTOS/Source/stream_buffer.c **** }
 658              		.loc 1 966 2 is_stmt 1 view .LVU187
 967:Middlewares/Third_Party/FreeRTOS/Source/stream_buffer.c **** /*-----------------------------------------------------------*/
 659              		.loc 1 967 1 is_stmt 0 view .LVU188
 660 0022 02B0     		add	sp, sp, #8
 661              		@ sp needed
 662              	.LVL65:
 663              	.LVL66:
 664              	.LVL67:
 665              	.LVL68:
 967:Middlewares/Third_Party/FreeRTOS/Source/stream_buffer.c **** /*-----------------------------------------------------------*/
 666              		.loc 1 967 1 view .LVU189
 667 0024 80BC     		pop	{r7}
 668 0026 B846     		mov	r8, r7
 669 0028 F0BD     		pop	{r4, r5, r6, r7, pc}
 670              	.LVL69:
 671              	.L38:
 933:Middlewares/Third_Party/FreeRTOS/Source/stream_buffer.c **** 		( void ) prvReadBytesFromBuffer( pxStreamBuffer, ( uint8_t * ) &xTempNextMessageLength, xBytesToS
 672              		.loc 1 933 3 is_stmt 1 view .LVU190
 933:Middlewares/Third_Party/FreeRTOS/Source/stream_buffer.c **** 		( void ) prvReadBytesFromBuffer( pxStreamBuffer, ( uint8_t * ) &xTempNextMessageLength, xBytesToS
 673              		.loc 1 933 17 is_stmt 0 view .LVU191
 674 002a 0368     		ldr	r3, [r0]
 675 002c 9846     		mov	r8, r3
 676              	.LVL70:
 934:Middlewares/Third_Party/FreeRTOS/Source/stream_buffer.c **** 		xNextMessageLength = ( size_t ) xTempNextMessageLength;
 677              		.loc 1 934 3 is_stmt 1 view .LVU192
 934:Middlewares/Third_Party/FreeRTOS/Source/stream_buffer.c **** 		xNextMessageLength = ( size_t ) xTempNextMessageLength;
ARM GAS  /tmp/cctW9zGP.s 			page 37


 678              		.loc 1 934 12 is_stmt 0 view .LVU193
 679 002e 2300     		movs	r3, r4
 680              	.LVL71:
 934:Middlewares/Third_Party/FreeRTOS/Source/stream_buffer.c **** 		xNextMessageLength = ( size_t ) xTempNextMessageLength;
 681              		.loc 1 934 12 view .LVU194
 682 0030 089A     		ldr	r2, [sp, #32]
 683              	.LVL72:
 934:Middlewares/Third_Party/FreeRTOS/Source/stream_buffer.c **** 		xNextMessageLength = ( size_t ) xTempNextMessageLength;
 684              		.loc 1 934 12 view .LVU195
 685 0032 01A9     		add	r1, sp, #4
 686              	.LVL73:
 934:Middlewares/Third_Party/FreeRTOS/Source/stream_buffer.c **** 		xNextMessageLength = ( size_t ) xTempNextMessageLength;
 687              		.loc 1 934 12 view .LVU196
 688 0034 FFF7FEFF 		bl	prvReadBytesFromBuffer
 689              	.LVL74:
 935:Middlewares/Third_Party/FreeRTOS/Source/stream_buffer.c **** 
 690              		.loc 1 935 3 is_stmt 1 view .LVU197
 935:Middlewares/Third_Party/FreeRTOS/Source/stream_buffer.c **** 
 691              		.loc 1 935 22 is_stmt 0 view .LVU198
 692 0038 019B     		ldr	r3, [sp, #4]
 693              	.LVL75:
 939:Middlewares/Third_Party/FreeRTOS/Source/stream_buffer.c **** 
 694              		.loc 1 939 3 is_stmt 1 view .LVU199
 939:Middlewares/Third_Party/FreeRTOS/Source/stream_buffer.c **** 
 695              		.loc 1 939 19 is_stmt 0 view .LVU200
 696 003a 089A     		ldr	r2, [sp, #32]
 697 003c A41A     		subs	r4, r4, r2
 698              	.LVL76:
 943:Middlewares/Third_Party/FreeRTOS/Source/stream_buffer.c **** 		{
 699              		.loc 1 943 3 is_stmt 1 view .LVU201
 943:Middlewares/Third_Party/FreeRTOS/Source/stream_buffer.c **** 		{
 700              		.loc 1 943 5 is_stmt 0 view .LVU202
 701 003e 9E42     		cmp	r6, r3
 702 0040 03D2     		bcs	.L37
 948:Middlewares/Third_Party/FreeRTOS/Source/stream_buffer.c **** 			xNextMessageLength = 0;
 703              		.loc 1 948 4 is_stmt 1 view .LVU203
 948:Middlewares/Third_Party/FreeRTOS/Source/stream_buffer.c **** 			xNextMessageLength = 0;
 704              		.loc 1 948 26 is_stmt 0 view .LVU204
 705 0042 4346     		mov	r3, r8
 706              	.LVL77:
 948:Middlewares/Third_Party/FreeRTOS/Source/stream_buffer.c **** 			xNextMessageLength = 0;
 707              		.loc 1 948 26 view .LVU205
 708 0044 2B60     		str	r3, [r5]
 709              	.LVL78:
 949:Middlewares/Third_Party/FreeRTOS/Source/stream_buffer.c **** 		}
 710              		.loc 1 949 4 is_stmt 1 view .LVU206
 949:Middlewares/Third_Party/FreeRTOS/Source/stream_buffer.c **** 		}
 711              		.loc 1 949 23 is_stmt 0 view .LVU207
 712 0046 0026     		movs	r6, #0
 713              	.LVL79:
 949:Middlewares/Third_Party/FreeRTOS/Source/stream_buffer.c **** 		}
 714              		.loc 1 949 23 view .LVU208
 715 0048 E5E7     		b	.L36
 716              	.LVL80:
 717              	.L37:
 935:Middlewares/Third_Party/FreeRTOS/Source/stream_buffer.c **** 
 718              		.loc 1 935 22 view .LVU209
ARM GAS  /tmp/cctW9zGP.s 			page 38


 719 004a 1E00     		movs	r6, r3
 720              	.LVL81:
 935:Middlewares/Third_Party/FreeRTOS/Source/stream_buffer.c **** 
 721              		.loc 1 935 22 view .LVU210
 722 004c E3E7     		b	.L36
 723              		.cfi_endproc
 724              	.LFE12:
 726              		.section	.text.xStreamBufferGenericCreate,"ax",%progbits
 727              		.align	1
 728              		.global	xStreamBufferGenericCreate
 729              		.syntax unified
 730              		.code	16
 731              		.thumb_func
 733              	xStreamBufferGenericCreate:
 734              	.LVL82:
 735              	.LFB0:
 220:Middlewares/Third_Party/FreeRTOS/Source/stream_buffer.c **** 	uint8_t *pucAllocatedMemory;
 736              		.loc 1 220 2 is_stmt 1 view -0
 737              		.cfi_startproc
 738              		@ args = 0, pretend = 0, frame = 0
 739              		@ frame_needed = 0, uses_anonymous_args = 0
 220:Middlewares/Third_Party/FreeRTOS/Source/stream_buffer.c **** 	uint8_t *pucAllocatedMemory;
 740              		.loc 1 220 2 is_stmt 0 view .LVU212
 741 0000 F0B5     		push	{r4, r5, r6, r7, lr}
 742              	.LCFI12:
 743              		.cfi_def_cfa_offset 20
 744              		.cfi_offset 4, -20
 745              		.cfi_offset 5, -16
 746              		.cfi_offset 6, -12
 747              		.cfi_offset 7, -8
 748              		.cfi_offset 14, -4
 749 0002 83B0     		sub	sp, sp, #12
 750              	.LCFI13:
 751              		.cfi_def_cfa_offset 32
 752 0004 0C00     		movs	r4, r1
 221:Middlewares/Third_Party/FreeRTOS/Source/stream_buffer.c **** 	uint8_t ucFlags;
 753              		.loc 1 221 2 is_stmt 1 view .LVU213
 222:Middlewares/Third_Party/FreeRTOS/Source/stream_buffer.c **** 
 754              		.loc 1 222 2 view .LVU214
 228:Middlewares/Third_Party/FreeRTOS/Source/stream_buffer.c **** 		{
 755              		.loc 1 228 3 view .LVU215
 228:Middlewares/Third_Party/FreeRTOS/Source/stream_buffer.c **** 		{
 756              		.loc 1 228 5 is_stmt 0 view .LVU216
 757 0006 012A     		cmp	r2, #1
 758 0008 03D0     		beq	.L51
 237:Middlewares/Third_Party/FreeRTOS/Source/stream_buffer.c **** 			configASSERT( xBufferSizeBytes > 0 );
 759              		.loc 1 237 4 is_stmt 1 view .LVU217
 760              	.LVL83:
 238:Middlewares/Third_Party/FreeRTOS/Source/stream_buffer.c **** 		}
 761              		.loc 1 238 4 view .LVU218
 762 000a 0028     		cmp	r0, #0
 763 000c 07D1     		bne	.L49
 238:Middlewares/Third_Party/FreeRTOS/Source/stream_buffer.c **** 		}
 764              		.loc 1 238 4 discriminator 1 view .LVU219
 765              		.syntax divided
 766              	@ 238 "Middlewares/Third_Party/FreeRTOS/Source/stream_buffer.c" 1
 767 000e 72B6     		 cpsid i 
ARM GAS  /tmp/cctW9zGP.s 			page 39


 768              	@ 0 "" 2
 769              		.thumb
 770              		.syntax unified
 771              	.L43:
 238:Middlewares/Third_Party/FreeRTOS/Source/stream_buffer.c **** 		}
 772              		.loc 1 238 4 discriminator 2 view .LVU220
 238:Middlewares/Third_Party/FreeRTOS/Source/stream_buffer.c **** 		}
 773              		.loc 1 238 4 discriminator 2 view .LVU221
 238:Middlewares/Third_Party/FreeRTOS/Source/stream_buffer.c **** 		}
 774              		.loc 1 238 4 discriminator 2 view .LVU222
 775 0010 FEE7     		b	.L43
 776              	.LVL84:
 777              	.L51:
 231:Middlewares/Third_Party/FreeRTOS/Source/stream_buffer.c **** 			configASSERT( xBufferSizeBytes > sbBYTES_TO_STORE_MESSAGE_LENGTH );
 778              		.loc 1 231 4 view .LVU223
 232:Middlewares/Third_Party/FreeRTOS/Source/stream_buffer.c **** 		}
 779              		.loc 1 232 4 view .LVU224
 780 0012 0428     		cmp	r0, #4
 781 0014 01D8     		bhi	.L48
 232:Middlewares/Third_Party/FreeRTOS/Source/stream_buffer.c **** 		}
 782              		.loc 1 232 4 discriminator 1 view .LVU225
 783              		.syntax divided
 784              	@ 232 "Middlewares/Third_Party/FreeRTOS/Source/stream_buffer.c" 1
 785 0016 72B6     		 cpsid i 
 786              	@ 0 "" 2
 787              		.thumb
 788              		.syntax unified
 789              	.L42:
 232:Middlewares/Third_Party/FreeRTOS/Source/stream_buffer.c **** 		}
 790              		.loc 1 232 4 discriminator 1 view .LVU226
 232:Middlewares/Third_Party/FreeRTOS/Source/stream_buffer.c **** 		}
 791              		.loc 1 232 4 discriminator 1 view .LVU227
 232:Middlewares/Third_Party/FreeRTOS/Source/stream_buffer.c **** 		}
 792              		.loc 1 232 4 discriminator 1 view .LVU228
 793 0018 FEE7     		b	.L42
 794              	.L48:
 231:Middlewares/Third_Party/FreeRTOS/Source/stream_buffer.c **** 			configASSERT( xBufferSizeBytes > sbBYTES_TO_STORE_MESSAGE_LENGTH );
 795              		.loc 1 231 12 is_stmt 0 view .LVU229
 796 001a 0126     		movs	r6, #1
 797 001c 00E0     		b	.L41
 798              	.LVL85:
 799              	.L49:
 237:Middlewares/Third_Party/FreeRTOS/Source/stream_buffer.c **** 			configASSERT( xBufferSizeBytes > 0 );
 800              		.loc 1 237 12 view .LVU230
 801 001e 0026     		movs	r6, #0
 802              	.LVL86:
 803              	.L41:
 238:Middlewares/Third_Party/FreeRTOS/Source/stream_buffer.c **** 		}
 804              		.loc 1 238 40 is_stmt 1 discriminator 2 view .LVU231
 240:Middlewares/Third_Party/FreeRTOS/Source/stream_buffer.c **** 
 805              		.loc 1 240 3 discriminator 2 view .LVU232
 806 0020 A042     		cmp	r0, r4
 807 0022 01D2     		bcs	.L44
 240:Middlewares/Third_Party/FreeRTOS/Source/stream_buffer.c **** 
 808              		.loc 1 240 3 discriminator 1 view .LVU233
 809              		.syntax divided
 810              	@ 240 "Middlewares/Third_Party/FreeRTOS/Source/stream_buffer.c" 1
ARM GAS  /tmp/cctW9zGP.s 			page 40


 811 0024 72B6     		 cpsid i 
 812              	@ 0 "" 2
 813              		.thumb
 814              		.syntax unified
 815              	.L45:
 240:Middlewares/Third_Party/FreeRTOS/Source/stream_buffer.c **** 
 816              		.loc 1 240 3 discriminator 3 view .LVU234
 240:Middlewares/Third_Party/FreeRTOS/Source/stream_buffer.c **** 
 817              		.loc 1 240 3 discriminator 3 view .LVU235
 240:Middlewares/Third_Party/FreeRTOS/Source/stream_buffer.c **** 
 818              		.loc 1 240 3 discriminator 3 view .LVU236
 819 0026 FEE7     		b	.L45
 820              	.L44:
 240:Middlewares/Third_Party/FreeRTOS/Source/stream_buffer.c **** 
 821              		.loc 1 240 57 discriminator 2 view .LVU237
 244:Middlewares/Third_Party/FreeRTOS/Source/stream_buffer.c **** 		{
 822              		.loc 1 244 3 discriminator 2 view .LVU238
 244:Middlewares/Third_Party/FreeRTOS/Source/stream_buffer.c **** 		{
 823              		.loc 1 244 5 is_stmt 0 discriminator 2 view .LVU239
 824 0028 002C     		cmp	r4, #0
 825 002a 00D1     		bne	.L46
 246:Middlewares/Third_Party/FreeRTOS/Source/stream_buffer.c **** 		}
 826              		.loc 1 246 23 view .LVU240
 827 002c 0134     		adds	r4, r4, #1
 828              	.L46:
 829              	.LVL87:
 257:Middlewares/Third_Party/FreeRTOS/Source/stream_buffer.c **** 		pucAllocatedMemory = ( uint8_t * ) pvPortMalloc( xBufferSizeBytes + sizeof( StreamBuffer_t ) ); /
 830              		.loc 1 257 3 is_stmt 1 view .LVU241
 257:Middlewares/Third_Party/FreeRTOS/Source/stream_buffer.c **** 		pucAllocatedMemory = ( uint8_t * ) pvPortMalloc( xBufferSizeBytes + sizeof( StreamBuffer_t ) ); /
 831              		.loc 1 257 19 is_stmt 0 view .LVU242
 832 002e 471C     		adds	r7, r0, #1
 833              	.LVL88:
 258:Middlewares/Third_Party/FreeRTOS/Source/stream_buffer.c **** 
 834              		.loc 1 258 3 is_stmt 1 view .LVU243
 258:Middlewares/Third_Party/FreeRTOS/Source/stream_buffer.c **** 
 835              		.loc 1 258 38 is_stmt 0 view .LVU244
 836 0030 2130     		adds	r0, r0, #33
 837 0032 FFF7FEFF 		bl	pvPortMalloc
 838              	.LVL89:
 258:Middlewares/Third_Party/FreeRTOS/Source/stream_buffer.c **** 
 839              		.loc 1 258 38 view .LVU245
 840 0036 051E     		subs	r5, r0, #0
 841              	.LVL90:
 260:Middlewares/Third_Party/FreeRTOS/Source/stream_buffer.c **** 		{
 842              		.loc 1 260 3 is_stmt 1 view .LVU246
 260:Middlewares/Third_Party/FreeRTOS/Source/stream_buffer.c **** 		{
 843              		.loc 1 260 5 is_stmt 0 view .LVU247
 844 0038 06D0     		beq	.L39
 262:Middlewares/Third_Party/FreeRTOS/Source/stream_buffer.c **** 										   pucAllocatedMemory + sizeof( StreamBuffer_t ),  /* Storage area follows. */ /*lint !e9
 845              		.loc 1 262 4 is_stmt 1 view .LVU248
 846 003a 0100     		movs	r1, r0
 847 003c 2031     		adds	r1, r1, #32
 848 003e 0096     		str	r6, [sp]
 849 0040 2300     		movs	r3, r4
 850 0042 3A00     		movs	r2, r7
 851 0044 FFF7FEFF 		bl	prvInitialiseNewStreamBuffer
 852              	.LVL91:
ARM GAS  /tmp/cctW9zGP.s 			page 41


 268:Middlewares/Third_Party/FreeRTOS/Source/stream_buffer.c **** 		}
 853              		.loc 1 268 94 view .LVU249
 272:Middlewares/Third_Party/FreeRTOS/Source/stream_buffer.c **** 		}
 854              		.loc 1 272 56 view .LVU250
 275:Middlewares/Third_Party/FreeRTOS/Source/stream_buffer.c **** 	}
 855              		.loc 1 275 3 view .LVU251
 856              	.L39:
 276:Middlewares/Third_Party/FreeRTOS/Source/stream_buffer.c **** 
 857              		.loc 1 276 2 is_stmt 0 view .LVU252
 858 0048 2800     		movs	r0, r5
 859 004a 03B0     		add	sp, sp, #12
 860              		@ sp needed
 861              	.LVL92:
 862              	.LVL93:
 863              	.LVL94:
 864              	.LVL95:
 276:Middlewares/Third_Party/FreeRTOS/Source/stream_buffer.c **** 
 865              		.loc 1 276 2 view .LVU253
 866 004c F0BD     		pop	{r4, r5, r6, r7, pc}
 867              		.cfi_endproc
 868              	.LFE0:
 870              		.section	.text.vStreamBufferDelete,"ax",%progbits
 871              		.align	1
 872              		.global	vStreamBufferDelete
 873              		.syntax unified
 874              		.code	16
 875              		.thumb_func
 877              	vStreamBufferDelete:
 878              	.LVL96:
 879              	.LFB1:
 360:Middlewares/Third_Party/FreeRTOS/Source/stream_buffer.c **** StreamBuffer_t * pxStreamBuffer = xStreamBuffer;
 880              		.loc 1 360 1 is_stmt 1 view -0
 881              		.cfi_startproc
 882              		@ args = 0, pretend = 0, frame = 0
 883              		@ frame_needed = 0, uses_anonymous_args = 0
 360:Middlewares/Third_Party/FreeRTOS/Source/stream_buffer.c **** StreamBuffer_t * pxStreamBuffer = xStreamBuffer;
 884              		.loc 1 360 1 is_stmt 0 view .LVU255
 885 0000 10B5     		push	{r4, lr}
 886              	.LCFI14:
 887              		.cfi_def_cfa_offset 8
 888              		.cfi_offset 4, -8
 889              		.cfi_offset 14, -4
 361:Middlewares/Third_Party/FreeRTOS/Source/stream_buffer.c **** 
 890              		.loc 1 361 1 is_stmt 1 view .LVU256
 891              	.LVL97:
 363:Middlewares/Third_Party/FreeRTOS/Source/stream_buffer.c **** 
 892              		.loc 1 363 2 view .LVU257
 893 0002 0028     		cmp	r0, #0
 894 0004 05D0     		beq	.L57
 363:Middlewares/Third_Party/FreeRTOS/Source/stream_buffer.c **** 
 895              		.loc 1 363 32 discriminator 2 view .LVU258
 365:Middlewares/Third_Party/FreeRTOS/Source/stream_buffer.c **** 
 896              		.loc 1 365 44 discriminator 2 view .LVU259
 367:Middlewares/Third_Party/FreeRTOS/Source/stream_buffer.c **** 	{
 897              		.loc 1 367 2 discriminator 2 view .LVU260
 367:Middlewares/Third_Party/FreeRTOS/Source/stream_buffer.c **** 	{
 898              		.loc 1 367 22 is_stmt 0 discriminator 2 view .LVU261
ARM GAS  /tmp/cctW9zGP.s 			page 42


 899 0006 037F     		ldrb	r3, [r0, #28]
 367:Middlewares/Third_Party/FreeRTOS/Source/stream_buffer.c **** 	{
 900              		.loc 1 367 4 discriminator 2 view .LVU262
 901 0008 9B07     		lsls	r3, r3, #30
 902 000a 04D4     		bmi	.L55
 373:Middlewares/Third_Party/FreeRTOS/Source/stream_buffer.c **** 		}
 903              		.loc 1 373 4 is_stmt 1 view .LVU263
 904 000c FFF7FEFF 		bl	vPortFree
 905              	.LVL98:
 906              	.L52:
 389:Middlewares/Third_Party/FreeRTOS/Source/stream_buffer.c **** /*-----------------------------------------------------------*/
 907              		.loc 1 389 1 is_stmt 0 view .LVU264
 908              		@ sp needed
 909 0010 10BD     		pop	{r4, pc}
 910              	.LVL99:
 911              	.L57:
 363:Middlewares/Third_Party/FreeRTOS/Source/stream_buffer.c **** 
 912              		.loc 1 363 2 is_stmt 1 discriminator 1 view .LVU265
 913              		.syntax divided
 914              	@ 363 "Middlewares/Third_Party/FreeRTOS/Source/stream_buffer.c" 1
 915 0012 72B6     		 cpsid i 
 916              	@ 0 "" 2
 917              		.thumb
 918              		.syntax unified
 919              	.L54:
 363:Middlewares/Third_Party/FreeRTOS/Source/stream_buffer.c **** 
 920              		.loc 1 363 2 discriminator 1 view .LVU266
 363:Middlewares/Third_Party/FreeRTOS/Source/stream_buffer.c **** 
 921              		.loc 1 363 2 discriminator 1 view .LVU267
 363:Middlewares/Third_Party/FreeRTOS/Source/stream_buffer.c **** 
 922              		.loc 1 363 2 discriminator 1 view .LVU268
 923 0014 FEE7     		b	.L54
 924              	.L55:
 387:Middlewares/Third_Party/FreeRTOS/Source/stream_buffer.c **** 	}
 925              		.loc 1 387 3 view .LVU269
 387:Middlewares/Third_Party/FreeRTOS/Source/stream_buffer.c **** 	}
 926              		.loc 1 387 12 is_stmt 0 view .LVU270
 927 0016 2022     		movs	r2, #32
 928 0018 0021     		movs	r1, #0
 929 001a FFF7FEFF 		bl	memset
 930              	.LVL100:
 389:Middlewares/Third_Party/FreeRTOS/Source/stream_buffer.c **** /*-----------------------------------------------------------*/
 931              		.loc 1 389 1 view .LVU271
 932 001e F7E7     		b	.L52
 933              		.cfi_endproc
 934              	.LFE1:
 936              		.section	.text.xStreamBufferReset,"ax",%progbits
 937              		.align	1
 938              		.global	xStreamBufferReset
 939              		.syntax unified
 940              		.code	16
 941              		.thumb_func
 943              	xStreamBufferReset:
 944              	.LVL101:
 945              	.LFB2:
 393:Middlewares/Third_Party/FreeRTOS/Source/stream_buffer.c **** StreamBuffer_t * const pxStreamBuffer = xStreamBuffer;
 946              		.loc 1 393 1 is_stmt 1 view -0
ARM GAS  /tmp/cctW9zGP.s 			page 43


 947              		.cfi_startproc
 948              		@ args = 0, pretend = 0, frame = 0
 949              		@ frame_needed = 0, uses_anonymous_args = 0
 393:Middlewares/Third_Party/FreeRTOS/Source/stream_buffer.c **** StreamBuffer_t * const pxStreamBuffer = xStreamBuffer;
 950              		.loc 1 393 1 is_stmt 0 view .LVU273
 951 0000 10B5     		push	{r4, lr}
 952              	.LCFI15:
 953              		.cfi_def_cfa_offset 8
 954              		.cfi_offset 4, -8
 955              		.cfi_offset 14, -4
 956 0002 82B0     		sub	sp, sp, #8
 957              	.LCFI16:
 958              		.cfi_def_cfa_offset 16
 959 0004 041E     		subs	r4, r0, #0
 394:Middlewares/Third_Party/FreeRTOS/Source/stream_buffer.c **** BaseType_t xReturn = pdFAIL;
 960              		.loc 1 394 1 is_stmt 1 view .LVU274
 961              	.LVL102:
 395:Middlewares/Third_Party/FreeRTOS/Source/stream_buffer.c **** 
 962              		.loc 1 395 1 view .LVU275
 401:Middlewares/Third_Party/FreeRTOS/Source/stream_buffer.c **** 
 963              		.loc 1 401 2 view .LVU276
 964 0006 0AD0     		beq	.L64
 401:Middlewares/Third_Party/FreeRTOS/Source/stream_buffer.c **** 
 965              		.loc 1 401 32 discriminator 2 view .LVU277
 412:Middlewares/Third_Party/FreeRTOS/Source/stream_buffer.c **** 	{
 966              		.loc 1 412 2 discriminator 2 view .LVU278
 967 0008 FFF7FEFF 		bl	vPortEnterCritical
 968              	.LVL103:
 414:Middlewares/Third_Party/FreeRTOS/Source/stream_buffer.c **** 		{
 969              		.loc 1 414 3 discriminator 2 view .LVU279
 414:Middlewares/Third_Party/FreeRTOS/Source/stream_buffer.c **** 		{
 970              		.loc 1 414 21 is_stmt 0 discriminator 2 view .LVU280
 971 000c 2369     		ldr	r3, [r4, #16]
 414:Middlewares/Third_Party/FreeRTOS/Source/stream_buffer.c **** 		{
 972              		.loc 1 414 5 discriminator 2 view .LVU281
 973 000e 002B     		cmp	r3, #0
 974 0010 07D0     		beq	.L65
 395:Middlewares/Third_Party/FreeRTOS/Source/stream_buffer.c **** 
 975              		.loc 1 395 12 view .LVU282
 976 0012 0024     		movs	r4, #0
 977              	.LVL104:
 978              	.L61:
 431:Middlewares/Third_Party/FreeRTOS/Source/stream_buffer.c **** 			}
 979              		.loc 1 431 46 is_stmt 1 view .LVU283
 435:Middlewares/Third_Party/FreeRTOS/Source/stream_buffer.c **** 
 980              		.loc 1 435 2 view .LVU284
 981 0014 FFF7FEFF 		bl	vPortExitCritical
 982              	.LVL105:
 437:Middlewares/Third_Party/FreeRTOS/Source/stream_buffer.c **** }
 983              		.loc 1 437 2 view .LVU285
 438:Middlewares/Third_Party/FreeRTOS/Source/stream_buffer.c **** /*-----------------------------------------------------------*/
 984              		.loc 1 438 1 is_stmt 0 view .LVU286
 985 0018 2000     		movs	r0, r4
 986 001a 02B0     		add	sp, sp, #8
 987              		@ sp needed
 988              	.LVL106:
 438:Middlewares/Third_Party/FreeRTOS/Source/stream_buffer.c **** /*-----------------------------------------------------------*/
ARM GAS  /tmp/cctW9zGP.s 			page 44


 989              		.loc 1 438 1 view .LVU287
 990 001c 10BD     		pop	{r4, pc}
 991              	.LVL107:
 992              	.L64:
 401:Middlewares/Third_Party/FreeRTOS/Source/stream_buffer.c **** 
 993              		.loc 1 401 2 is_stmt 1 discriminator 1 view .LVU288
 994              		.syntax divided
 995              	@ 401 "Middlewares/Third_Party/FreeRTOS/Source/stream_buffer.c" 1
 996 001e 72B6     		 cpsid i 
 997              	@ 0 "" 2
 998              		.thumb
 999              		.syntax unified
 1000              	.L60:
 401:Middlewares/Third_Party/FreeRTOS/Source/stream_buffer.c **** 
 1001              		.loc 1 401 2 discriminator 1 view .LVU289
 401:Middlewares/Third_Party/FreeRTOS/Source/stream_buffer.c **** 
 1002              		.loc 1 401 2 discriminator 1 view .LVU290
 401:Middlewares/Third_Party/FreeRTOS/Source/stream_buffer.c **** 
 1003              		.loc 1 401 2 discriminator 1 view .LVU291
 1004 0020 FEE7     		b	.L60
 1005              	.LVL108:
 1006              	.L65:
 416:Middlewares/Third_Party/FreeRTOS/Source/stream_buffer.c **** 			{
 1007              		.loc 1 416 4 view .LVU292
 416:Middlewares/Third_Party/FreeRTOS/Source/stream_buffer.c **** 			{
 1008              		.loc 1 416 22 is_stmt 0 view .LVU293
 1009 0022 6369     		ldr	r3, [r4, #20]
 416:Middlewares/Third_Party/FreeRTOS/Source/stream_buffer.c **** 			{
 1010              		.loc 1 416 6 view .LVU294
 1011 0024 002B     		cmp	r3, #0
 1012 0026 01D0     		beq	.L66
 395:Middlewares/Third_Party/FreeRTOS/Source/stream_buffer.c **** 
 1013              		.loc 1 395 12 view .LVU295
 1014 0028 0024     		movs	r4, #0
 1015              	.LVL109:
 395:Middlewares/Third_Party/FreeRTOS/Source/stream_buffer.c **** 
 1016              		.loc 1 395 12 view .LVU296
 1017 002a F3E7     		b	.L61
 1018              	.LVL110:
 1019              	.L66:
 418:Middlewares/Third_Party/FreeRTOS/Source/stream_buffer.c **** 											  pxStreamBuffer->pucBuffer,
 1020              		.loc 1 418 5 is_stmt 1 view .LVU297
 1021 002c 237F     		ldrb	r3, [r4, #28]
 1022 002e 0093     		str	r3, [sp]
 1023 0030 E368     		ldr	r3, [r4, #12]
 1024 0032 A268     		ldr	r2, [r4, #8]
 1025 0034 A169     		ldr	r1, [r4, #24]
 1026 0036 2000     		movs	r0, r4
 1027 0038 FFF7FEFF 		bl	prvInitialiseNewStreamBuffer
 1028              	.LVL111:
 423:Middlewares/Third_Party/FreeRTOS/Source/stream_buffer.c **** 
 1029              		.loc 1 423 5 view .LVU298
 423:Middlewares/Third_Party/FreeRTOS/Source/stream_buffer.c **** 
 1030              		.loc 1 423 13 is_stmt 0 view .LVU299
 1031 003c 0124     		movs	r4, #1
 1032              	.LVL112:
 423:Middlewares/Third_Party/FreeRTOS/Source/stream_buffer.c **** 
ARM GAS  /tmp/cctW9zGP.s 			page 45


 1033              		.loc 1 423 13 view .LVU300
 1034 003e E9E7     		b	.L61
 1035              		.cfi_endproc
 1036              	.LFE2:
 1038              		.section	.text.xStreamBufferSetTriggerLevel,"ax",%progbits
 1039              		.align	1
 1040              		.global	xStreamBufferSetTriggerLevel
 1041              		.syntax unified
 1042              		.code	16
 1043              		.thumb_func
 1045              	xStreamBufferSetTriggerLevel:
 1046              	.LVL113:
 1047              	.LFB3:
 442:Middlewares/Third_Party/FreeRTOS/Source/stream_buffer.c **** StreamBuffer_t * const pxStreamBuffer = xStreamBuffer;
 1048              		.loc 1 442 1 is_stmt 1 view -0
 1049              		.cfi_startproc
 1050              		@ args = 0, pretend = 0, frame = 0
 1051              		@ frame_needed = 0, uses_anonymous_args = 0
 1052              		@ link register save eliminated.
 443:Middlewares/Third_Party/FreeRTOS/Source/stream_buffer.c **** BaseType_t xReturn;
 1053              		.loc 1 443 1 view .LVU302
 444:Middlewares/Third_Party/FreeRTOS/Source/stream_buffer.c **** 
 1054              		.loc 1 444 1 view .LVU303
 446:Middlewares/Third_Party/FreeRTOS/Source/stream_buffer.c **** 
 1055              		.loc 1 446 2 view .LVU304
 1056 0000 0028     		cmp	r0, #0
 1057 0002 08D0     		beq	.L74
 446:Middlewares/Third_Party/FreeRTOS/Source/stream_buffer.c **** 
 1058              		.loc 1 446 32 discriminator 2 view .LVU305
 449:Middlewares/Third_Party/FreeRTOS/Source/stream_buffer.c **** 	{
 1059              		.loc 1 449 2 discriminator 2 view .LVU306
 449:Middlewares/Third_Party/FreeRTOS/Source/stream_buffer.c **** 	{
 1060              		.loc 1 449 4 is_stmt 0 discriminator 2 view .LVU307
 1061 0004 0029     		cmp	r1, #0
 1062 0006 00D1     		bne	.L70
 451:Middlewares/Third_Party/FreeRTOS/Source/stream_buffer.c **** 	}
 1063              		.loc 1 451 17 view .LVU308
 1064 0008 0131     		adds	r1, r1, #1
 1065              	.LVL114:
 1066              	.L70:
 456:Middlewares/Third_Party/FreeRTOS/Source/stream_buffer.c **** 	{
 1067              		.loc 1 456 2 is_stmt 1 view .LVU309
 456:Middlewares/Third_Party/FreeRTOS/Source/stream_buffer.c **** 	{
 1068              		.loc 1 456 4 is_stmt 0 view .LVU310
 1069 000a 8368     		ldr	r3, [r0, #8]
 1070 000c 8B42     		cmp	r3, r1
 1071 000e 04D3     		bcc	.L73
 458:Middlewares/Third_Party/FreeRTOS/Source/stream_buffer.c **** 		xReturn = pdPASS;
 1072              		.loc 1 458 3 is_stmt 1 view .LVU311
 458:Middlewares/Third_Party/FreeRTOS/Source/stream_buffer.c **** 		xReturn = pdPASS;
 1073              		.loc 1 458 38 is_stmt 0 view .LVU312
 1074 0010 C160     		str	r1, [r0, #12]
 459:Middlewares/Third_Party/FreeRTOS/Source/stream_buffer.c **** 	}
 1075              		.loc 1 459 3 is_stmt 1 view .LVU313
 1076              	.LVL115:
 459:Middlewares/Third_Party/FreeRTOS/Source/stream_buffer.c **** 	}
 1077              		.loc 1 459 11 is_stmt 0 view .LVU314
ARM GAS  /tmp/cctW9zGP.s 			page 46


 1078 0012 0120     		movs	r0, #1
 1079              	.LVL116:
 1080              	.L67:
 467:Middlewares/Third_Party/FreeRTOS/Source/stream_buffer.c **** /*-----------------------------------------------------------*/
 1081              		.loc 1 467 1 view .LVU315
 1082              		@ sp needed
 1083 0014 7047     		bx	lr
 1084              	.LVL117:
 1085              	.L74:
 446:Middlewares/Third_Party/FreeRTOS/Source/stream_buffer.c **** 
 1086              		.loc 1 446 2 is_stmt 1 discriminator 1 view .LVU316
 1087              		.syntax divided
 1088              	@ 446 "Middlewares/Third_Party/FreeRTOS/Source/stream_buffer.c" 1
 1089 0016 72B6     		 cpsid i 
 1090              	@ 0 "" 2
 1091              		.thumb
 1092              		.syntax unified
 1093              	.L69:
 446:Middlewares/Third_Party/FreeRTOS/Source/stream_buffer.c **** 
 1094              		.loc 1 446 2 discriminator 1 view .LVU317
 446:Middlewares/Third_Party/FreeRTOS/Source/stream_buffer.c **** 
 1095              		.loc 1 446 2 discriminator 1 view .LVU318
 446:Middlewares/Third_Party/FreeRTOS/Source/stream_buffer.c **** 
 1096              		.loc 1 446 2 discriminator 1 view .LVU319
 1097 0018 FEE7     		b	.L69
 1098              	.L73:
 463:Middlewares/Third_Party/FreeRTOS/Source/stream_buffer.c **** 	}
 1099              		.loc 1 463 11 is_stmt 0 view .LVU320
 1100 001a 0020     		movs	r0, #0
 1101              	.LVL118:
 466:Middlewares/Third_Party/FreeRTOS/Source/stream_buffer.c **** }
 1102              		.loc 1 466 2 is_stmt 1 view .LVU321
 466:Middlewares/Third_Party/FreeRTOS/Source/stream_buffer.c **** }
 1103              		.loc 1 466 9 is_stmt 0 view .LVU322
 1104 001c FAE7     		b	.L67
 1105              		.cfi_endproc
 1106              	.LFE3:
 1108              		.section	.text.xStreamBufferSpacesAvailable,"ax",%progbits
 1109              		.align	1
 1110              		.global	xStreamBufferSpacesAvailable
 1111              		.syntax unified
 1112              		.code	16
 1113              		.thumb_func
 1115              	xStreamBufferSpacesAvailable:
 1116              	.LVL119:
 1117              	.LFB4:
 471:Middlewares/Third_Party/FreeRTOS/Source/stream_buffer.c **** const StreamBuffer_t * const pxStreamBuffer = xStreamBuffer;
 1118              		.loc 1 471 1 is_stmt 1 view -0
 1119              		.cfi_startproc
 1120              		@ args = 0, pretend = 0, frame = 0
 1121              		@ frame_needed = 0, uses_anonymous_args = 0
 1122              		@ link register save eliminated.
 472:Middlewares/Third_Party/FreeRTOS/Source/stream_buffer.c **** size_t xSpace;
 1123              		.loc 1 472 1 view .LVU324
 473:Middlewares/Third_Party/FreeRTOS/Source/stream_buffer.c **** 
 1124              		.loc 1 473 1 view .LVU325
 475:Middlewares/Third_Party/FreeRTOS/Source/stream_buffer.c **** 
ARM GAS  /tmp/cctW9zGP.s 			page 47


 1125              		.loc 1 475 2 view .LVU326
 1126 0000 0028     		cmp	r0, #0
 1127 0002 09D0     		beq	.L79
 475:Middlewares/Third_Party/FreeRTOS/Source/stream_buffer.c **** 
 1128              		.loc 1 475 32 discriminator 2 view .LVU327
 477:Middlewares/Third_Party/FreeRTOS/Source/stream_buffer.c **** 	xSpace -= pxStreamBuffer->xHead;
 1129              		.loc 1 477 2 discriminator 2 view .LVU328
 477:Middlewares/Third_Party/FreeRTOS/Source/stream_buffer.c **** 	xSpace -= pxStreamBuffer->xHead;
 1130              		.loc 1 477 25 is_stmt 0 discriminator 2 view .LVU329
 1131 0004 8168     		ldr	r1, [r0, #8]
 477:Middlewares/Third_Party/FreeRTOS/Source/stream_buffer.c **** 	xSpace -= pxStreamBuffer->xHead;
 1132              		.loc 1 477 51 discriminator 2 view .LVU330
 1133 0006 0368     		ldr	r3, [r0]
 477:Middlewares/Third_Party/FreeRTOS/Source/stream_buffer.c **** 	xSpace -= pxStreamBuffer->xHead;
 1134              		.loc 1 477 9 discriminator 2 view .LVU331
 1135 0008 CB18     		adds	r3, r1, r3
 1136              	.LVL120:
 478:Middlewares/Third_Party/FreeRTOS/Source/stream_buffer.c **** 	xSpace -= ( size_t ) 1;
 1137              		.loc 1 478 2 is_stmt 1 discriminator 2 view .LVU332
 478:Middlewares/Third_Party/FreeRTOS/Source/stream_buffer.c **** 	xSpace -= ( size_t ) 1;
 1138              		.loc 1 478 26 is_stmt 0 discriminator 2 view .LVU333
 1139 000a 4068     		ldr	r0, [r0, #4]
 1140              	.LVL121:
 478:Middlewares/Third_Party/FreeRTOS/Source/stream_buffer.c **** 	xSpace -= ( size_t ) 1;
 1141              		.loc 1 478 9 discriminator 2 view .LVU334
 1142 000c 181A     		subs	r0, r3, r0
 1143              	.LVL122:
 479:Middlewares/Third_Party/FreeRTOS/Source/stream_buffer.c **** 
 1144              		.loc 1 479 2 is_stmt 1 discriminator 2 view .LVU335
 479:Middlewares/Third_Party/FreeRTOS/Source/stream_buffer.c **** 
 1145              		.loc 1 479 9 is_stmt 0 discriminator 2 view .LVU336
 1146 000e 0138     		subs	r0, r0, #1
 1147              	.LVL123:
 481:Middlewares/Third_Party/FreeRTOS/Source/stream_buffer.c **** 	{
 1148              		.loc 1 481 2 is_stmt 1 discriminator 2 view .LVU337
 481:Middlewares/Third_Party/FreeRTOS/Source/stream_buffer.c **** 	{
 1149              		.loc 1 481 4 is_stmt 0 discriminator 2 view .LVU338
 1150 0010 8142     		cmp	r1, r0
 1151 0012 00D8     		bhi	.L75
 483:Middlewares/Third_Party/FreeRTOS/Source/stream_buffer.c **** 	}
 1152              		.loc 1 483 3 is_stmt 1 view .LVU339
 483:Middlewares/Third_Party/FreeRTOS/Source/stream_buffer.c **** 	}
 1153              		.loc 1 483 10 is_stmt 0 view .LVU340
 1154 0014 401A     		subs	r0, r0, r1
 1155              	.LVL124:
 487:Middlewares/Third_Party/FreeRTOS/Source/stream_buffer.c **** 	}
 1156              		.loc 1 487 27 is_stmt 1 view .LVU341
 490:Middlewares/Third_Party/FreeRTOS/Source/stream_buffer.c **** }
 1157              		.loc 1 490 2 view .LVU342
 1158              	.L75:
 491:Middlewares/Third_Party/FreeRTOS/Source/stream_buffer.c **** /*-----------------------------------------------------------*/
 1159              		.loc 1 491 1 is_stmt 0 view .LVU343
 1160              		@ sp needed
 1161 0016 7047     		bx	lr
 1162              	.LVL125:
 1163              	.L79:
 475:Middlewares/Third_Party/FreeRTOS/Source/stream_buffer.c **** 
ARM GAS  /tmp/cctW9zGP.s 			page 48


 1164              		.loc 1 475 2 is_stmt 1 discriminator 1 view .LVU344
 1165              		.syntax divided
 1166              	@ 475 "Middlewares/Third_Party/FreeRTOS/Source/stream_buffer.c" 1
 1167 0018 72B6     		 cpsid i 
 1168              	@ 0 "" 2
 1169              		.thumb
 1170              		.syntax unified
 1171              	.L77:
 475:Middlewares/Third_Party/FreeRTOS/Source/stream_buffer.c **** 
 1172              		.loc 1 475 2 discriminator 1 view .LVU345
 475:Middlewares/Third_Party/FreeRTOS/Source/stream_buffer.c **** 
 1173              		.loc 1 475 2 discriminator 1 view .LVU346
 475:Middlewares/Third_Party/FreeRTOS/Source/stream_buffer.c **** 
 1174              		.loc 1 475 2 discriminator 1 view .LVU347
 1175 001a FEE7     		b	.L77
 1176              		.cfi_endproc
 1177              	.LFE4:
 1179              		.section	.text.xStreamBufferBytesAvailable,"ax",%progbits
 1180              		.align	1
 1181              		.global	xStreamBufferBytesAvailable
 1182              		.syntax unified
 1183              		.code	16
 1184              		.thumb_func
 1186              	xStreamBufferBytesAvailable:
 1187              	.LVL126:
 1188              	.LFB5:
 495:Middlewares/Third_Party/FreeRTOS/Source/stream_buffer.c **** const StreamBuffer_t * const pxStreamBuffer = xStreamBuffer;
 1189              		.loc 1 495 1 view -0
 1190              		.cfi_startproc
 1191              		@ args = 0, pretend = 0, frame = 0
 1192              		@ frame_needed = 0, uses_anonymous_args = 0
 495:Middlewares/Third_Party/FreeRTOS/Source/stream_buffer.c **** const StreamBuffer_t * const pxStreamBuffer = xStreamBuffer;
 1193              		.loc 1 495 1 is_stmt 0 view .LVU349
 1194 0000 10B5     		push	{r4, lr}
 1195              	.LCFI17:
 1196              		.cfi_def_cfa_offset 8
 1197              		.cfi_offset 4, -8
 1198              		.cfi_offset 14, -4
 496:Middlewares/Third_Party/FreeRTOS/Source/stream_buffer.c **** size_t xReturn;
 1199              		.loc 1 496 1 is_stmt 1 view .LVU350
 1200              	.LVL127:
 497:Middlewares/Third_Party/FreeRTOS/Source/stream_buffer.c **** 
 1201              		.loc 1 497 1 view .LVU351
 499:Middlewares/Third_Party/FreeRTOS/Source/stream_buffer.c **** 
 1202              		.loc 1 499 2 view .LVU352
 1203 0002 0028     		cmp	r0, #0
 1204 0004 02D0     		beq	.L83
 499:Middlewares/Third_Party/FreeRTOS/Source/stream_buffer.c **** 
 1205              		.loc 1 499 32 discriminator 2 view .LVU353
 501:Middlewares/Third_Party/FreeRTOS/Source/stream_buffer.c **** 	return xReturn;
 1206              		.loc 1 501 2 discriminator 2 view .LVU354
 501:Middlewares/Third_Party/FreeRTOS/Source/stream_buffer.c **** 	return xReturn;
 1207              		.loc 1 501 12 is_stmt 0 discriminator 2 view .LVU355
 1208 0006 FFF7FEFF 		bl	prvBytesInBuffer
 1209              	.LVL128:
 502:Middlewares/Third_Party/FreeRTOS/Source/stream_buffer.c **** }
 1210              		.loc 1 502 2 is_stmt 1 discriminator 2 view .LVU356
ARM GAS  /tmp/cctW9zGP.s 			page 49


 503:Middlewares/Third_Party/FreeRTOS/Source/stream_buffer.c **** /*-----------------------------------------------------------*/
 1211              		.loc 1 503 1 is_stmt 0 discriminator 2 view .LVU357
 1212              		@ sp needed
 1213 000a 10BD     		pop	{r4, pc}
 1214              	.LVL129:
 1215              	.L83:
 499:Middlewares/Third_Party/FreeRTOS/Source/stream_buffer.c **** 
 1216              		.loc 1 499 2 is_stmt 1 discriminator 1 view .LVU358
 1217              		.syntax divided
 1218              	@ 499 "Middlewares/Third_Party/FreeRTOS/Source/stream_buffer.c" 1
 1219 000c 72B6     		 cpsid i 
 1220              	@ 0 "" 2
 1221              		.thumb
 1222              		.syntax unified
 1223              	.L82:
 499:Middlewares/Third_Party/FreeRTOS/Source/stream_buffer.c **** 
 1224              		.loc 1 499 2 discriminator 1 view .LVU359
 499:Middlewares/Third_Party/FreeRTOS/Source/stream_buffer.c **** 
 1225              		.loc 1 499 2 discriminator 1 view .LVU360
 499:Middlewares/Third_Party/FreeRTOS/Source/stream_buffer.c **** 
 1226              		.loc 1 499 2 discriminator 1 view .LVU361
 1227 000e FEE7     		b	.L82
 1228              		.cfi_endproc
 1229              	.LFE5:
 1231              		.section	.text.xStreamBufferSend,"ax",%progbits
 1232              		.align	1
 1233              		.global	xStreamBufferSend
 1234              		.syntax unified
 1235              		.code	16
 1236              		.thumb_func
 1238              	xStreamBufferSend:
 1239              	.LVL130:
 1240              	.LFB6:
 510:Middlewares/Third_Party/FreeRTOS/Source/stream_buffer.c **** StreamBuffer_t * const pxStreamBuffer = xStreamBuffer;
 1241              		.loc 1 510 1 view -0
 1242              		.cfi_startproc
 1243              		@ args = 0, pretend = 0, frame = 16
 1244              		@ frame_needed = 0, uses_anonymous_args = 0
 510:Middlewares/Third_Party/FreeRTOS/Source/stream_buffer.c **** StreamBuffer_t * const pxStreamBuffer = xStreamBuffer;
 1245              		.loc 1 510 1 is_stmt 0 view .LVU363
 1246 0000 F0B5     		push	{r4, r5, r6, r7, lr}
 1247              	.LCFI18:
 1248              		.cfi_def_cfa_offset 20
 1249              		.cfi_offset 4, -20
 1250              		.cfi_offset 5, -16
 1251              		.cfi_offset 6, -12
 1252              		.cfi_offset 7, -8
 1253              		.cfi_offset 14, -4
 1254 0002 87B0     		sub	sp, sp, #28
 1255              	.LCFI19:
 1256              		.cfi_def_cfa_offset 48
 1257 0004 0400     		movs	r4, r0
 1258 0006 0F1E     		subs	r7, r1, #0
 1259 0008 0292     		str	r2, [sp, #8]
 1260 000a 0393     		str	r3, [sp, #12]
 511:Middlewares/Third_Party/FreeRTOS/Source/stream_buffer.c **** size_t xReturn, xSpace = 0;
 1261              		.loc 1 511 1 is_stmt 1 view .LVU364
ARM GAS  /tmp/cctW9zGP.s 			page 50


 1262              	.LVL131:
 512:Middlewares/Third_Party/FreeRTOS/Source/stream_buffer.c **** size_t xRequiredSpace = xDataLengthBytes;
 1263              		.loc 1 512 1 view .LVU365
 513:Middlewares/Third_Party/FreeRTOS/Source/stream_buffer.c **** TimeOut_t xTimeOut;
 1264              		.loc 1 513 1 view .LVU366
 514:Middlewares/Third_Party/FreeRTOS/Source/stream_buffer.c **** 
 1265              		.loc 1 514 1 view .LVU367
 516:Middlewares/Third_Party/FreeRTOS/Source/stream_buffer.c **** 	configASSERT( pxStreamBuffer );
 1266              		.loc 1 516 2 view .LVU368
 1267 000c 0AD0     		beq	.L101
 516:Middlewares/Third_Party/FreeRTOS/Source/stream_buffer.c **** 	configASSERT( pxStreamBuffer );
 1268              		.loc 1 516 26 discriminator 2 view .LVU369
 517:Middlewares/Third_Party/FreeRTOS/Source/stream_buffer.c **** 
 1269              		.loc 1 517 2 discriminator 2 view .LVU370
 1270 000e 0028     		cmp	r0, #0
 1271 0010 0AD0     		beq	.L102
 517:Middlewares/Third_Party/FreeRTOS/Source/stream_buffer.c **** 
 1272              		.loc 1 517 32 discriminator 2 view .LVU371
 523:Middlewares/Third_Party/FreeRTOS/Source/stream_buffer.c **** 	{
 1273              		.loc 1 523 2 discriminator 2 view .LVU372
 523:Middlewares/Third_Party/FreeRTOS/Source/stream_buffer.c **** 	{
 1274              		.loc 1 523 22 is_stmt 0 discriminator 2 view .LVU373
 1275 0012 037F     		ldrb	r3, [r0, #28]
 1276              	.LVL132:
 523:Middlewares/Third_Party/FreeRTOS/Source/stream_buffer.c **** 	{
 1277              		.loc 1 523 4 discriminator 2 view .LVU374
 1278 0014 DB07     		lsls	r3, r3, #31
 1279 0016 09D5     		bpl	.L100
 525:Middlewares/Third_Party/FreeRTOS/Source/stream_buffer.c **** 
 1280              		.loc 1 525 3 is_stmt 1 view .LVU375
 525:Middlewares/Third_Party/FreeRTOS/Source/stream_buffer.c **** 
 1281              		.loc 1 525 18 is_stmt 0 view .LVU376
 1282 0018 029B     		ldr	r3, [sp, #8]
 1283 001a 1E1D     		adds	r6, r3, #4
 1284              	.LVL133:
 528:Middlewares/Third_Party/FreeRTOS/Source/stream_buffer.c **** 	}
 1285              		.loc 1 528 3 is_stmt 1 view .LVU377
 1286 001c B342     		cmp	r3, r6
 1287 001e 06D3     		bcc	.L89
 528:Middlewares/Third_Party/FreeRTOS/Source/stream_buffer.c **** 	}
 1288              		.loc 1 528 3 discriminator 1 view .LVU378
 1289              		.syntax divided
 1290              	@ 528 "Middlewares/Third_Party/FreeRTOS/Source/stream_buffer.c" 1
 1291 0020 72B6     		 cpsid i 
 1292              	@ 0 "" 2
 1293              		.thumb
 1294              		.syntax unified
 1295              	.L90:
 528:Middlewares/Third_Party/FreeRTOS/Source/stream_buffer.c **** 	}
 1296              		.loc 1 528 3 discriminator 3 view .LVU379
 528:Middlewares/Third_Party/FreeRTOS/Source/stream_buffer.c **** 	}
 1297              		.loc 1 528 3 discriminator 3 view .LVU380
 528:Middlewares/Third_Party/FreeRTOS/Source/stream_buffer.c **** 	}
 1298              		.loc 1 528 3 discriminator 3 view .LVU381
 1299 0022 FEE7     		b	.L90
 1300              	.LVL134:
 1301              	.L101:
ARM GAS  /tmp/cctW9zGP.s 			page 51


 516:Middlewares/Third_Party/FreeRTOS/Source/stream_buffer.c **** 	configASSERT( pxStreamBuffer );
 1302              		.loc 1 516 2 discriminator 1 view .LVU382
 1303              		.syntax divided
 1304              	@ 516 "Middlewares/Third_Party/FreeRTOS/Source/stream_buffer.c" 1
 1305 0024 72B6     		 cpsid i 
 1306              	@ 0 "" 2
 1307              		.thumb
 1308              		.syntax unified
 1309              	.L86:
 516:Middlewares/Third_Party/FreeRTOS/Source/stream_buffer.c **** 	configASSERT( pxStreamBuffer );
 1310              		.loc 1 516 2 discriminator 1 view .LVU383
 516:Middlewares/Third_Party/FreeRTOS/Source/stream_buffer.c **** 	configASSERT( pxStreamBuffer );
 1311              		.loc 1 516 2 discriminator 1 view .LVU384
 516:Middlewares/Third_Party/FreeRTOS/Source/stream_buffer.c **** 	configASSERT( pxStreamBuffer );
 1312              		.loc 1 516 2 discriminator 1 view .LVU385
 1313 0026 FEE7     		b	.L86
 1314              	.L102:
 517:Middlewares/Third_Party/FreeRTOS/Source/stream_buffer.c **** 
 1315              		.loc 1 517 2 discriminator 1 view .LVU386
 1316              		.syntax divided
 1317              	@ 517 "Middlewares/Third_Party/FreeRTOS/Source/stream_buffer.c" 1
 1318 0028 72B6     		 cpsid i 
 1319              	@ 0 "" 2
 1320              		.thumb
 1321              		.syntax unified
 1322              	.L88:
 517:Middlewares/Third_Party/FreeRTOS/Source/stream_buffer.c **** 
 1323              		.loc 1 517 2 discriminator 2 view .LVU387
 517:Middlewares/Third_Party/FreeRTOS/Source/stream_buffer.c **** 
 1324              		.loc 1 517 2 discriminator 2 view .LVU388
 517:Middlewares/Third_Party/FreeRTOS/Source/stream_buffer.c **** 
 1325              		.loc 1 517 2 discriminator 2 view .LVU389
 1326 002a FEE7     		b	.L88
 1327              	.LVL135:
 1328              	.L100:
 513:Middlewares/Third_Party/FreeRTOS/Source/stream_buffer.c **** TimeOut_t xTimeOut;
 1329              		.loc 1 513 8 is_stmt 0 view .LVU390
 1330 002c 029E     		ldr	r6, [sp, #8]
 1331              	.LVL136:
 1332              	.L89:
 532:Middlewares/Third_Party/FreeRTOS/Source/stream_buffer.c **** 	}
 1333              		.loc 1 532 27 is_stmt 1 view .LVU391
 535:Middlewares/Third_Party/FreeRTOS/Source/stream_buffer.c **** 	{
 1334              		.loc 1 535 2 view .LVU392
 535:Middlewares/Third_Party/FreeRTOS/Source/stream_buffer.c **** 	{
 1335              		.loc 1 535 4 is_stmt 0 view .LVU393
 1336 002e 039B     		ldr	r3, [sp, #12]
 1337 0030 002B     		cmp	r3, #0
 1338 0032 2AD0     		beq	.L91
 537:Middlewares/Third_Party/FreeRTOS/Source/stream_buffer.c **** 
 1339              		.loc 1 537 3 is_stmt 1 view .LVU394
 1340 0034 04A8     		add	r0, sp, #16
 1341              	.LVL137:
 537:Middlewares/Third_Party/FreeRTOS/Source/stream_buffer.c **** 
 1342              		.loc 1 537 3 is_stmt 0 view .LVU395
 1343 0036 FFF7FEFF 		bl	vTaskSetTimeOutState
 1344              	.LVL138:
ARM GAS  /tmp/cctW9zGP.s 			page 52


 1345              	.L95:
 539:Middlewares/Third_Party/FreeRTOS/Source/stream_buffer.c **** 		{
 1346              		.loc 1 539 3 is_stmt 1 view .LVU396
 543:Middlewares/Third_Party/FreeRTOS/Source/stream_buffer.c **** 			{
 1347              		.loc 1 543 4 view .LVU397
 1348 003a FFF7FEFF 		bl	vPortEnterCritical
 1349              	.LVL139:
 545:Middlewares/Third_Party/FreeRTOS/Source/stream_buffer.c **** 
 1350              		.loc 1 545 5 view .LVU398
 545:Middlewares/Third_Party/FreeRTOS/Source/stream_buffer.c **** 
 1351              		.loc 1 545 14 is_stmt 0 view .LVU399
 1352 003e 2000     		movs	r0, r4
 1353 0040 FFF7FEFF 		bl	xStreamBufferSpacesAvailable
 1354              	.LVL140:
 1355 0044 0500     		movs	r5, r0
 1356              	.LVL141:
 547:Middlewares/Third_Party/FreeRTOS/Source/stream_buffer.c **** 				{
 1357              		.loc 1 547 5 is_stmt 1 view .LVU400
 547:Middlewares/Third_Party/FreeRTOS/Source/stream_buffer.c **** 				{
 1358              		.loc 1 547 7 is_stmt 0 view .LVU401
 1359 0046 8642     		cmp	r6, r0
 1360 0048 1BD9     		bls	.L92
 550:Middlewares/Third_Party/FreeRTOS/Source/stream_buffer.c **** 
 1361              		.loc 1 550 6 is_stmt 1 view .LVU402
 550:Middlewares/Third_Party/FreeRTOS/Source/stream_buffer.c **** 
 1362              		.loc 1 550 15 is_stmt 0 view .LVU403
 1363 004a 0020     		movs	r0, #0
 1364              	.LVL142:
 550:Middlewares/Third_Party/FreeRTOS/Source/stream_buffer.c **** 
 1365              		.loc 1 550 15 view .LVU404
 1366 004c FFF7FEFF 		bl	xTaskNotifyStateClear
 1367              	.LVL143:
 553:Middlewares/Third_Party/FreeRTOS/Source/stream_buffer.c **** 					pxStreamBuffer->xTaskWaitingToSend = xTaskGetCurrentTaskHandle();
 1368              		.loc 1 553 6 is_stmt 1 view .LVU405
 1369 0050 6369     		ldr	r3, [r4, #20]
 1370 0052 002B     		cmp	r3, #0
 1371 0054 13D1     		bne	.L103
 553:Middlewares/Third_Party/FreeRTOS/Source/stream_buffer.c **** 					pxStreamBuffer->xTaskWaitingToSend = xTaskGetCurrentTaskHandle();
 1372              		.loc 1 553 64 discriminator 2 view .LVU406
 554:Middlewares/Third_Party/FreeRTOS/Source/stream_buffer.c **** 				}
 1373              		.loc 1 554 6 discriminator 2 view .LVU407
 554:Middlewares/Third_Party/FreeRTOS/Source/stream_buffer.c **** 				}
 1374              		.loc 1 554 43 is_stmt 0 discriminator 2 view .LVU408
 1375 0056 FFF7FEFF 		bl	xTaskGetCurrentTaskHandle
 1376              	.LVL144:
 554:Middlewares/Third_Party/FreeRTOS/Source/stream_buffer.c **** 				}
 1377              		.loc 1 554 41 discriminator 2 view .LVU409
 1378 005a 6061     		str	r0, [r4, #20]
 562:Middlewares/Third_Party/FreeRTOS/Source/stream_buffer.c **** 
 1379              		.loc 1 562 4 is_stmt 1 discriminator 2 view .LVU410
 1380 005c FFF7FEFF 		bl	vPortExitCritical
 1381              	.LVL145:
 564:Middlewares/Third_Party/FreeRTOS/Source/stream_buffer.c **** 			( void ) xTaskNotifyWait( ( uint32_t ) 0, ( uint32_t ) 0, NULL, xTicksToWait );
 1382              		.loc 1 564 56 discriminator 2 view .LVU411
 565:Middlewares/Third_Party/FreeRTOS/Source/stream_buffer.c **** 			pxStreamBuffer->xTaskWaitingToSend = NULL;
 1383              		.loc 1 565 4 discriminator 2 view .LVU412
 565:Middlewares/Third_Party/FreeRTOS/Source/stream_buffer.c **** 			pxStreamBuffer->xTaskWaitingToSend = NULL;
ARM GAS  /tmp/cctW9zGP.s 			page 53


 1384              		.loc 1 565 13 is_stmt 0 discriminator 2 view .LVU413
 1385 0060 039B     		ldr	r3, [sp, #12]
 1386 0062 0022     		movs	r2, #0
 1387 0064 0021     		movs	r1, #0
 1388 0066 0020     		movs	r0, #0
 1389 0068 FFF7FEFF 		bl	xTaskNotifyWait
 1390              	.LVL146:
 566:Middlewares/Third_Party/FreeRTOS/Source/stream_buffer.c **** 
 1391              		.loc 1 566 4 is_stmt 1 discriminator 2 view .LVU414
 566:Middlewares/Third_Party/FreeRTOS/Source/stream_buffer.c **** 
 1392              		.loc 1 566 39 is_stmt 0 discriminator 2 view .LVU415
 1393 006c 0023     		movs	r3, #0
 1394 006e 6361     		str	r3, [r4, #20]
 568:Middlewares/Third_Party/FreeRTOS/Source/stream_buffer.c **** 	}
 1395              		.loc 1 568 10 is_stmt 1 discriminator 2 view .LVU416
 568:Middlewares/Third_Party/FreeRTOS/Source/stream_buffer.c **** 	}
 1396              		.loc 1 568 12 is_stmt 0 discriminator 2 view .LVU417
 1397 0070 03A9     		add	r1, sp, #12
 1398 0072 04A8     		add	r0, sp, #16
 1399 0074 FFF7FEFF 		bl	xTaskCheckForTimeOut
 1400              	.LVL147:
 568:Middlewares/Third_Party/FreeRTOS/Source/stream_buffer.c **** 	}
 1401              		.loc 1 568 3 discriminator 2 view .LVU418
 1402 0078 0028     		cmp	r0, #0
 1403 007a DED0     		beq	.L95
 1404 007c 03E0     		b	.L96
 1405              	.L103:
 553:Middlewares/Third_Party/FreeRTOS/Source/stream_buffer.c **** 					pxStreamBuffer->xTaskWaitingToSend = xTaskGetCurrentTaskHandle();
 1406              		.loc 1 553 6 is_stmt 1 discriminator 1 view .LVU419
 1407              		.syntax divided
 1408              	@ 553 "Middlewares/Third_Party/FreeRTOS/Source/stream_buffer.c" 1
 1409 007e 72B6     		 cpsid i 
 1410              	@ 0 "" 2
 1411              		.thumb
 1412              		.syntax unified
 1413              	.L94:
 553:Middlewares/Third_Party/FreeRTOS/Source/stream_buffer.c **** 					pxStreamBuffer->xTaskWaitingToSend = xTaskGetCurrentTaskHandle();
 1414              		.loc 1 553 6 discriminator 4 view .LVU420
 553:Middlewares/Third_Party/FreeRTOS/Source/stream_buffer.c **** 					pxStreamBuffer->xTaskWaitingToSend = xTaskGetCurrentTaskHandle();
 1415              		.loc 1 553 6 discriminator 4 view .LVU421
 553:Middlewares/Third_Party/FreeRTOS/Source/stream_buffer.c **** 					pxStreamBuffer->xTaskWaitingToSend = xTaskGetCurrentTaskHandle();
 1416              		.loc 1 553 6 discriminator 4 view .LVU422
 1417 0080 FEE7     		b	.L94
 1418              	.LVL148:
 1419              	.L92:
 558:Middlewares/Third_Party/FreeRTOS/Source/stream_buffer.c **** 					break;
 1420              		.loc 1 558 6 view .LVU423
 1421 0082 FFF7FEFF 		bl	vPortExitCritical
 1422              	.LVL149:
 559:Middlewares/Third_Party/FreeRTOS/Source/stream_buffer.c **** 				}
 1423              		.loc 1 559 6 view .LVU424
 1424              	.L96:
 572:Middlewares/Third_Party/FreeRTOS/Source/stream_buffer.c **** 	}
 1425              		.loc 1 572 27 view .LVU425
 575:Middlewares/Third_Party/FreeRTOS/Source/stream_buffer.c **** 	{
 1426              		.loc 1 575 2 view .LVU426
 575:Middlewares/Third_Party/FreeRTOS/Source/stream_buffer.c **** 	{
ARM GAS  /tmp/cctW9zGP.s 			page 54


 1427              		.loc 1 575 4 is_stmt 0 view .LVU427
 1428 0086 002D     		cmp	r5, #0
 1429 0088 03D1     		bne	.L97
 1430              	.LVL150:
 1431              	.L91:
 577:Middlewares/Third_Party/FreeRTOS/Source/stream_buffer.c **** 	}
 1432              		.loc 1 577 3 is_stmt 1 view .LVU428
 577:Middlewares/Third_Party/FreeRTOS/Source/stream_buffer.c **** 	}
 1433              		.loc 1 577 12 is_stmt 0 view .LVU429
 1434 008a 2000     		movs	r0, r4
 1435 008c FFF7FEFF 		bl	xStreamBufferSpacesAvailable
 1436              	.LVL151:
 1437 0090 0500     		movs	r5, r0
 1438              	.LVL152:
 1439              	.L97:
 581:Middlewares/Third_Party/FreeRTOS/Source/stream_buffer.c **** 	}
 1440              		.loc 1 581 27 is_stmt 1 view .LVU430
 584:Middlewares/Third_Party/FreeRTOS/Source/stream_buffer.c **** 
 1441              		.loc 1 584 2 view .LVU431
 584:Middlewares/Third_Party/FreeRTOS/Source/stream_buffer.c **** 
 1442              		.loc 1 584 12 is_stmt 0 view .LVU432
 1443 0092 0096     		str	r6, [sp]
 1444 0094 2B00     		movs	r3, r5
 1445 0096 029A     		ldr	r2, [sp, #8]
 1446 0098 3900     		movs	r1, r7
 1447 009a 2000     		movs	r0, r4
 1448 009c FFF7FEFF 		bl	prvWriteMessageToBuffer
 1449              	.LVL153:
 1450 00a0 051E     		subs	r5, r0, #0
 1451              	.LVL154:
 586:Middlewares/Third_Party/FreeRTOS/Source/stream_buffer.c **** 	{
 1452              		.loc 1 586 2 is_stmt 1 view .LVU433
 586:Middlewares/Third_Party/FreeRTOS/Source/stream_buffer.c **** 	{
 1453              		.loc 1 586 4 is_stmt 0 view .LVU434
 1454 00a2 02D1     		bne	.L104
 1455              	.LVL155:
 1456              	.L84:
 607:Middlewares/Third_Party/FreeRTOS/Source/stream_buffer.c **** /*-----------------------------------------------------------*/
 1457              		.loc 1 607 1 view .LVU435
 1458 00a4 2800     		movs	r0, r5
 1459 00a6 07B0     		add	sp, sp, #28
 1460              		@ sp needed
 1461              	.LVL156:
 1462              	.LVL157:
 1463              	.LVL158:
 1464              	.LVL159:
 607:Middlewares/Third_Party/FreeRTOS/Source/stream_buffer.c **** /*-----------------------------------------------------------*/
 1465              		.loc 1 607 1 view .LVU436
 1466 00a8 F0BD     		pop	{r4, r5, r6, r7, pc}
 1467              	.LVL160:
 1468              	.L104:
 588:Middlewares/Third_Party/FreeRTOS/Source/stream_buffer.c **** 
 1469              		.loc 1 588 52 is_stmt 1 view .LVU437
 591:Middlewares/Third_Party/FreeRTOS/Source/stream_buffer.c **** 		{
 1470              		.loc 1 591 3 view .LVU438
 591:Middlewares/Third_Party/FreeRTOS/Source/stream_buffer.c **** 		{
 1471              		.loc 1 591 7 is_stmt 0 view .LVU439
ARM GAS  /tmp/cctW9zGP.s 			page 55


 1472 00aa 2000     		movs	r0, r4
 1473              	.LVL161:
 591:Middlewares/Third_Party/FreeRTOS/Source/stream_buffer.c **** 		{
 1474              		.loc 1 591 7 view .LVU440
 1475 00ac FFF7FEFF 		bl	prvBytesInBuffer
 1476              	.LVL162:
 591:Middlewares/Third_Party/FreeRTOS/Source/stream_buffer.c **** 		{
 1477              		.loc 1 591 5 view .LVU441
 1478 00b0 E368     		ldr	r3, [r4, #12]
 1479 00b2 9842     		cmp	r0, r3
 1480 00b4 F6D3     		bcc	.L84
 593:Middlewares/Third_Party/FreeRTOS/Source/stream_buffer.c **** 		}
 1481              		.loc 1 593 4 is_stmt 1 view .LVU442
 1482 00b6 FFF7FEFF 		bl	vTaskSuspendAll
 1483              	.LVL163:
 593:Middlewares/Third_Party/FreeRTOS/Source/stream_buffer.c **** 		}
 1484              		.loc 1 593 4 view .LVU443
 1485 00ba 2369     		ldr	r3, [r4, #16]
 1486 00bc 002B     		cmp	r3, #0
 1487 00be 07D0     		beq	.L99
 593:Middlewares/Third_Party/FreeRTOS/Source/stream_buffer.c **** 		}
 1488              		.loc 1 593 4 discriminator 1 view .LVU444
 1489 00c0 2069     		ldr	r0, [r4, #16]
 1490 00c2 0023     		movs	r3, #0
 1491 00c4 0022     		movs	r2, #0
 1492 00c6 0021     		movs	r1, #0
 1493 00c8 FFF7FEFF 		bl	xTaskGenericNotify
 1494              	.LVL164:
 593:Middlewares/Third_Party/FreeRTOS/Source/stream_buffer.c **** 		}
 1495              		.loc 1 593 4 discriminator 1 view .LVU445
 1496 00cc 0023     		movs	r3, #0
 1497 00ce 2361     		str	r3, [r4, #16]
 1498              	.L99:
 593:Middlewares/Third_Party/FreeRTOS/Source/stream_buffer.c **** 		}
 1499              		.loc 1 593 4 discriminator 3 view .LVU446
 1500 00d0 FFF7FEFF 		bl	xTaskResumeAll
 1501              	.LVL165:
 593:Middlewares/Third_Party/FreeRTOS/Source/stream_buffer.c **** 		}
 1502              		.loc 1 593 38 discriminator 3 view .LVU447
 602:Middlewares/Third_Party/FreeRTOS/Source/stream_buffer.c **** 		traceSTREAM_BUFFER_SEND_FAILED( xStreamBuffer );
 1503              		.loc 1 602 27 discriminator 3 view .LVU448
 603:Middlewares/Third_Party/FreeRTOS/Source/stream_buffer.c **** 	}
 1504              		.loc 1 603 50 discriminator 3 view .LVU449
 606:Middlewares/Third_Party/FreeRTOS/Source/stream_buffer.c **** }
 1505              		.loc 1 606 2 discriminator 3 view .LVU450
 606:Middlewares/Third_Party/FreeRTOS/Source/stream_buffer.c **** }
 1506              		.loc 1 606 9 is_stmt 0 discriminator 3 view .LVU451
 1507 00d4 E6E7     		b	.L84
 1508              		.cfi_endproc
 1509              	.LFE6:
 1511              		.section	.text.xStreamBufferSendFromISR,"ax",%progbits
 1512              		.align	1
 1513              		.global	xStreamBufferSendFromISR
 1514              		.syntax unified
 1515              		.code	16
 1516              		.thumb_func
 1518              	xStreamBufferSendFromISR:
ARM GAS  /tmp/cctW9zGP.s 			page 56


 1519              	.LVL166:
 1520              	.LFB7:
 614:Middlewares/Third_Party/FreeRTOS/Source/stream_buffer.c **** StreamBuffer_t * const pxStreamBuffer = xStreamBuffer;
 1521              		.loc 1 614 1 is_stmt 1 view -0
 1522              		.cfi_startproc
 1523              		@ args = 0, pretend = 0, frame = 8
 1524              		@ frame_needed = 0, uses_anonymous_args = 0
 614:Middlewares/Third_Party/FreeRTOS/Source/stream_buffer.c **** StreamBuffer_t * const pxStreamBuffer = xStreamBuffer;
 1525              		.loc 1 614 1 is_stmt 0 view .LVU453
 1526 0000 F0B5     		push	{r4, r5, r6, r7, lr}
 1527              	.LCFI20:
 1528              		.cfi_def_cfa_offset 20
 1529              		.cfi_offset 4, -20
 1530              		.cfi_offset 5, -16
 1531              		.cfi_offset 6, -12
 1532              		.cfi_offset 7, -8
 1533              		.cfi_offset 14, -4
 1534 0002 85B0     		sub	sp, sp, #20
 1535              	.LCFI21:
 1536              		.cfi_def_cfa_offset 40
 1537 0004 0400     		movs	r4, r0
 1538 0006 0D00     		movs	r5, r1
 1539 0008 1600     		movs	r6, r2
 1540 000a 0393     		str	r3, [sp, #12]
 615:Middlewares/Third_Party/FreeRTOS/Source/stream_buffer.c **** size_t xReturn, xSpace;
 1541              		.loc 1 615 1 is_stmt 1 view .LVU454
 1542              	.LVL167:
 616:Middlewares/Third_Party/FreeRTOS/Source/stream_buffer.c **** size_t xRequiredSpace = xDataLengthBytes;
 1543              		.loc 1 616 1 view .LVU455
 617:Middlewares/Third_Party/FreeRTOS/Source/stream_buffer.c **** 
 1544              		.loc 1 617 1 view .LVU456
 619:Middlewares/Third_Party/FreeRTOS/Source/stream_buffer.c **** 	configASSERT( pxStreamBuffer );
 1545              		.loc 1 619 2 view .LVU457
 1546 000c 0029     		cmp	r1, #0
 1547 000e 14D0     		beq	.L114
 619:Middlewares/Third_Party/FreeRTOS/Source/stream_buffer.c **** 	configASSERT( pxStreamBuffer );
 1548              		.loc 1 619 26 discriminator 2 view .LVU458
 620:Middlewares/Third_Party/FreeRTOS/Source/stream_buffer.c **** 
 1549              		.loc 1 620 2 discriminator 2 view .LVU459
 1550 0010 0028     		cmp	r0, #0
 1551 0012 14D0     		beq	.L115
 620:Middlewares/Third_Party/FreeRTOS/Source/stream_buffer.c **** 
 1552              		.loc 1 620 32 discriminator 2 view .LVU460
 626:Middlewares/Third_Party/FreeRTOS/Source/stream_buffer.c **** 	{
 1553              		.loc 1 626 2 discriminator 2 view .LVU461
 626:Middlewares/Third_Party/FreeRTOS/Source/stream_buffer.c **** 	{
 1554              		.loc 1 626 22 is_stmt 0 discriminator 2 view .LVU462
 1555 0014 037F     		ldrb	r3, [r0, #28]
 1556              	.LVL168:
 626:Middlewares/Third_Party/FreeRTOS/Source/stream_buffer.c **** 	{
 1557              		.loc 1 626 4 discriminator 2 view .LVU463
 1558 0016 DB07     		lsls	r3, r3, #31
 1559 0018 13D5     		bpl	.L113
 628:Middlewares/Third_Party/FreeRTOS/Source/stream_buffer.c **** 	}
 1560              		.loc 1 628 3 is_stmt 1 view .LVU464
 628:Middlewares/Third_Party/FreeRTOS/Source/stream_buffer.c **** 	}
 1561              		.loc 1 628 18 is_stmt 0 view .LVU465
ARM GAS  /tmp/cctW9zGP.s 			page 57


 1562 001a 171D     		adds	r7, r2, #4
 1563              	.LVL169:
 1564              	.L110:
 632:Middlewares/Third_Party/FreeRTOS/Source/stream_buffer.c **** 	}
 1565              		.loc 1 632 27 is_stmt 1 view .LVU466
 635:Middlewares/Third_Party/FreeRTOS/Source/stream_buffer.c **** 	xReturn = prvWriteMessageToBuffer( pxStreamBuffer, pvTxData, xDataLengthBytes, xSpace, xRequiredSp
 1566              		.loc 1 635 2 view .LVU467
 635:Middlewares/Third_Party/FreeRTOS/Source/stream_buffer.c **** 	xReturn = prvWriteMessageToBuffer( pxStreamBuffer, pvTxData, xDataLengthBytes, xSpace, xRequiredSp
 1567              		.loc 1 635 11 is_stmt 0 view .LVU468
 1568 001c 2000     		movs	r0, r4
 1569              	.LVL170:
 635:Middlewares/Third_Party/FreeRTOS/Source/stream_buffer.c **** 	xReturn = prvWriteMessageToBuffer( pxStreamBuffer, pvTxData, xDataLengthBytes, xSpace, xRequiredSp
 1570              		.loc 1 635 11 view .LVU469
 1571 001e FFF7FEFF 		bl	xStreamBufferSpacesAvailable
 1572              	.LVL171:
 635:Middlewares/Third_Party/FreeRTOS/Source/stream_buffer.c **** 	xReturn = prvWriteMessageToBuffer( pxStreamBuffer, pvTxData, xDataLengthBytes, xSpace, xRequiredSp
 1573              		.loc 1 635 11 view .LVU470
 1574 0022 0300     		movs	r3, r0
 1575              	.LVL172:
 636:Middlewares/Third_Party/FreeRTOS/Source/stream_buffer.c **** 
 1576              		.loc 1 636 2 is_stmt 1 view .LVU471
 636:Middlewares/Third_Party/FreeRTOS/Source/stream_buffer.c **** 
 1577              		.loc 1 636 12 is_stmt 0 view .LVU472
 1578 0024 0097     		str	r7, [sp]
 1579 0026 3200     		movs	r2, r6
 1580 0028 2900     		movs	r1, r5
 1581 002a 2000     		movs	r0, r4
 1582              	.LVL173:
 636:Middlewares/Third_Party/FreeRTOS/Source/stream_buffer.c **** 
 1583              		.loc 1 636 12 view .LVU473
 1584 002c FFF7FEFF 		bl	prvWriteMessageToBuffer
 1585              	.LVL174:
 636:Middlewares/Third_Party/FreeRTOS/Source/stream_buffer.c **** 
 1586              		.loc 1 636 12 view .LVU474
 1587 0030 051E     		subs	r5, r0, #0
 1588              	.LVL175:
 638:Middlewares/Third_Party/FreeRTOS/Source/stream_buffer.c **** 	{
 1589              		.loc 1 638 2 is_stmt 1 view .LVU475
 638:Middlewares/Third_Party/FreeRTOS/Source/stream_buffer.c **** 	{
 1590              		.loc 1 638 4 is_stmt 0 view .LVU476
 1591 0032 08D1     		bne	.L116
 1592              	.LVL176:
 1593              	.L105:
 658:Middlewares/Third_Party/FreeRTOS/Source/stream_buffer.c **** /*-----------------------------------------------------------*/
 1594              		.loc 1 658 1 view .LVU477
 1595 0034 2800     		movs	r0, r5
 1596 0036 05B0     		add	sp, sp, #20
 1597              		@ sp needed
 1598              	.LVL177:
 1599              	.LVL178:
 1600              	.LVL179:
 658:Middlewares/Third_Party/FreeRTOS/Source/stream_buffer.c **** /*-----------------------------------------------------------*/
 1601              		.loc 1 658 1 view .LVU478
 1602 0038 F0BD     		pop	{r4, r5, r6, r7, pc}
 1603              	.LVL180:
 1604              	.L114:
 619:Middlewares/Third_Party/FreeRTOS/Source/stream_buffer.c **** 	configASSERT( pxStreamBuffer );
ARM GAS  /tmp/cctW9zGP.s 			page 58


 1605              		.loc 1 619 2 is_stmt 1 discriminator 1 view .LVU479
 1606              		.syntax divided
 1607              	@ 619 "Middlewares/Third_Party/FreeRTOS/Source/stream_buffer.c" 1
 1608 003a 72B6     		 cpsid i 
 1609              	@ 0 "" 2
 1610              		.thumb
 1611              		.syntax unified
 1612              	.L107:
 619:Middlewares/Third_Party/FreeRTOS/Source/stream_buffer.c **** 	configASSERT( pxStreamBuffer );
 1613              		.loc 1 619 2 discriminator 1 view .LVU480
 619:Middlewares/Third_Party/FreeRTOS/Source/stream_buffer.c **** 	configASSERT( pxStreamBuffer );
 1614              		.loc 1 619 2 discriminator 1 view .LVU481
 619:Middlewares/Third_Party/FreeRTOS/Source/stream_buffer.c **** 	configASSERT( pxStreamBuffer );
 1615              		.loc 1 619 2 discriminator 1 view .LVU482
 1616 003c FEE7     		b	.L107
 1617              	.L115:
 620:Middlewares/Third_Party/FreeRTOS/Source/stream_buffer.c **** 
 1618              		.loc 1 620 2 discriminator 1 view .LVU483
 1619              		.syntax divided
 1620              	@ 620 "Middlewares/Third_Party/FreeRTOS/Source/stream_buffer.c" 1
 1621 003e 72B6     		 cpsid i 
 1622              	@ 0 "" 2
 1623              		.thumb
 1624              		.syntax unified
 1625              	.L109:
 620:Middlewares/Third_Party/FreeRTOS/Source/stream_buffer.c **** 
 1626              		.loc 1 620 2 discriminator 2 view .LVU484
 620:Middlewares/Third_Party/FreeRTOS/Source/stream_buffer.c **** 
 1627              		.loc 1 620 2 discriminator 2 view .LVU485
 620:Middlewares/Third_Party/FreeRTOS/Source/stream_buffer.c **** 
 1628              		.loc 1 620 2 discriminator 2 view .LVU486
 1629 0040 FEE7     		b	.L109
 1630              	.LVL181:
 1631              	.L113:
 617:Middlewares/Third_Party/FreeRTOS/Source/stream_buffer.c **** 
 1632              		.loc 1 617 8 is_stmt 0 view .LVU487
 1633 0042 1700     		movs	r7, r2
 1634 0044 EAE7     		b	.L110
 1635              	.LVL182:
 1636              	.L116:
 641:Middlewares/Third_Party/FreeRTOS/Source/stream_buffer.c **** 		{
 1637              		.loc 1 641 3 is_stmt 1 view .LVU488
 641:Middlewares/Third_Party/FreeRTOS/Source/stream_buffer.c **** 		{
 1638              		.loc 1 641 7 is_stmt 0 view .LVU489
 1639 0046 2000     		movs	r0, r4
 1640              	.LVL183:
 641:Middlewares/Third_Party/FreeRTOS/Source/stream_buffer.c **** 		{
 1641              		.loc 1 641 7 view .LVU490
 1642 0048 FFF7FEFF 		bl	prvBytesInBuffer
 1643              	.LVL184:
 641:Middlewares/Third_Party/FreeRTOS/Source/stream_buffer.c **** 		{
 1644              		.loc 1 641 5 view .LVU491
 1645 004c E368     		ldr	r3, [r4, #12]
 1646 004e 9842     		cmp	r0, r3
 1647 0050 F0D3     		bcc	.L105
 1648              	.LBB3:
 643:Middlewares/Third_Party/FreeRTOS/Source/stream_buffer.c **** 		}
ARM GAS  /tmp/cctW9zGP.s 			page 59


 1649              		.loc 1 643 4 is_stmt 1 view .LVU492
 643:Middlewares/Third_Party/FreeRTOS/Source/stream_buffer.c **** 		}
 1650              		.loc 1 643 4 view .LVU493
 1651 0052 FFF7FEFF 		bl	ulSetInterruptMaskFromISR
 1652              	.LVL185:
 1653 0056 0600     		movs	r6, r0
 1654              	.LVL186:
 643:Middlewares/Third_Party/FreeRTOS/Source/stream_buffer.c **** 		}
 1655              		.loc 1 643 4 view .LVU494
 1656 0058 2369     		ldr	r3, [r4, #16]
 1657 005a 002B     		cmp	r3, #0
 1658 005c 09D0     		beq	.L112
 643:Middlewares/Third_Party/FreeRTOS/Source/stream_buffer.c **** 		}
 1659              		.loc 1 643 4 discriminator 1 view .LVU495
 1660 005e 2069     		ldr	r0, [r4, #16]
 1661              	.LVL187:
 643:Middlewares/Third_Party/FreeRTOS/Source/stream_buffer.c **** 		}
 1662              		.loc 1 643 4 is_stmt 0 discriminator 1 view .LVU496
 1663 0060 039B     		ldr	r3, [sp, #12]
 1664 0062 0093     		str	r3, [sp]
 1665 0064 0023     		movs	r3, #0
 1666 0066 0022     		movs	r2, #0
 1667 0068 0021     		movs	r1, #0
 1668 006a FFF7FEFF 		bl	xTaskGenericNotifyFromISR
 1669              	.LVL188:
 643:Middlewares/Third_Party/FreeRTOS/Source/stream_buffer.c **** 		}
 1670              		.loc 1 643 4 is_stmt 1 discriminator 1 view .LVU497
 1671 006e 0023     		movs	r3, #0
 1672 0070 2361     		str	r3, [r4, #16]
 1673              	.L112:
 643:Middlewares/Third_Party/FreeRTOS/Source/stream_buffer.c **** 		}
 1674              		.loc 1 643 4 discriminator 3 view .LVU498
 1675 0072 3000     		movs	r0, r6
 1676 0074 FFF7FEFF 		bl	vClearInterruptMaskFromISR
 1677              	.LVL189:
 1678              	.LBE3:
 643:Middlewares/Third_Party/FreeRTOS/Source/stream_buffer.c **** 		}
 1679              		.loc 1 643 73 discriminator 3 view .LVU499
 652:Middlewares/Third_Party/FreeRTOS/Source/stream_buffer.c **** 	}
 1680              		.loc 1 652 27 discriminator 3 view .LVU500
 655:Middlewares/Third_Party/FreeRTOS/Source/stream_buffer.c **** 
 1681              		.loc 1 655 60 discriminator 3 view .LVU501
 657:Middlewares/Third_Party/FreeRTOS/Source/stream_buffer.c **** }
 1682              		.loc 1 657 2 discriminator 3 view .LVU502
 657:Middlewares/Third_Party/FreeRTOS/Source/stream_buffer.c **** }
 1683              		.loc 1 657 9 is_stmt 0 discriminator 3 view .LVU503
 1684 0078 DCE7     		b	.L105
 1685              		.cfi_endproc
 1686              	.LFE7:
 1688              		.section	.text.xStreamBufferReceive,"ax",%progbits
 1689              		.align	1
 1690              		.global	xStreamBufferReceive
 1691              		.syntax unified
 1692              		.code	16
 1693              		.thumb_func
 1695              	xStreamBufferReceive:
 1696              	.LVL190:
ARM GAS  /tmp/cctW9zGP.s 			page 60


 1697              	.LFB9:
 717:Middlewares/Third_Party/FreeRTOS/Source/stream_buffer.c **** StreamBuffer_t * const pxStreamBuffer = xStreamBuffer;
 1698              		.loc 1 717 1 is_stmt 1 view -0
 1699              		.cfi_startproc
 1700              		@ args = 0, pretend = 0, frame = 8
 1701              		@ frame_needed = 0, uses_anonymous_args = 0
 717:Middlewares/Third_Party/FreeRTOS/Source/stream_buffer.c **** StreamBuffer_t * const pxStreamBuffer = xStreamBuffer;
 1702              		.loc 1 717 1 is_stmt 0 view .LVU505
 1703 0000 F0B5     		push	{r4, r5, r6, r7, lr}
 1704              	.LCFI22:
 1705              		.cfi_def_cfa_offset 20
 1706              		.cfi_offset 4, -20
 1707              		.cfi_offset 5, -16
 1708              		.cfi_offset 6, -12
 1709              		.cfi_offset 7, -8
 1710              		.cfi_offset 14, -4
 1711 0002 85B0     		sub	sp, sp, #20
 1712              	.LCFI23:
 1713              		.cfi_def_cfa_offset 40
 1714 0004 0400     		movs	r4, r0
 1715 0006 0D1E     		subs	r5, r1, #0
 1716 0008 0392     		str	r2, [sp, #12]
 1717 000a 0293     		str	r3, [sp, #8]
 718:Middlewares/Third_Party/FreeRTOS/Source/stream_buffer.c **** size_t xReceivedLength = 0, xBytesAvailable, xBytesToStoreMessageLength;
 1718              		.loc 1 718 1 is_stmt 1 view .LVU506
 1719              	.LVL191:
 719:Middlewares/Third_Party/FreeRTOS/Source/stream_buffer.c **** 
 1720              		.loc 1 719 1 view .LVU507
 721:Middlewares/Third_Party/FreeRTOS/Source/stream_buffer.c **** 	configASSERT( pxStreamBuffer );
 1721              		.loc 1 721 2 view .LVU508
 1722 000c 18D0     		beq	.L132
 721:Middlewares/Third_Party/FreeRTOS/Source/stream_buffer.c **** 	configASSERT( pxStreamBuffer );
 1723              		.loc 1 721 26 discriminator 2 view .LVU509
 722:Middlewares/Third_Party/FreeRTOS/Source/stream_buffer.c **** 
 1724              		.loc 1 722 2 discriminator 2 view .LVU510
 1725 000e 0028     		cmp	r0, #0
 1726 0010 18D0     		beq	.L133
 722:Middlewares/Third_Party/FreeRTOS/Source/stream_buffer.c **** 
 1727              		.loc 1 722 32 discriminator 2 view .LVU511
 729:Middlewares/Third_Party/FreeRTOS/Source/stream_buffer.c **** 	{
 1728              		.loc 1 729 2 discriminator 2 view .LVU512
 729:Middlewares/Third_Party/FreeRTOS/Source/stream_buffer.c **** 	{
 1729              		.loc 1 729 22 is_stmt 0 discriminator 2 view .LVU513
 1730 0012 037F     		ldrb	r3, [r0, #28]
 1731              	.LVL192:
 729:Middlewares/Third_Party/FreeRTOS/Source/stream_buffer.c **** 	{
 1732              		.loc 1 729 4 discriminator 2 view .LVU514
 1733 0014 DB07     		lsls	r3, r3, #31
 1734 0016 17D5     		bpl	.L130
 731:Middlewares/Third_Party/FreeRTOS/Source/stream_buffer.c **** 	}
 1735              		.loc 1 731 30 view .LVU515
 1736 0018 0426     		movs	r6, #4
 1737              	.L122:
 1738              	.LVL193:
 738:Middlewares/Third_Party/FreeRTOS/Source/stream_buffer.c **** 	{
 1739              		.loc 1 738 2 is_stmt 1 view .LVU516
 738:Middlewares/Third_Party/FreeRTOS/Source/stream_buffer.c **** 	{
ARM GAS  /tmp/cctW9zGP.s 			page 61


 1740              		.loc 1 738 4 is_stmt 0 view .LVU517
 1741 001a 029B     		ldr	r3, [sp, #8]
 1742 001c 002B     		cmp	r3, #0
 1743 001e 29D0     		beq	.L123
 742:Middlewares/Third_Party/FreeRTOS/Source/stream_buffer.c **** 		{
 1744              		.loc 1 742 3 is_stmt 1 view .LVU518
 1745 0020 FFF7FEFF 		bl	vPortEnterCritical
 1746              	.LVL194:
 744:Middlewares/Third_Party/FreeRTOS/Source/stream_buffer.c **** 
 1747              		.loc 1 744 4 view .LVU519
 744:Middlewares/Third_Party/FreeRTOS/Source/stream_buffer.c **** 
 1748              		.loc 1 744 22 is_stmt 0 view .LVU520
 1749 0024 2000     		movs	r0, r4
 1750 0026 FFF7FEFF 		bl	prvBytesInBuffer
 1751              	.LVL195:
 1752 002a 0700     		movs	r7, r0
 1753              	.LVL196:
 751:Middlewares/Third_Party/FreeRTOS/Source/stream_buffer.c **** 			{
 1754              		.loc 1 751 4 is_stmt 1 view .LVU521
 751:Middlewares/Third_Party/FreeRTOS/Source/stream_buffer.c **** 			{
 1755              		.loc 1 751 6 is_stmt 0 view .LVU522
 1756 002c 8642     		cmp	r6, r0
 1757 002e 10D3     		bcc	.L124
 754:Middlewares/Third_Party/FreeRTOS/Source/stream_buffer.c **** 
 1758              		.loc 1 754 5 is_stmt 1 view .LVU523
 754:Middlewares/Third_Party/FreeRTOS/Source/stream_buffer.c **** 
 1759              		.loc 1 754 14 is_stmt 0 view .LVU524
 1760 0030 0020     		movs	r0, #0
 1761              	.LVL197:
 754:Middlewares/Third_Party/FreeRTOS/Source/stream_buffer.c **** 
 1762              		.loc 1 754 14 view .LVU525
 1763 0032 FFF7FEFF 		bl	xTaskNotifyStateClear
 1764              	.LVL198:
 757:Middlewares/Third_Party/FreeRTOS/Source/stream_buffer.c **** 				pxStreamBuffer->xTaskWaitingToReceive = xTaskGetCurrentTaskHandle();
 1765              		.loc 1 757 5 is_stmt 1 view .LVU526
 1766 0036 2369     		ldr	r3, [r4, #16]
 1767 0038 002B     		cmp	r3, #0
 1768 003a 07D0     		beq	.L125
 757:Middlewares/Third_Party/FreeRTOS/Source/stream_buffer.c **** 				pxStreamBuffer->xTaskWaitingToReceive = xTaskGetCurrentTaskHandle();
 1769              		.loc 1 757 5 discriminator 1 view .LVU527
 1770              		.syntax divided
 1771              	@ 757 "Middlewares/Third_Party/FreeRTOS/Source/stream_buffer.c" 1
 1772 003c 72B6     		 cpsid i 
 1773              	@ 0 "" 2
 1774              		.thumb
 1775              		.syntax unified
 1776              	.L126:
 757:Middlewares/Third_Party/FreeRTOS/Source/stream_buffer.c **** 				pxStreamBuffer->xTaskWaitingToReceive = xTaskGetCurrentTaskHandle();
 1777              		.loc 1 757 5 discriminator 3 view .LVU528
 757:Middlewares/Third_Party/FreeRTOS/Source/stream_buffer.c **** 				pxStreamBuffer->xTaskWaitingToReceive = xTaskGetCurrentTaskHandle();
 1778              		.loc 1 757 5 discriminator 3 view .LVU529
 757:Middlewares/Third_Party/FreeRTOS/Source/stream_buffer.c **** 				pxStreamBuffer->xTaskWaitingToReceive = xTaskGetCurrentTaskHandle();
 1779              		.loc 1 757 5 discriminator 3 view .LVU530
 1780 003e FEE7     		b	.L126
 1781              	.LVL199:
 1782              	.L132:
 721:Middlewares/Third_Party/FreeRTOS/Source/stream_buffer.c **** 	configASSERT( pxStreamBuffer );
ARM GAS  /tmp/cctW9zGP.s 			page 62


 1783              		.loc 1 721 2 discriminator 1 view .LVU531
 1784              		.syntax divided
 1785              	@ 721 "Middlewares/Third_Party/FreeRTOS/Source/stream_buffer.c" 1
 1786 0040 72B6     		 cpsid i 
 1787              	@ 0 "" 2
 1788              		.thumb
 1789              		.syntax unified
 1790              	.L119:
 721:Middlewares/Third_Party/FreeRTOS/Source/stream_buffer.c **** 	configASSERT( pxStreamBuffer );
 1791              		.loc 1 721 2 discriminator 1 view .LVU532
 721:Middlewares/Third_Party/FreeRTOS/Source/stream_buffer.c **** 	configASSERT( pxStreamBuffer );
 1792              		.loc 1 721 2 discriminator 1 view .LVU533
 721:Middlewares/Third_Party/FreeRTOS/Source/stream_buffer.c **** 	configASSERT( pxStreamBuffer );
 1793              		.loc 1 721 2 discriminator 1 view .LVU534
 1794 0042 FEE7     		b	.L119
 1795              	.L133:
 722:Middlewares/Third_Party/FreeRTOS/Source/stream_buffer.c **** 
 1796              		.loc 1 722 2 discriminator 1 view .LVU535
 1797              		.syntax divided
 1798              	@ 722 "Middlewares/Third_Party/FreeRTOS/Source/stream_buffer.c" 1
 1799 0044 72B6     		 cpsid i 
 1800              	@ 0 "" 2
 1801              		.thumb
 1802              		.syntax unified
 1803              	.L121:
 722:Middlewares/Third_Party/FreeRTOS/Source/stream_buffer.c **** 
 1804              		.loc 1 722 2 discriminator 2 view .LVU536
 722:Middlewares/Third_Party/FreeRTOS/Source/stream_buffer.c **** 
 1805              		.loc 1 722 2 discriminator 2 view .LVU537
 722:Middlewares/Third_Party/FreeRTOS/Source/stream_buffer.c **** 
 1806              		.loc 1 722 2 discriminator 2 view .LVU538
 1807 0046 FEE7     		b	.L121
 1808              	.LVL200:
 1809              	.L130:
 735:Middlewares/Third_Party/FreeRTOS/Source/stream_buffer.c **** 	}
 1810              		.loc 1 735 30 is_stmt 0 view .LVU539
 1811 0048 0026     		movs	r6, #0
 1812 004a E6E7     		b	.L122
 1813              	.LVL201:
 1814              	.L125:
 757:Middlewares/Third_Party/FreeRTOS/Source/stream_buffer.c **** 				pxStreamBuffer->xTaskWaitingToReceive = xTaskGetCurrentTaskHandle();
 1815              		.loc 1 757 66 is_stmt 1 discriminator 2 view .LVU540
 758:Middlewares/Third_Party/FreeRTOS/Source/stream_buffer.c **** 			}
 1816              		.loc 1 758 5 discriminator 2 view .LVU541
 758:Middlewares/Third_Party/FreeRTOS/Source/stream_buffer.c **** 			}
 1817              		.loc 1 758 45 is_stmt 0 discriminator 2 view .LVU542
 1818 004c FFF7FEFF 		bl	xTaskGetCurrentTaskHandle
 1819              	.LVL202:
 758:Middlewares/Third_Party/FreeRTOS/Source/stream_buffer.c **** 			}
 1820              		.loc 1 758 43 discriminator 2 view .LVU543
 1821 0050 2061     		str	r0, [r4, #16]
 1822              	.L124:
 762:Middlewares/Third_Party/FreeRTOS/Source/stream_buffer.c **** 			}
 1823              		.loc 1 762 29 is_stmt 1 view .LVU544
 765:Middlewares/Third_Party/FreeRTOS/Source/stream_buffer.c **** 
 1824              		.loc 1 765 3 view .LVU545
 1825 0052 FFF7FEFF 		bl	vPortExitCritical
ARM GAS  /tmp/cctW9zGP.s 			page 63


 1826              	.LVL203:
 767:Middlewares/Third_Party/FreeRTOS/Source/stream_buffer.c **** 		{
 1827              		.loc 1 767 3 view .LVU546
 767:Middlewares/Third_Party/FreeRTOS/Source/stream_buffer.c **** 		{
 1828              		.loc 1 767 5 is_stmt 0 view .LVU547
 1829 0056 BE42     		cmp	r6, r7
 1830 0058 10D3     		bcc	.L127
 770:Middlewares/Third_Party/FreeRTOS/Source/stream_buffer.c **** 			( void ) xTaskNotifyWait( ( uint32_t ) 0, ( uint32_t ) 0, NULL, xTicksToWait );
 1831              		.loc 1 770 59 is_stmt 1 view .LVU548
 771:Middlewares/Third_Party/FreeRTOS/Source/stream_buffer.c **** 			pxStreamBuffer->xTaskWaitingToReceive = NULL;
 1832              		.loc 1 771 4 view .LVU549
 771:Middlewares/Third_Party/FreeRTOS/Source/stream_buffer.c **** 			pxStreamBuffer->xTaskWaitingToReceive = NULL;
 1833              		.loc 1 771 13 is_stmt 0 view .LVU550
 1834 005a 029B     		ldr	r3, [sp, #8]
 1835 005c 0022     		movs	r2, #0
 1836 005e 0021     		movs	r1, #0
 1837 0060 0020     		movs	r0, #0
 1838 0062 FFF7FEFF 		bl	xTaskNotifyWait
 1839              	.LVL204:
 772:Middlewares/Third_Party/FreeRTOS/Source/stream_buffer.c **** 
 1840              		.loc 1 772 4 is_stmt 1 view .LVU551
 772:Middlewares/Third_Party/FreeRTOS/Source/stream_buffer.c **** 
 1841              		.loc 1 772 42 is_stmt 0 view .LVU552
 1842 0066 0023     		movs	r3, #0
 1843 0068 2361     		str	r3, [r4, #16]
 775:Middlewares/Third_Party/FreeRTOS/Source/stream_buffer.c **** 		}
 1844              		.loc 1 775 4 is_stmt 1 view .LVU553
 775:Middlewares/Third_Party/FreeRTOS/Source/stream_buffer.c **** 		}
 1845              		.loc 1 775 22 is_stmt 0 view .LVU554
 1846 006a 2000     		movs	r0, r4
 1847 006c FFF7FEFF 		bl	prvBytesInBuffer
 1848              	.LVL205:
 1849 0070 0700     		movs	r7, r0
 1850              	.LVL206:
 775:Middlewares/Third_Party/FreeRTOS/Source/stream_buffer.c **** 		}
 1851              		.loc 1 775 22 view .LVU555
 1852 0072 03E0     		b	.L127
 1853              	.LVL207:
 1854              	.L123:
 784:Middlewares/Third_Party/FreeRTOS/Source/stream_buffer.c **** 	}
 1855              		.loc 1 784 3 is_stmt 1 view .LVU556
 784:Middlewares/Third_Party/FreeRTOS/Source/stream_buffer.c **** 	}
 1856              		.loc 1 784 21 is_stmt 0 view .LVU557
 1857 0074 2000     		movs	r0, r4
 1858              	.LVL208:
 784:Middlewares/Third_Party/FreeRTOS/Source/stream_buffer.c **** 	}
 1859              		.loc 1 784 21 view .LVU558
 1860 0076 FFF7FEFF 		bl	prvBytesInBuffer
 1861              	.LVL209:
 784:Middlewares/Third_Party/FreeRTOS/Source/stream_buffer.c **** 	}
 1862              		.loc 1 784 21 view .LVU559
 1863 007a 0700     		movs	r7, r0
 1864              	.LVL210:
 1865              	.L127:
 792:Middlewares/Third_Party/FreeRTOS/Source/stream_buffer.c **** 	{
 1866              		.loc 1 792 2 is_stmt 1 view .LVU560
 792:Middlewares/Third_Party/FreeRTOS/Source/stream_buffer.c **** 	{
ARM GAS  /tmp/cctW9zGP.s 			page 64


 1867              		.loc 1 792 4 is_stmt 0 view .LVU561
 1868 007c B742     		cmp	r7, r6
 1869 007e 03D8     		bhi	.L134
 719:Middlewares/Third_Party/FreeRTOS/Source/stream_buffer.c **** 
 1870              		.loc 1 719 8 view .LVU562
 1871 0080 0025     		movs	r5, #0
 1872              	.LVL211:
 809:Middlewares/Third_Party/FreeRTOS/Source/stream_buffer.c **** 		mtCOVERAGE_TEST_MARKER();
 1873              		.loc 1 809 53 is_stmt 1 view .LVU563
 810:Middlewares/Third_Party/FreeRTOS/Source/stream_buffer.c **** 	}
 1874              		.loc 1 810 27 view .LVU564
 813:Middlewares/Third_Party/FreeRTOS/Source/stream_buffer.c **** }
 1875              		.loc 1 813 2 view .LVU565
 1876              	.L117:
 814:Middlewares/Third_Party/FreeRTOS/Source/stream_buffer.c **** /*-----------------------------------------------------------*/
 1877              		.loc 1 814 1 is_stmt 0 view .LVU566
 1878 0082 2800     		movs	r0, r5
 1879 0084 05B0     		add	sp, sp, #20
 1880              		@ sp needed
 1881              	.LVL212:
 1882              	.LVL213:
 1883              	.LVL214:
 814:Middlewares/Third_Party/FreeRTOS/Source/stream_buffer.c **** /*-----------------------------------------------------------*/
 1884              		.loc 1 814 1 view .LVU567
 1885 0086 F0BD     		pop	{r4, r5, r6, r7, pc}
 1886              	.LVL215:
 1887              	.L134:
 794:Middlewares/Third_Party/FreeRTOS/Source/stream_buffer.c **** 
 1888              		.loc 1 794 3 is_stmt 1 view .LVU568
 794:Middlewares/Third_Party/FreeRTOS/Source/stream_buffer.c **** 
 1889              		.loc 1 794 21 is_stmt 0 view .LVU569
 1890 0088 0096     		str	r6, [sp]
 1891 008a 3B00     		movs	r3, r7
 1892 008c 039A     		ldr	r2, [sp, #12]
 1893 008e 2900     		movs	r1, r5
 1894 0090 2000     		movs	r0, r4
 1895 0092 FFF7FEFF 		bl	prvReadMessageFromBuffer
 1896              	.LVL216:
 1897 0096 051E     		subs	r5, r0, #0
 1898              	.LVL217:
 797:Middlewares/Third_Party/FreeRTOS/Source/stream_buffer.c **** 		{
 1899              		.loc 1 797 3 is_stmt 1 view .LVU570
 797:Middlewares/Third_Party/FreeRTOS/Source/stream_buffer.c **** 		{
 1900              		.loc 1 797 5 is_stmt 0 view .LVU571
 1901 0098 F3D0     		beq	.L117
 799:Middlewares/Third_Party/FreeRTOS/Source/stream_buffer.c **** 			sbRECEIVE_COMPLETED( pxStreamBuffer );
 1902              		.loc 1 799 64 is_stmt 1 view .LVU572
 800:Middlewares/Third_Party/FreeRTOS/Source/stream_buffer.c **** 		}
 1903              		.loc 1 800 4 view .LVU573
 1904 009a FFF7FEFF 		bl	vTaskSuspendAll
 1905              	.LVL218:
 800:Middlewares/Third_Party/FreeRTOS/Source/stream_buffer.c **** 		}
 1906              		.loc 1 800 4 view .LVU574
 1907 009e 6369     		ldr	r3, [r4, #20]
 1908 00a0 002B     		cmp	r3, #0
 1909 00a2 07D0     		beq	.L129
 800:Middlewares/Third_Party/FreeRTOS/Source/stream_buffer.c **** 		}
ARM GAS  /tmp/cctW9zGP.s 			page 65


 1910              		.loc 1 800 4 discriminator 1 view .LVU575
 1911 00a4 6069     		ldr	r0, [r4, #20]
 1912 00a6 0023     		movs	r3, #0
 1913 00a8 0022     		movs	r2, #0
 1914 00aa 0021     		movs	r1, #0
 1915 00ac FFF7FEFF 		bl	xTaskGenericNotify
 1916              	.LVL219:
 800:Middlewares/Third_Party/FreeRTOS/Source/stream_buffer.c **** 		}
 1917              		.loc 1 800 4 discriminator 1 view .LVU576
 1918 00b0 0023     		movs	r3, #0
 1919 00b2 6361     		str	r3, [r4, #20]
 1920              	.L129:
 800:Middlewares/Third_Party/FreeRTOS/Source/stream_buffer.c **** 		}
 1921              		.loc 1 800 4 discriminator 3 view .LVU577
 1922 00b4 FFF7FEFF 		bl	xTaskResumeAll
 1923              	.LVL220:
 800:Middlewares/Third_Party/FreeRTOS/Source/stream_buffer.c **** 		}
 1924              		.loc 1 800 41 discriminator 3 view .LVU578
 1925 00b8 E3E7     		b	.L117
 1926              		.cfi_endproc
 1927              	.LFE9:
 1929              		.section	.text.xStreamBufferNextMessageLengthBytes,"ax",%progbits
 1930              		.align	1
 1931              		.global	xStreamBufferNextMessageLengthBytes
 1932              		.syntax unified
 1933              		.code	16
 1934              		.thumb_func
 1936              	xStreamBufferNextMessageLengthBytes:
 1937              	.LVL221:
 1938              	.LFB10:
 818:Middlewares/Third_Party/FreeRTOS/Source/stream_buffer.c **** StreamBuffer_t * const pxStreamBuffer = xStreamBuffer;
 1939              		.loc 1 818 1 view -0
 1940              		.cfi_startproc
 1941              		@ args = 0, pretend = 0, frame = 8
 1942              		@ frame_needed = 0, uses_anonymous_args = 0
 818:Middlewares/Third_Party/FreeRTOS/Source/stream_buffer.c **** StreamBuffer_t * const pxStreamBuffer = xStreamBuffer;
 1943              		.loc 1 818 1 is_stmt 0 view .LVU580
 1944 0000 30B5     		push	{r4, r5, lr}
 1945              	.LCFI24:
 1946              		.cfi_def_cfa_offset 12
 1947              		.cfi_offset 4, -12
 1948              		.cfi_offset 5, -8
 1949              		.cfi_offset 14, -4
 1950 0002 83B0     		sub	sp, sp, #12
 1951              	.LCFI25:
 1952              		.cfi_def_cfa_offset 24
 1953 0004 041E     		subs	r4, r0, #0
 819:Middlewares/Third_Party/FreeRTOS/Source/stream_buffer.c **** size_t xReturn, xBytesAvailable, xOriginalTail;
 1954              		.loc 1 819 1 is_stmt 1 view .LVU581
 1955              	.LVL222:
 820:Middlewares/Third_Party/FreeRTOS/Source/stream_buffer.c **** configMESSAGE_BUFFER_LENGTH_TYPE xTempReturn;
 1956              		.loc 1 820 1 view .LVU582
 821:Middlewares/Third_Party/FreeRTOS/Source/stream_buffer.c **** 
 1957              		.loc 1 821 1 view .LVU583
 823:Middlewares/Third_Party/FreeRTOS/Source/stream_buffer.c **** 
 1958              		.loc 1 823 2 view .LVU584
 1959 0006 05D0     		beq	.L142
ARM GAS  /tmp/cctW9zGP.s 			page 66


 823:Middlewares/Third_Party/FreeRTOS/Source/stream_buffer.c **** 
 1960              		.loc 1 823 32 discriminator 2 view .LVU585
 826:Middlewares/Third_Party/FreeRTOS/Source/stream_buffer.c **** 	{
 1961              		.loc 1 826 2 discriminator 2 view .LVU586
 826:Middlewares/Third_Party/FreeRTOS/Source/stream_buffer.c **** 	{
 1962              		.loc 1 826 22 is_stmt 0 discriminator 2 view .LVU587
 1963 0008 037F     		ldrb	r3, [r0, #28]
 826:Middlewares/Third_Party/FreeRTOS/Source/stream_buffer.c **** 	{
 1964              		.loc 1 826 4 discriminator 2 view .LVU588
 1965 000a DB07     		lsls	r3, r3, #31
 1966 000c 04D4     		bmi	.L143
 854:Middlewares/Third_Party/FreeRTOS/Source/stream_buffer.c **** 	}
 1967              		.loc 1 854 11 view .LVU589
 1968 000e 0020     		movs	r0, #0
 1969              	.LVL223:
 857:Middlewares/Third_Party/FreeRTOS/Source/stream_buffer.c **** }
 1970              		.loc 1 857 2 is_stmt 1 view .LVU590
 1971              	.L135:
 858:Middlewares/Third_Party/FreeRTOS/Source/stream_buffer.c **** /*-----------------------------------------------------------*/
 1972              		.loc 1 858 1 is_stmt 0 view .LVU591
 1973 0010 03B0     		add	sp, sp, #12
 1974              		@ sp needed
 1975              	.LVL224:
 858:Middlewares/Third_Party/FreeRTOS/Source/stream_buffer.c **** /*-----------------------------------------------------------*/
 1976              		.loc 1 858 1 view .LVU592
 1977 0012 30BD     		pop	{r4, r5, pc}
 1978              	.LVL225:
 1979              	.L142:
 823:Middlewares/Third_Party/FreeRTOS/Source/stream_buffer.c **** 
 1980              		.loc 1 823 2 is_stmt 1 discriminator 1 view .LVU593
 1981              		.syntax divided
 1982              	@ 823 "Middlewares/Third_Party/FreeRTOS/Source/stream_buffer.c" 1
 1983 0014 72B6     		 cpsid i 
 1984              	@ 0 "" 2
 1985              		.thumb
 1986              		.syntax unified
 1987              	.L137:
 823:Middlewares/Third_Party/FreeRTOS/Source/stream_buffer.c **** 
 1988              		.loc 1 823 2 discriminator 1 view .LVU594
 823:Middlewares/Third_Party/FreeRTOS/Source/stream_buffer.c **** 
 1989              		.loc 1 823 2 discriminator 1 view .LVU595
 823:Middlewares/Third_Party/FreeRTOS/Source/stream_buffer.c **** 
 1990              		.loc 1 823 2 discriminator 1 view .LVU596
 1991 0016 FEE7     		b	.L137
 1992              	.L143:
 828:Middlewares/Third_Party/FreeRTOS/Source/stream_buffer.c **** 		if( xBytesAvailable > sbBYTES_TO_STORE_MESSAGE_LENGTH )
 1993              		.loc 1 828 3 view .LVU597
 828:Middlewares/Third_Party/FreeRTOS/Source/stream_buffer.c **** 		if( xBytesAvailable > sbBYTES_TO_STORE_MESSAGE_LENGTH )
 1994              		.loc 1 828 21 is_stmt 0 view .LVU598
 1995 0018 FFF7FEFF 		bl	prvBytesInBuffer
 1996              	.LVL226:
 829:Middlewares/Third_Party/FreeRTOS/Source/stream_buffer.c **** 		{
 1997              		.loc 1 829 3 is_stmt 1 view .LVU599
 829:Middlewares/Third_Party/FreeRTOS/Source/stream_buffer.c **** 		{
 1998              		.loc 1 829 5 is_stmt 0 view .LVU600
 1999 001c 0428     		cmp	r0, #4
 2000 001e 03D8     		bhi	.L144
ARM GAS  /tmp/cctW9zGP.s 			page 67


 848:Middlewares/Third_Party/FreeRTOS/Source/stream_buffer.c **** 			xReturn = 0;
 2001              		.loc 1 848 4 is_stmt 1 view .LVU601
 2002 0020 0028     		cmp	r0, #0
 2003 0022 F5D0     		beq	.L135
 848:Middlewares/Third_Party/FreeRTOS/Source/stream_buffer.c **** 			xReturn = 0;
 2004              		.loc 1 848 4 discriminator 1 view .LVU602
 2005              		.syntax divided
 2006              	@ 848 "Middlewares/Third_Party/FreeRTOS/Source/stream_buffer.c" 1
 2007 0024 72B6     		 cpsid i 
 2008              	@ 0 "" 2
 2009              		.thumb
 2010              		.syntax unified
 2011              	.L140:
 848:Middlewares/Third_Party/FreeRTOS/Source/stream_buffer.c **** 			xReturn = 0;
 2012              		.loc 1 848 4 discriminator 2 view .LVU603
 848:Middlewares/Third_Party/FreeRTOS/Source/stream_buffer.c **** 			xReturn = 0;
 2013              		.loc 1 848 4 discriminator 2 view .LVU604
 848:Middlewares/Third_Party/FreeRTOS/Source/stream_buffer.c **** 			xReturn = 0;
 2014              		.loc 1 848 4 discriminator 2 view .LVU605
 2015 0026 FEE7     		b	.L140
 2016              	.L144:
 837:Middlewares/Third_Party/FreeRTOS/Source/stream_buffer.c **** 			( void ) prvReadBytesFromBuffer( pxStreamBuffer, ( uint8_t * ) &xTempReturn, sbBYTES_TO_STORE_ME
 2017              		.loc 1 837 4 view .LVU606
 837:Middlewares/Third_Party/FreeRTOS/Source/stream_buffer.c **** 			( void ) prvReadBytesFromBuffer( pxStreamBuffer, ( uint8_t * ) &xTempReturn, sbBYTES_TO_STORE_ME
 2018              		.loc 1 837 18 is_stmt 0 view .LVU607
 2019 0028 2568     		ldr	r5, [r4]
 2020              	.LVL227:
 838:Middlewares/Third_Party/FreeRTOS/Source/stream_buffer.c **** 			xReturn = ( size_t ) xTempReturn;
 2021              		.loc 1 838 4 is_stmt 1 view .LVU608
 838:Middlewares/Third_Party/FreeRTOS/Source/stream_buffer.c **** 			xReturn = ( size_t ) xTempReturn;
 2022              		.loc 1 838 13 is_stmt 0 view .LVU609
 2023 002a 0300     		movs	r3, r0
 2024 002c 0422     		movs	r2, #4
 2025 002e 01A9     		add	r1, sp, #4
 2026 0030 2000     		movs	r0, r4
 2027              	.LVL228:
 838:Middlewares/Third_Party/FreeRTOS/Source/stream_buffer.c **** 			xReturn = ( size_t ) xTempReturn;
 2028              		.loc 1 838 13 view .LVU610
 2029 0032 FFF7FEFF 		bl	prvReadBytesFromBuffer
 2030              	.LVL229:
 839:Middlewares/Third_Party/FreeRTOS/Source/stream_buffer.c **** 			pxStreamBuffer->xTail = xOriginalTail;
 2031              		.loc 1 839 4 is_stmt 1 view .LVU611
 839:Middlewares/Third_Party/FreeRTOS/Source/stream_buffer.c **** 			pxStreamBuffer->xTail = xOriginalTail;
 2032              		.loc 1 839 12 is_stmt 0 view .LVU612
 2033 0036 0198     		ldr	r0, [sp, #4]
 2034              	.LVL230:
 840:Middlewares/Third_Party/FreeRTOS/Source/stream_buffer.c **** 		}
 2035              		.loc 1 840 4 is_stmt 1 view .LVU613
 840:Middlewares/Third_Party/FreeRTOS/Source/stream_buffer.c **** 		}
 2036              		.loc 1 840 26 is_stmt 0 view .LVU614
 2037 0038 2560     		str	r5, [r4]
 2038 003a E9E7     		b	.L135
 2039              		.cfi_endproc
 2040              	.LFE10:
 2042              		.section	.text.xStreamBufferReceiveFromISR,"ax",%progbits
 2043              		.align	1
 2044              		.global	xStreamBufferReceiveFromISR
ARM GAS  /tmp/cctW9zGP.s 			page 68


 2045              		.syntax unified
 2046              		.code	16
 2047              		.thumb_func
 2049              	xStreamBufferReceiveFromISR:
 2050              	.LVL231:
 2051              	.LFB11:
 865:Middlewares/Third_Party/FreeRTOS/Source/stream_buffer.c **** StreamBuffer_t * const pxStreamBuffer = xStreamBuffer;
 2052              		.loc 1 865 1 is_stmt 1 view -0
 2053              		.cfi_startproc
 2054              		@ args = 0, pretend = 0, frame = 8
 2055              		@ frame_needed = 0, uses_anonymous_args = 0
 865:Middlewares/Third_Party/FreeRTOS/Source/stream_buffer.c **** StreamBuffer_t * const pxStreamBuffer = xStreamBuffer;
 2056              		.loc 1 865 1 is_stmt 0 view .LVU616
 2057 0000 F0B5     		push	{r4, r5, r6, r7, lr}
 2058              	.LCFI26:
 2059              		.cfi_def_cfa_offset 20
 2060              		.cfi_offset 4, -20
 2061              		.cfi_offset 5, -16
 2062              		.cfi_offset 6, -12
 2063              		.cfi_offset 7, -8
 2064              		.cfi_offset 14, -4
 2065 0002 85B0     		sub	sp, sp, #20
 2066              	.LCFI27:
 2067              		.cfi_def_cfa_offset 40
 2068 0004 0400     		movs	r4, r0
 2069 0006 0D00     		movs	r5, r1
 2070 0008 1600     		movs	r6, r2
 2071 000a 0393     		str	r3, [sp, #12]
 866:Middlewares/Third_Party/FreeRTOS/Source/stream_buffer.c **** size_t xReceivedLength = 0, xBytesAvailable, xBytesToStoreMessageLength;
 2072              		.loc 1 866 1 is_stmt 1 view .LVU617
 2073              	.LVL232:
 867:Middlewares/Third_Party/FreeRTOS/Source/stream_buffer.c **** 
 2074              		.loc 1 867 1 view .LVU618
 869:Middlewares/Third_Party/FreeRTOS/Source/stream_buffer.c **** 	configASSERT( pxStreamBuffer );
 2075              		.loc 1 869 2 view .LVU619
 2076 000c 0029     		cmp	r1, #0
 2077 000e 0FD0     		beq	.L155
 869:Middlewares/Third_Party/FreeRTOS/Source/stream_buffer.c **** 	configASSERT( pxStreamBuffer );
 2078              		.loc 1 869 26 discriminator 2 view .LVU620
 870:Middlewares/Third_Party/FreeRTOS/Source/stream_buffer.c **** 
 2079              		.loc 1 870 2 discriminator 2 view .LVU621
 2080 0010 0028     		cmp	r0, #0
 2081 0012 0FD0     		beq	.L156
 870:Middlewares/Third_Party/FreeRTOS/Source/stream_buffer.c **** 
 2082              		.loc 1 870 32 discriminator 2 view .LVU622
 877:Middlewares/Third_Party/FreeRTOS/Source/stream_buffer.c **** 	{
 2083              		.loc 1 877 2 discriminator 2 view .LVU623
 877:Middlewares/Third_Party/FreeRTOS/Source/stream_buffer.c **** 	{
 2084              		.loc 1 877 22 is_stmt 0 discriminator 2 view .LVU624
 2085 0014 037F     		ldrb	r3, [r0, #28]
 2086              	.LVL233:
 877:Middlewares/Third_Party/FreeRTOS/Source/stream_buffer.c **** 	{
 2087              		.loc 1 877 4 discriminator 2 view .LVU625
 2088 0016 DB07     		lsls	r3, r3, #31
 2089 0018 0ED5     		bpl	.L153
 879:Middlewares/Third_Party/FreeRTOS/Source/stream_buffer.c **** 	}
 2090              		.loc 1 879 30 view .LVU626
ARM GAS  /tmp/cctW9zGP.s 			page 69


 2091 001a 0427     		movs	r7, #4
 2092              	.L150:
 2093              	.LVL234:
 886:Middlewares/Third_Party/FreeRTOS/Source/stream_buffer.c **** 
 2094              		.loc 1 886 2 is_stmt 1 view .LVU627
 886:Middlewares/Third_Party/FreeRTOS/Source/stream_buffer.c **** 
 2095              		.loc 1 886 20 is_stmt 0 view .LVU628
 2096 001c 2000     		movs	r0, r4
 2097              	.LVL235:
 886:Middlewares/Third_Party/FreeRTOS/Source/stream_buffer.c **** 
 2098              		.loc 1 886 20 view .LVU629
 2099 001e FFF7FEFF 		bl	prvBytesInBuffer
 2100              	.LVL236:
 886:Middlewares/Third_Party/FreeRTOS/Source/stream_buffer.c **** 
 2101              		.loc 1 886 20 view .LVU630
 2102 0022 0300     		movs	r3, r0
 2103              	.LVL237:
 893:Middlewares/Third_Party/FreeRTOS/Source/stream_buffer.c **** 	{
 2104              		.loc 1 893 2 is_stmt 1 view .LVU631
 893:Middlewares/Third_Party/FreeRTOS/Source/stream_buffer.c **** 	{
 2105              		.loc 1 893 4 is_stmt 0 view .LVU632
 2106 0024 8742     		cmp	r7, r0
 2107 0026 09D3     		bcc	.L157
 867:Middlewares/Third_Party/FreeRTOS/Source/stream_buffer.c **** 
 2108              		.loc 1 867 8 view .LVU633
 2109 0028 0025     		movs	r5, #0
 2110              	.LVL238:
 909:Middlewares/Third_Party/FreeRTOS/Source/stream_buffer.c **** 	}
 2111              		.loc 1 909 27 is_stmt 1 view .LVU634
 912:Middlewares/Third_Party/FreeRTOS/Source/stream_buffer.c **** 
 2112              		.loc 1 912 71 view .LVU635
 914:Middlewares/Third_Party/FreeRTOS/Source/stream_buffer.c **** }
 2113              		.loc 1 914 2 view .LVU636
 2114              	.L145:
 915:Middlewares/Third_Party/FreeRTOS/Source/stream_buffer.c **** /*-----------------------------------------------------------*/
 2115              		.loc 1 915 1 is_stmt 0 view .LVU637
 2116 002a 2800     		movs	r0, r5
 2117 002c 05B0     		add	sp, sp, #20
 2118              		@ sp needed
 2119              	.LVL239:
 2120              	.LVL240:
 915:Middlewares/Third_Party/FreeRTOS/Source/stream_buffer.c **** /*-----------------------------------------------------------*/
 2121              		.loc 1 915 1 view .LVU638
 2122 002e F0BD     		pop	{r4, r5, r6, r7, pc}
 2123              	.LVL241:
 2124              	.L155:
 869:Middlewares/Third_Party/FreeRTOS/Source/stream_buffer.c **** 	configASSERT( pxStreamBuffer );
 2125              		.loc 1 869 2 is_stmt 1 discriminator 1 view .LVU639
 2126              		.syntax divided
 2127              	@ 869 "Middlewares/Third_Party/FreeRTOS/Source/stream_buffer.c" 1
 2128 0030 72B6     		 cpsid i 
 2129              	@ 0 "" 2
 2130              		.thumb
 2131              		.syntax unified
 2132              	.L147:
 869:Middlewares/Third_Party/FreeRTOS/Source/stream_buffer.c **** 	configASSERT( pxStreamBuffer );
 2133              		.loc 1 869 2 discriminator 1 view .LVU640
ARM GAS  /tmp/cctW9zGP.s 			page 70


 869:Middlewares/Third_Party/FreeRTOS/Source/stream_buffer.c **** 	configASSERT( pxStreamBuffer );
 2134              		.loc 1 869 2 discriminator 1 view .LVU641
 869:Middlewares/Third_Party/FreeRTOS/Source/stream_buffer.c **** 	configASSERT( pxStreamBuffer );
 2135              		.loc 1 869 2 discriminator 1 view .LVU642
 2136 0032 FEE7     		b	.L147
 2137              	.L156:
 870:Middlewares/Third_Party/FreeRTOS/Source/stream_buffer.c **** 
 2138              		.loc 1 870 2 discriminator 1 view .LVU643
 2139              		.syntax divided
 2140              	@ 870 "Middlewares/Third_Party/FreeRTOS/Source/stream_buffer.c" 1
 2141 0034 72B6     		 cpsid i 
 2142              	@ 0 "" 2
 2143              		.thumb
 2144              		.syntax unified
 2145              	.L149:
 870:Middlewares/Third_Party/FreeRTOS/Source/stream_buffer.c **** 
 2146              		.loc 1 870 2 discriminator 2 view .LVU644
 870:Middlewares/Third_Party/FreeRTOS/Source/stream_buffer.c **** 
 2147              		.loc 1 870 2 discriminator 2 view .LVU645
 870:Middlewares/Third_Party/FreeRTOS/Source/stream_buffer.c **** 
 2148              		.loc 1 870 2 discriminator 2 view .LVU646
 2149 0036 FEE7     		b	.L149
 2150              	.LVL242:
 2151              	.L153:
 883:Middlewares/Third_Party/FreeRTOS/Source/stream_buffer.c **** 	}
 2152              		.loc 1 883 30 is_stmt 0 view .LVU647
 2153 0038 0027     		movs	r7, #0
 2154 003a EFE7     		b	.L150
 2155              	.LVL243:
 2156              	.L157:
 895:Middlewares/Third_Party/FreeRTOS/Source/stream_buffer.c **** 
 2157              		.loc 1 895 3 is_stmt 1 view .LVU648
 895:Middlewares/Third_Party/FreeRTOS/Source/stream_buffer.c **** 
 2158              		.loc 1 895 21 is_stmt 0 view .LVU649
 2159 003c 0097     		str	r7, [sp]
 2160 003e 3200     		movs	r2, r6
 2161 0040 2900     		movs	r1, r5
 2162 0042 2000     		movs	r0, r4
 2163              	.LVL244:
 895:Middlewares/Third_Party/FreeRTOS/Source/stream_buffer.c **** 
 2164              		.loc 1 895 21 view .LVU650
 2165 0044 FFF7FEFF 		bl	prvReadMessageFromBuffer
 2166              	.LVL245:
 895:Middlewares/Third_Party/FreeRTOS/Source/stream_buffer.c **** 
 2167              		.loc 1 895 21 view .LVU651
 2168 0048 051E     		subs	r5, r0, #0
 2169              	.LVL246:
 898:Middlewares/Third_Party/FreeRTOS/Source/stream_buffer.c **** 		{
 2170              		.loc 1 898 3 is_stmt 1 view .LVU652
 898:Middlewares/Third_Party/FreeRTOS/Source/stream_buffer.c **** 		{
 2171              		.loc 1 898 5 is_stmt 0 view .LVU653
 2172 004a EED0     		beq	.L145
 2173              	.LBB4:
 900:Middlewares/Third_Party/FreeRTOS/Source/stream_buffer.c **** 		}
 2174              		.loc 1 900 4 is_stmt 1 view .LVU654
 900:Middlewares/Third_Party/FreeRTOS/Source/stream_buffer.c **** 		}
 2175              		.loc 1 900 4 view .LVU655
ARM GAS  /tmp/cctW9zGP.s 			page 71


 2176 004c FFF7FEFF 		bl	ulSetInterruptMaskFromISR
 2177              	.LVL247:
 900:Middlewares/Third_Party/FreeRTOS/Source/stream_buffer.c **** 		}
 2178              		.loc 1 900 4 is_stmt 0 view .LVU656
 2179 0050 0600     		movs	r6, r0
 2180              	.LVL248:
 900:Middlewares/Third_Party/FreeRTOS/Source/stream_buffer.c **** 		}
 2181              		.loc 1 900 4 is_stmt 1 view .LVU657
 2182 0052 6369     		ldr	r3, [r4, #20]
 2183 0054 002B     		cmp	r3, #0
 2184 0056 09D0     		beq	.L152
 900:Middlewares/Third_Party/FreeRTOS/Source/stream_buffer.c **** 		}
 2185              		.loc 1 900 4 discriminator 1 view .LVU658
 2186 0058 6069     		ldr	r0, [r4, #20]
 2187              	.LVL249:
 900:Middlewares/Third_Party/FreeRTOS/Source/stream_buffer.c **** 		}
 2188              		.loc 1 900 4 is_stmt 0 discriminator 1 view .LVU659
 2189 005a 039B     		ldr	r3, [sp, #12]
 2190 005c 0093     		str	r3, [sp]
 2191 005e 0023     		movs	r3, #0
 2192 0060 0022     		movs	r2, #0
 2193 0062 0021     		movs	r1, #0
 2194 0064 FFF7FEFF 		bl	xTaskGenericNotifyFromISR
 2195              	.LVL250:
 900:Middlewares/Third_Party/FreeRTOS/Source/stream_buffer.c **** 		}
 2196              		.loc 1 900 4 is_stmt 1 discriminator 1 view .LVU660
 2197 0068 0023     		movs	r3, #0
 2198 006a 6361     		str	r3, [r4, #20]
 2199              	.L152:
 900:Middlewares/Third_Party/FreeRTOS/Source/stream_buffer.c **** 		}
 2200              		.loc 1 900 4 discriminator 3 view .LVU661
 2201 006c 3000     		movs	r0, r6
 2202 006e FFF7FEFF 		bl	vClearInterruptMaskFromISR
 2203              	.LVL251:
 2204              	.LBE4:
 900:Middlewares/Third_Party/FreeRTOS/Source/stream_buffer.c **** 		}
 2205              		.loc 1 900 77 discriminator 3 view .LVU662
 2206 0072 DAE7     		b	.L145
 2207              		.cfi_endproc
 2208              	.LFE11:
 2210              		.section	.text.xStreamBufferIsEmpty,"ax",%progbits
 2211              		.align	1
 2212              		.global	xStreamBufferIsEmpty
 2213              		.syntax unified
 2214              		.code	16
 2215              		.thumb_func
 2217              	xStreamBufferIsEmpty:
 2218              	.LVL252:
 2219              	.LFB13:
 971:Middlewares/Third_Party/FreeRTOS/Source/stream_buffer.c **** const StreamBuffer_t * const pxStreamBuffer = xStreamBuffer;
 2220              		.loc 1 971 1 view -0
 2221              		.cfi_startproc
 2222              		@ args = 0, pretend = 0, frame = 0
 2223              		@ frame_needed = 0, uses_anonymous_args = 0
 2224              		@ link register save eliminated.
 972:Middlewares/Third_Party/FreeRTOS/Source/stream_buffer.c **** BaseType_t xReturn;
 2225              		.loc 1 972 1 view .LVU664
ARM GAS  /tmp/cctW9zGP.s 			page 72


 973:Middlewares/Third_Party/FreeRTOS/Source/stream_buffer.c **** size_t xTail;
 2226              		.loc 1 973 1 view .LVU665
 974:Middlewares/Third_Party/FreeRTOS/Source/stream_buffer.c **** 
 2227              		.loc 1 974 1 view .LVU666
 976:Middlewares/Third_Party/FreeRTOS/Source/stream_buffer.c **** 
 2228              		.loc 1 976 2 view .LVU667
 2229 0000 0028     		cmp	r0, #0
 2230 0002 05D0     		beq	.L163
 976:Middlewares/Third_Party/FreeRTOS/Source/stream_buffer.c **** 
 2231              		.loc 1 976 32 discriminator 2 view .LVU668
 979:Middlewares/Third_Party/FreeRTOS/Source/stream_buffer.c **** 	if( pxStreamBuffer->xHead == xTail )
 2232              		.loc 1 979 2 discriminator 2 view .LVU669
 979:Middlewares/Third_Party/FreeRTOS/Source/stream_buffer.c **** 	if( pxStreamBuffer->xHead == xTail )
 2233              		.loc 1 979 8 is_stmt 0 discriminator 2 view .LVU670
 2234 0004 0368     		ldr	r3, [r0]
 2235              	.LVL253:
 980:Middlewares/Third_Party/FreeRTOS/Source/stream_buffer.c **** 	{
 2236              		.loc 1 980 2 is_stmt 1 discriminator 2 view .LVU671
 980:Middlewares/Third_Party/FreeRTOS/Source/stream_buffer.c **** 	{
 2237              		.loc 1 980 20 is_stmt 0 discriminator 2 view .LVU672
 2238 0006 4268     		ldr	r2, [r0, #4]
 980:Middlewares/Third_Party/FreeRTOS/Source/stream_buffer.c **** 	{
 2239              		.loc 1 980 4 discriminator 2 view .LVU673
 2240 0008 9A42     		cmp	r2, r3
 2241 000a 03D0     		beq	.L164
 986:Middlewares/Third_Party/FreeRTOS/Source/stream_buffer.c **** 	}
 2242              		.loc 1 986 11 view .LVU674
 2243 000c 0020     		movs	r0, #0
 2244              	.LVL254:
 989:Middlewares/Third_Party/FreeRTOS/Source/stream_buffer.c **** }
 2245              		.loc 1 989 2 is_stmt 1 view .LVU675
 2246              	.L158:
 990:Middlewares/Third_Party/FreeRTOS/Source/stream_buffer.c **** /*-----------------------------------------------------------*/
 2247              		.loc 1 990 1 is_stmt 0 view .LVU676
 2248              		@ sp needed
 2249 000e 7047     		bx	lr
 2250              	.LVL255:
 2251              	.L163:
 976:Middlewares/Third_Party/FreeRTOS/Source/stream_buffer.c **** 
 2252              		.loc 1 976 2 is_stmt 1 discriminator 1 view .LVU677
 2253              		.syntax divided
 2254              	@ 976 "Middlewares/Third_Party/FreeRTOS/Source/stream_buffer.c" 1
 2255 0010 72B6     		 cpsid i 
 2256              	@ 0 "" 2
 2257              		.thumb
 2258              		.syntax unified
 2259              	.L160:
 976:Middlewares/Third_Party/FreeRTOS/Source/stream_buffer.c **** 
 2260              		.loc 1 976 2 discriminator 1 view .LVU678
 976:Middlewares/Third_Party/FreeRTOS/Source/stream_buffer.c **** 
 2261              		.loc 1 976 2 discriminator 1 view .LVU679
 976:Middlewares/Third_Party/FreeRTOS/Source/stream_buffer.c **** 
 2262              		.loc 1 976 2 discriminator 1 view .LVU680
 2263 0012 FEE7     		b	.L160
 2264              	.LVL256:
 2265              	.L164:
 982:Middlewares/Third_Party/FreeRTOS/Source/stream_buffer.c **** 	}
ARM GAS  /tmp/cctW9zGP.s 			page 73


 2266              		.loc 1 982 11 is_stmt 0 view .LVU681
 2267 0014 0120     		movs	r0, #1
 2268              	.LVL257:
 982:Middlewares/Third_Party/FreeRTOS/Source/stream_buffer.c **** 	}
 2269              		.loc 1 982 11 view .LVU682
 2270 0016 FAE7     		b	.L158
 2271              		.cfi_endproc
 2272              	.LFE13:
 2274              		.section	.text.xStreamBufferIsFull,"ax",%progbits
 2275              		.align	1
 2276              		.global	xStreamBufferIsFull
 2277              		.syntax unified
 2278              		.code	16
 2279              		.thumb_func
 2281              	xStreamBufferIsFull:
 2282              	.LVL258:
 2283              	.LFB14:
 994:Middlewares/Third_Party/FreeRTOS/Source/stream_buffer.c **** BaseType_t xReturn;
 2284              		.loc 1 994 1 is_stmt 1 view -0
 2285              		.cfi_startproc
 2286              		@ args = 0, pretend = 0, frame = 0
 2287              		@ frame_needed = 0, uses_anonymous_args = 0
 994:Middlewares/Third_Party/FreeRTOS/Source/stream_buffer.c **** BaseType_t xReturn;
 2288              		.loc 1 994 1 is_stmt 0 view .LVU684
 2289 0000 10B5     		push	{r4, lr}
 2290              	.LCFI28:
 2291              		.cfi_def_cfa_offset 8
 2292              		.cfi_offset 4, -8
 2293              		.cfi_offset 14, -4
 995:Middlewares/Third_Party/FreeRTOS/Source/stream_buffer.c **** size_t xBytesToStoreMessageLength;
 2294              		.loc 1 995 1 is_stmt 1 view .LVU685
 996:Middlewares/Third_Party/FreeRTOS/Source/stream_buffer.c **** const StreamBuffer_t * const pxStreamBuffer = xStreamBuffer;
 2295              		.loc 1 996 1 view .LVU686
 997:Middlewares/Third_Party/FreeRTOS/Source/stream_buffer.c **** 
 2296              		.loc 1 997 1 view .LVU687
 2297              	.LVL259:
 999:Middlewares/Third_Party/FreeRTOS/Source/stream_buffer.c **** 
 2298              		.loc 1 999 2 view .LVU688
 2299 0002 0028     		cmp	r0, #0
 2300 0004 09D0     		beq	.L172
 999:Middlewares/Third_Party/FreeRTOS/Source/stream_buffer.c **** 
 2301              		.loc 1 999 32 discriminator 2 view .LVU689
1005:Middlewares/Third_Party/FreeRTOS/Source/stream_buffer.c **** 	{
 2302              		.loc 1 1005 2 discriminator 2 view .LVU690
1005:Middlewares/Third_Party/FreeRTOS/Source/stream_buffer.c **** 	{
 2303              		.loc 1 1005 22 is_stmt 0 discriminator 2 view .LVU691
 2304 0006 037F     		ldrb	r3, [r0, #28]
1005:Middlewares/Third_Party/FreeRTOS/Source/stream_buffer.c **** 	{
 2305              		.loc 1 1005 4 discriminator 2 view .LVU692
 2306 0008 DB07     		lsls	r3, r3, #31
 2307 000a 08D5     		bpl	.L170
1007:Middlewares/Third_Party/FreeRTOS/Source/stream_buffer.c **** 	}
 2308              		.loc 1 1007 30 view .LVU693
 2309 000c 0424     		movs	r4, #4
 2310              	.L168:
 2311              	.LVL260:
1015:Middlewares/Third_Party/FreeRTOS/Source/stream_buffer.c **** 	{
ARM GAS  /tmp/cctW9zGP.s 			page 74


 2312              		.loc 1 1015 2 is_stmt 1 view .LVU694
1015:Middlewares/Third_Party/FreeRTOS/Source/stream_buffer.c **** 	{
 2313              		.loc 1 1015 6 is_stmt 0 view .LVU695
 2314 000e FFF7FEFF 		bl	xStreamBufferSpacesAvailable
 2315              	.LVL261:
1015:Middlewares/Third_Party/FreeRTOS/Source/stream_buffer.c **** 	{
 2316              		.loc 1 1015 4 view .LVU696
 2317 0012 A042     		cmp	r0, r4
 2318 0014 05D8     		bhi	.L171
1017:Middlewares/Third_Party/FreeRTOS/Source/stream_buffer.c **** 	}
 2319              		.loc 1 1017 11 view .LVU697
 2320 0016 0120     		movs	r0, #1
 2321              	.L165:
1025:Middlewares/Third_Party/FreeRTOS/Source/stream_buffer.c **** /*-----------------------------------------------------------*/
 2322              		.loc 1 1025 1 view .LVU698
 2323              		@ sp needed
 2324              	.LVL262:
1025:Middlewares/Third_Party/FreeRTOS/Source/stream_buffer.c **** /*-----------------------------------------------------------*/
 2325              		.loc 1 1025 1 view .LVU699
 2326 0018 10BD     		pop	{r4, pc}
 2327              	.LVL263:
 2328              	.L172:
 999:Middlewares/Third_Party/FreeRTOS/Source/stream_buffer.c **** 
 2329              		.loc 1 999 2 is_stmt 1 discriminator 1 view .LVU700
 2330              		.syntax divided
 2331              	@ 999 "Middlewares/Third_Party/FreeRTOS/Source/stream_buffer.c" 1
 2332 001a 72B6     		 cpsid i 
 2333              	@ 0 "" 2
 2334              		.thumb
 2335              		.syntax unified
 2336              	.L167:
 999:Middlewares/Third_Party/FreeRTOS/Source/stream_buffer.c **** 
 2337              		.loc 1 999 2 discriminator 1 view .LVU701
 999:Middlewares/Third_Party/FreeRTOS/Source/stream_buffer.c **** 
 2338              		.loc 1 999 2 discriminator 1 view .LVU702
 999:Middlewares/Third_Party/FreeRTOS/Source/stream_buffer.c **** 
 2339              		.loc 1 999 2 discriminator 1 view .LVU703
 2340 001c FEE7     		b	.L167
 2341              	.L170:
1011:Middlewares/Third_Party/FreeRTOS/Source/stream_buffer.c **** 	}
 2342              		.loc 1 1011 30 is_stmt 0 view .LVU704
 2343 001e 0024     		movs	r4, #0
 2344 0020 F5E7     		b	.L168
 2345              	.LVL264:
 2346              	.L171:
1021:Middlewares/Third_Party/FreeRTOS/Source/stream_buffer.c **** 	}
 2347              		.loc 1 1021 11 view .LVU705
 2348 0022 0020     		movs	r0, #0
 2349              	.LVL265:
1024:Middlewares/Third_Party/FreeRTOS/Source/stream_buffer.c **** }
 2350              		.loc 1 1024 2 is_stmt 1 view .LVU706
1024:Middlewares/Third_Party/FreeRTOS/Source/stream_buffer.c **** }
 2351              		.loc 1 1024 9 is_stmt 0 view .LVU707
 2352 0024 F8E7     		b	.L165
 2353              		.cfi_endproc
 2354              	.LFE14:
 2356              		.section	.text.xStreamBufferSendCompletedFromISR,"ax",%progbits
ARM GAS  /tmp/cctW9zGP.s 			page 75


 2357              		.align	1
 2358              		.global	xStreamBufferSendCompletedFromISR
 2359              		.syntax unified
 2360              		.code	16
 2361              		.thumb_func
 2363              	xStreamBufferSendCompletedFromISR:
 2364              	.LVL266:
 2365              	.LFB15:
1029:Middlewares/Third_Party/FreeRTOS/Source/stream_buffer.c **** StreamBuffer_t * const pxStreamBuffer = xStreamBuffer;
 2366              		.loc 1 1029 1 is_stmt 1 view -0
 2367              		.cfi_startproc
 2368              		@ args = 0, pretend = 0, frame = 0
 2369              		@ frame_needed = 0, uses_anonymous_args = 0
1029:Middlewares/Third_Party/FreeRTOS/Source/stream_buffer.c **** StreamBuffer_t * const pxStreamBuffer = xStreamBuffer;
 2370              		.loc 1 1029 1 is_stmt 0 view .LVU709
 2371 0000 70B5     		push	{r4, r5, r6, lr}
 2372              	.LCFI29:
 2373              		.cfi_def_cfa_offset 16
 2374              		.cfi_offset 4, -16
 2375              		.cfi_offset 5, -12
 2376              		.cfi_offset 6, -8
 2377              		.cfi_offset 14, -4
 2378 0002 82B0     		sub	sp, sp, #8
 2379              	.LCFI30:
 2380              		.cfi_def_cfa_offset 24
 2381 0004 0400     		movs	r4, r0
 2382 0006 0E00     		movs	r6, r1
1030:Middlewares/Third_Party/FreeRTOS/Source/stream_buffer.c **** BaseType_t xReturn;
 2383              		.loc 1 1030 1 is_stmt 1 view .LVU710
 2384              	.LVL267:
1031:Middlewares/Third_Party/FreeRTOS/Source/stream_buffer.c **** UBaseType_t uxSavedInterruptStatus;
 2385              		.loc 1 1031 1 view .LVU711
1032:Middlewares/Third_Party/FreeRTOS/Source/stream_buffer.c **** 
 2386              		.loc 1 1032 1 view .LVU712
1034:Middlewares/Third_Party/FreeRTOS/Source/stream_buffer.c **** 
 2387              		.loc 1 1034 2 view .LVU713
 2388 0008 0028     		cmp	r0, #0
 2389 000a 15D0     		beq	.L178
1034:Middlewares/Third_Party/FreeRTOS/Source/stream_buffer.c **** 
 2390              		.loc 1 1034 32 discriminator 2 view .LVU714
1036:Middlewares/Third_Party/FreeRTOS/Source/stream_buffer.c **** 	{
 2391              		.loc 1 1036 2 discriminator 2 view .LVU715
1036:Middlewares/Third_Party/FreeRTOS/Source/stream_buffer.c **** 	{
 2392              		.loc 1 1036 43 is_stmt 0 discriminator 2 view .LVU716
 2393 000c FFF7FEFF 		bl	ulSetInterruptMaskFromISR
 2394              	.LVL268:
1036:Middlewares/Third_Party/FreeRTOS/Source/stream_buffer.c **** 	{
 2395              		.loc 1 1036 43 discriminator 2 view .LVU717
 2396 0010 0500     		movs	r5, r0
 2397              	.LVL269:
1038:Middlewares/Third_Party/FreeRTOS/Source/stream_buffer.c **** 		{
 2398              		.loc 1 1038 3 is_stmt 1 discriminator 2 view .LVU718
1038:Middlewares/Third_Party/FreeRTOS/Source/stream_buffer.c **** 		{
 2399              		.loc 1 1038 25 is_stmt 0 discriminator 2 view .LVU719
 2400 0012 2369     		ldr	r3, [r4, #16]
1038:Middlewares/Third_Party/FreeRTOS/Source/stream_buffer.c **** 		{
 2401              		.loc 1 1038 5 discriminator 2 view .LVU720
ARM GAS  /tmp/cctW9zGP.s 			page 76


 2402 0014 002B     		cmp	r3, #0
 2403 0016 11D0     		beq	.L177
1040:Middlewares/Third_Party/FreeRTOS/Source/stream_buffer.c **** 										 ( uint32_t ) 0,
 2404              		.loc 1 1040 4 is_stmt 1 view .LVU721
1040:Middlewares/Third_Party/FreeRTOS/Source/stream_buffer.c **** 										 ( uint32_t ) 0,
 2405              		.loc 1 1040 13 is_stmt 0 view .LVU722
 2406 0018 2069     		ldr	r0, [r4, #16]
 2407              	.LVL270:
1040:Middlewares/Third_Party/FreeRTOS/Source/stream_buffer.c **** 										 ( uint32_t ) 0,
 2408              		.loc 1 1040 13 view .LVU723
 2409 001a 0096     		str	r6, [sp]
 2410 001c 0023     		movs	r3, #0
 2411 001e 0022     		movs	r2, #0
 2412 0020 0021     		movs	r1, #0
 2413 0022 FFF7FEFF 		bl	xTaskGenericNotifyFromISR
 2414              	.LVL271:
1044:Middlewares/Third_Party/FreeRTOS/Source/stream_buffer.c **** 			xReturn = pdTRUE;
 2415              		.loc 1 1044 4 is_stmt 1 view .LVU724
1044:Middlewares/Third_Party/FreeRTOS/Source/stream_buffer.c **** 			xReturn = pdTRUE;
 2416              		.loc 1 1044 46 is_stmt 0 view .LVU725
 2417 0026 0023     		movs	r3, #0
 2418 0028 2361     		str	r3, [r4, #16]
1045:Middlewares/Third_Party/FreeRTOS/Source/stream_buffer.c **** 		}
 2419              		.loc 1 1045 4 is_stmt 1 view .LVU726
 2420              	.LVL272:
1045:Middlewares/Third_Party/FreeRTOS/Source/stream_buffer.c **** 		}
 2421              		.loc 1 1045 12 is_stmt 0 view .LVU727
 2422 002a 0124     		movs	r4, #1
 2423              	.LVL273:
 2424              	.L176:
1052:Middlewares/Third_Party/FreeRTOS/Source/stream_buffer.c **** 
 2425              		.loc 1 1052 2 is_stmt 1 view .LVU728
 2426 002c 2800     		movs	r0, r5
 2427 002e FFF7FEFF 		bl	vClearInterruptMaskFromISR
 2428              	.LVL274:
1054:Middlewares/Third_Party/FreeRTOS/Source/stream_buffer.c **** }
 2429              		.loc 1 1054 2 view .LVU729
1055:Middlewares/Third_Party/FreeRTOS/Source/stream_buffer.c **** /*-----------------------------------------------------------*/
 2430              		.loc 1 1055 1 is_stmt 0 view .LVU730
 2431 0032 2000     		movs	r0, r4
 2432 0034 02B0     		add	sp, sp, #8
 2433              		@ sp needed
 2434              	.LVL275:
 2435              	.LVL276:
 2436              	.LVL277:
1055:Middlewares/Third_Party/FreeRTOS/Source/stream_buffer.c **** /*-----------------------------------------------------------*/
 2437              		.loc 1 1055 1 view .LVU731
 2438 0036 70BD     		pop	{r4, r5, r6, pc}
 2439              	.LVL278:
 2440              	.L178:
1034:Middlewares/Third_Party/FreeRTOS/Source/stream_buffer.c **** 
 2441              		.loc 1 1034 2 is_stmt 1 discriminator 1 view .LVU732
 2442              		.syntax divided
 2443              	@ 1034 "Middlewares/Third_Party/FreeRTOS/Source/stream_buffer.c" 1
 2444 0038 72B6     		 cpsid i 
 2445              	@ 0 "" 2
 2446              		.thumb
ARM GAS  /tmp/cctW9zGP.s 			page 77


 2447              		.syntax unified
 2448              	.L175:
1034:Middlewares/Third_Party/FreeRTOS/Source/stream_buffer.c **** 
 2449              		.loc 1 1034 2 discriminator 1 view .LVU733
1034:Middlewares/Third_Party/FreeRTOS/Source/stream_buffer.c **** 
 2450              		.loc 1 1034 2 discriminator 1 view .LVU734
1034:Middlewares/Third_Party/FreeRTOS/Source/stream_buffer.c **** 
 2451              		.loc 1 1034 2 discriminator 1 view .LVU735
 2452 003a FEE7     		b	.L175
 2453              	.LVL279:
 2454              	.L177:
1049:Middlewares/Third_Party/FreeRTOS/Source/stream_buffer.c **** 		}
 2455              		.loc 1 1049 12 is_stmt 0 view .LVU736
 2456 003c 0024     		movs	r4, #0
 2457              	.LVL280:
1049:Middlewares/Third_Party/FreeRTOS/Source/stream_buffer.c **** 		}
 2458              		.loc 1 1049 12 view .LVU737
 2459 003e F5E7     		b	.L176
 2460              		.cfi_endproc
 2461              	.LFE15:
 2463              		.section	.text.xStreamBufferReceiveCompletedFromISR,"ax",%progbits
 2464              		.align	1
 2465              		.global	xStreamBufferReceiveCompletedFromISR
 2466              		.syntax unified
 2467              		.code	16
 2468              		.thumb_func
 2470              	xStreamBufferReceiveCompletedFromISR:
 2471              	.LVL281:
 2472              	.LFB16:
1059:Middlewares/Third_Party/FreeRTOS/Source/stream_buffer.c **** StreamBuffer_t * const pxStreamBuffer = xStreamBuffer;
 2473              		.loc 1 1059 1 is_stmt 1 view -0
 2474              		.cfi_startproc
 2475              		@ args = 0, pretend = 0, frame = 0
 2476              		@ frame_needed = 0, uses_anonymous_args = 0
1059:Middlewares/Third_Party/FreeRTOS/Source/stream_buffer.c **** StreamBuffer_t * const pxStreamBuffer = xStreamBuffer;
 2477              		.loc 1 1059 1 is_stmt 0 view .LVU739
 2478 0000 70B5     		push	{r4, r5, r6, lr}
 2479              	.LCFI31:
 2480              		.cfi_def_cfa_offset 16
 2481              		.cfi_offset 4, -16
 2482              		.cfi_offset 5, -12
 2483              		.cfi_offset 6, -8
 2484              		.cfi_offset 14, -4
 2485 0002 82B0     		sub	sp, sp, #8
 2486              	.LCFI32:
 2487              		.cfi_def_cfa_offset 24
 2488 0004 0400     		movs	r4, r0
 2489 0006 0E00     		movs	r6, r1
1060:Middlewares/Third_Party/FreeRTOS/Source/stream_buffer.c **** BaseType_t xReturn;
 2490              		.loc 1 1060 1 is_stmt 1 view .LVU740
 2491              	.LVL282:
1061:Middlewares/Third_Party/FreeRTOS/Source/stream_buffer.c **** UBaseType_t uxSavedInterruptStatus;
 2492              		.loc 1 1061 1 view .LVU741
1062:Middlewares/Third_Party/FreeRTOS/Source/stream_buffer.c **** 
 2493              		.loc 1 1062 1 view .LVU742
1064:Middlewares/Third_Party/FreeRTOS/Source/stream_buffer.c **** 
 2494              		.loc 1 1064 2 view .LVU743
ARM GAS  /tmp/cctW9zGP.s 			page 78


 2495 0008 0028     		cmp	r0, #0
 2496 000a 15D0     		beq	.L184
1064:Middlewares/Third_Party/FreeRTOS/Source/stream_buffer.c **** 
 2497              		.loc 1 1064 32 discriminator 2 view .LVU744
1066:Middlewares/Third_Party/FreeRTOS/Source/stream_buffer.c **** 	{
 2498              		.loc 1 1066 2 discriminator 2 view .LVU745
1066:Middlewares/Third_Party/FreeRTOS/Source/stream_buffer.c **** 	{
 2499              		.loc 1 1066 43 is_stmt 0 discriminator 2 view .LVU746
 2500 000c FFF7FEFF 		bl	ulSetInterruptMaskFromISR
 2501              	.LVL283:
1066:Middlewares/Third_Party/FreeRTOS/Source/stream_buffer.c **** 	{
 2502              		.loc 1 1066 43 discriminator 2 view .LVU747
 2503 0010 0500     		movs	r5, r0
 2504              	.LVL284:
1068:Middlewares/Third_Party/FreeRTOS/Source/stream_buffer.c **** 		{
 2505              		.loc 1 1068 3 is_stmt 1 discriminator 2 view .LVU748
1068:Middlewares/Third_Party/FreeRTOS/Source/stream_buffer.c **** 		{
 2506              		.loc 1 1068 25 is_stmt 0 discriminator 2 view .LVU749
 2507 0012 6369     		ldr	r3, [r4, #20]
1068:Middlewares/Third_Party/FreeRTOS/Source/stream_buffer.c **** 		{
 2508              		.loc 1 1068 5 discriminator 2 view .LVU750
 2509 0014 002B     		cmp	r3, #0
 2510 0016 11D0     		beq	.L183
1070:Middlewares/Third_Party/FreeRTOS/Source/stream_buffer.c **** 										 ( uint32_t ) 0,
 2511              		.loc 1 1070 4 is_stmt 1 view .LVU751
1070:Middlewares/Third_Party/FreeRTOS/Source/stream_buffer.c **** 										 ( uint32_t ) 0,
 2512              		.loc 1 1070 13 is_stmt 0 view .LVU752
 2513 0018 6069     		ldr	r0, [r4, #20]
 2514              	.LVL285:
1070:Middlewares/Third_Party/FreeRTOS/Source/stream_buffer.c **** 										 ( uint32_t ) 0,
 2515              		.loc 1 1070 13 view .LVU753
 2516 001a 0096     		str	r6, [sp]
 2517 001c 0023     		movs	r3, #0
 2518 001e 0022     		movs	r2, #0
 2519 0020 0021     		movs	r1, #0
 2520 0022 FFF7FEFF 		bl	xTaskGenericNotifyFromISR
 2521              	.LVL286:
1074:Middlewares/Third_Party/FreeRTOS/Source/stream_buffer.c **** 			xReturn = pdTRUE;
 2522              		.loc 1 1074 4 is_stmt 1 view .LVU754
1074:Middlewares/Third_Party/FreeRTOS/Source/stream_buffer.c **** 			xReturn = pdTRUE;
 2523              		.loc 1 1074 43 is_stmt 0 view .LVU755
 2524 0026 0023     		movs	r3, #0
 2525 0028 6361     		str	r3, [r4, #20]
1075:Middlewares/Third_Party/FreeRTOS/Source/stream_buffer.c **** 		}
 2526              		.loc 1 1075 4 is_stmt 1 view .LVU756
 2527              	.LVL287:
1075:Middlewares/Third_Party/FreeRTOS/Source/stream_buffer.c **** 		}
 2528              		.loc 1 1075 12 is_stmt 0 view .LVU757
 2529 002a 0124     		movs	r4, #1
 2530              	.LVL288:
 2531              	.L182:
1082:Middlewares/Third_Party/FreeRTOS/Source/stream_buffer.c **** 
 2532              		.loc 1 1082 2 is_stmt 1 view .LVU758
 2533 002c 2800     		movs	r0, r5
 2534 002e FFF7FEFF 		bl	vClearInterruptMaskFromISR
 2535              	.LVL289:
1084:Middlewares/Third_Party/FreeRTOS/Source/stream_buffer.c **** }
ARM GAS  /tmp/cctW9zGP.s 			page 79


 2536              		.loc 1 1084 2 view .LVU759
1085:Middlewares/Third_Party/FreeRTOS/Source/stream_buffer.c **** /*-----------------------------------------------------------*/
 2537              		.loc 1 1085 1 is_stmt 0 view .LVU760
 2538 0032 2000     		movs	r0, r4
 2539 0034 02B0     		add	sp, sp, #8
 2540              		@ sp needed
 2541              	.LVL290:
 2542              	.LVL291:
 2543              	.LVL292:
1085:Middlewares/Third_Party/FreeRTOS/Source/stream_buffer.c **** /*-----------------------------------------------------------*/
 2544              		.loc 1 1085 1 view .LVU761
 2545 0036 70BD     		pop	{r4, r5, r6, pc}
 2546              	.LVL293:
 2547              	.L184:
1064:Middlewares/Third_Party/FreeRTOS/Source/stream_buffer.c **** 
 2548              		.loc 1 1064 2 is_stmt 1 discriminator 1 view .LVU762
 2549              		.syntax divided
 2550              	@ 1064 "Middlewares/Third_Party/FreeRTOS/Source/stream_buffer.c" 1
 2551 0038 72B6     		 cpsid i 
 2552              	@ 0 "" 2
 2553              		.thumb
 2554              		.syntax unified
 2555              	.L181:
1064:Middlewares/Third_Party/FreeRTOS/Source/stream_buffer.c **** 
 2556              		.loc 1 1064 2 discriminator 1 view .LVU763
1064:Middlewares/Third_Party/FreeRTOS/Source/stream_buffer.c **** 
 2557              		.loc 1 1064 2 discriminator 1 view .LVU764
1064:Middlewares/Third_Party/FreeRTOS/Source/stream_buffer.c **** 
 2558              		.loc 1 1064 2 discriminator 1 view .LVU765
 2559 003a FEE7     		b	.L181
 2560              	.LVL294:
 2561              	.L183:
1079:Middlewares/Third_Party/FreeRTOS/Source/stream_buffer.c **** 		}
 2562              		.loc 1 1079 12 is_stmt 0 view .LVU766
 2563 003c 0024     		movs	r4, #0
 2564              	.LVL295:
1079:Middlewares/Third_Party/FreeRTOS/Source/stream_buffer.c **** 		}
 2565              		.loc 1 1079 12 view .LVU767
 2566 003e F5E7     		b	.L182
 2567              		.cfi_endproc
 2568              	.LFE16:
 2570              		.text
 2571              	.Letext0:
 2572              		.file 2 "/home/yiyu/gcc-arm-none-eabi-10.3-2021.10/arm-none-eabi/include/machine/_default_types.h"
 2573              		.file 3 "/home/yiyu/gcc-arm-none-eabi-10.3-2021.10/arm-none-eabi/include/sys/_stdint.h"
 2574              		.file 4 "/home/yiyu/gcc-arm-none-eabi-10.3-2021.10/lib/gcc/arm-none-eabi/10.3.1/include/stddef.h"
 2575              		.file 5 "Middlewares/Third_Party/FreeRTOS/Source/portable/GCC/ARM_CM0/portmacro.h"
 2576              		.file 6 "Middlewares/Third_Party/FreeRTOS/Source/include/task.h"
 2577              		.file 7 "Middlewares/Third_Party/FreeRTOS/Source/include/stream_buffer.h"
 2578              		.file 8 "<built-in>"
 2579              		.file 9 "/home/yiyu/gcc-arm-none-eabi-10.3-2021.10/arm-none-eabi/include/string.h"
 2580              		.file 10 "Middlewares/Third_Party/FreeRTOS/Source/include/portable.h"
ARM GAS  /tmp/cctW9zGP.s 			page 80


DEFINED SYMBOLS
                            *ABS*:0000000000000000 stream_buffer.c
     /tmp/cctW9zGP.s:18     .text.prvBytesInBuffer:0000000000000000 $t
     /tmp/cctW9zGP.s:23     .text.prvBytesInBuffer:0000000000000000 prvBytesInBuffer
     /tmp/cctW9zGP.s:66     .text.prvInitialiseNewStreamBuffer:0000000000000000 $t
     /tmp/cctW9zGP.s:71     .text.prvInitialiseNewStreamBuffer:0000000000000000 prvInitialiseNewStreamBuffer
     /tmp/cctW9zGP.s:160    .text.prvWriteBytesToBuffer:0000000000000000 $t
     /tmp/cctW9zGP.s:165    .text.prvWriteBytesToBuffer:0000000000000000 prvWriteBytesToBuffer
     /tmp/cctW9zGP.s:317    .text.prvWriteMessageToBuffer:0000000000000000 $t
     /tmp/cctW9zGP.s:322    .text.prvWriteMessageToBuffer:0000000000000000 prvWriteMessageToBuffer
     /tmp/cctW9zGP.s:420    .text.prvReadBytesFromBuffer:0000000000000000 $t
     /tmp/cctW9zGP.s:425    .text.prvReadBytesFromBuffer:0000000000000000 prvReadBytesFromBuffer
     /tmp/cctW9zGP.s:606    .text.prvReadMessageFromBuffer:0000000000000000 $t
     /tmp/cctW9zGP.s:611    .text.prvReadMessageFromBuffer:0000000000000000 prvReadMessageFromBuffer
     /tmp/cctW9zGP.s:727    .text.xStreamBufferGenericCreate:0000000000000000 $t
     /tmp/cctW9zGP.s:733    .text.xStreamBufferGenericCreate:0000000000000000 xStreamBufferGenericCreate
     /tmp/cctW9zGP.s:871    .text.vStreamBufferDelete:0000000000000000 $t
     /tmp/cctW9zGP.s:877    .text.vStreamBufferDelete:0000000000000000 vStreamBufferDelete
     /tmp/cctW9zGP.s:937    .text.xStreamBufferReset:0000000000000000 $t
     /tmp/cctW9zGP.s:943    .text.xStreamBufferReset:0000000000000000 xStreamBufferReset
     /tmp/cctW9zGP.s:1039   .text.xStreamBufferSetTriggerLevel:0000000000000000 $t
     /tmp/cctW9zGP.s:1045   .text.xStreamBufferSetTriggerLevel:0000000000000000 xStreamBufferSetTriggerLevel
     /tmp/cctW9zGP.s:1109   .text.xStreamBufferSpacesAvailable:0000000000000000 $t
     /tmp/cctW9zGP.s:1115   .text.xStreamBufferSpacesAvailable:0000000000000000 xStreamBufferSpacesAvailable
     /tmp/cctW9zGP.s:1180   .text.xStreamBufferBytesAvailable:0000000000000000 $t
     /tmp/cctW9zGP.s:1186   .text.xStreamBufferBytesAvailable:0000000000000000 xStreamBufferBytesAvailable
     /tmp/cctW9zGP.s:1232   .text.xStreamBufferSend:0000000000000000 $t
     /tmp/cctW9zGP.s:1238   .text.xStreamBufferSend:0000000000000000 xStreamBufferSend
     /tmp/cctW9zGP.s:1512   .text.xStreamBufferSendFromISR:0000000000000000 $t
     /tmp/cctW9zGP.s:1518   .text.xStreamBufferSendFromISR:0000000000000000 xStreamBufferSendFromISR
     /tmp/cctW9zGP.s:1689   .text.xStreamBufferReceive:0000000000000000 $t
     /tmp/cctW9zGP.s:1695   .text.xStreamBufferReceive:0000000000000000 xStreamBufferReceive
     /tmp/cctW9zGP.s:1930   .text.xStreamBufferNextMessageLengthBytes:0000000000000000 $t
     /tmp/cctW9zGP.s:1936   .text.xStreamBufferNextMessageLengthBytes:0000000000000000 xStreamBufferNextMessageLengthBytes
     /tmp/cctW9zGP.s:2043   .text.xStreamBufferReceiveFromISR:0000000000000000 $t
     /tmp/cctW9zGP.s:2049   .text.xStreamBufferReceiveFromISR:0000000000000000 xStreamBufferReceiveFromISR
     /tmp/cctW9zGP.s:2211   .text.xStreamBufferIsEmpty:0000000000000000 $t
     /tmp/cctW9zGP.s:2217   .text.xStreamBufferIsEmpty:0000000000000000 xStreamBufferIsEmpty
     /tmp/cctW9zGP.s:2275   .text.xStreamBufferIsFull:0000000000000000 $t
     /tmp/cctW9zGP.s:2281   .text.xStreamBufferIsFull:0000000000000000 xStreamBufferIsFull
     /tmp/cctW9zGP.s:2357   .text.xStreamBufferSendCompletedFromISR:0000000000000000 $t
     /tmp/cctW9zGP.s:2363   .text.xStreamBufferSendCompletedFromISR:0000000000000000 xStreamBufferSendCompletedFromISR
     /tmp/cctW9zGP.s:2464   .text.xStreamBufferReceiveCompletedFromISR:0000000000000000 $t
     /tmp/cctW9zGP.s:2470   .text.xStreamBufferReceiveCompletedFromISR:0000000000000000 xStreamBufferReceiveCompletedFromISR

UNDEFINED SYMBOLS
memset
memcpy
pvPortMalloc
vPortFree
vPortEnterCritical
vPortExitCritical
vTaskSetTimeOutState
xTaskNotifyStateClear
xTaskGetCurrentTaskHandle
xTaskNotifyWait
xTaskCheckForTimeOut
ARM GAS  /tmp/cctW9zGP.s 			page 81


vTaskSuspendAll
xTaskGenericNotify
xTaskResumeAll
ulSetInterruptMaskFromISR
xTaskGenericNotifyFromISR
vClearInterruptMaskFromISR
